
servo.elf:     file format elf32-littlearm

Sections:
Idx Name          Size      VMA       LMA       File off  Algn
  0 .isr_vector   000001d8  08000000  08000000  00010000  2**0
                  CONTENTS, ALLOC, LOAD, READONLY, DATA
  1 .text         000088d4  080001d8  080001d8  000101d8  2**3
                  CONTENTS, ALLOC, LOAD, READONLY, CODE
  2 .rodata       00000374  08008aac  08008aac  00018aac  2**2
                  CONTENTS, ALLOC, LOAD, READONLY, DATA
  3 .ARM.extab    00000000  08008e20  08008e20  00020644  2**0
                  CONTENTS
  4 .ARM          00000000  08008e20  08008e20  00020644  2**0
                  CONTENTS
  5 .preinit_array 00000000  08008e20  08008e20  00020644  2**0
                  CONTENTS, ALLOC, LOAD, DATA
  6 .init_array   00000004  08008e20  08008e20  00018e20  2**2
                  CONTENTS, ALLOC, LOAD, DATA
  7 .fini_array   00000004  08008e24  08008e24  00018e24  2**2
                  CONTENTS, ALLOC, LOAD, DATA
  8 .data         00000644  20000000  08008e28  00020000  2**2
                  CONTENTS, ALLOC, LOAD, DATA
  9 .bss          0000169c  20000644  0800946c  00020644  2**2
                  ALLOC
 10 ._user_heap_stack 00000600  20001ce0  0800946c  00021ce0  2**0
                  ALLOC
 11 .ARM.attributes 00000030  00000000  00000000  00020644  2**0
                  CONTENTS, READONLY
 12 .comment      000000d2  00000000  00000000  00020674  2**0
                  CONTENTS, READONLY
 13 .debug_frame  00000074  00000000  00000000  00020748  2**2
                  CONTENTS, READONLY, DEBUGGING, OCTETS

Disassembly of section .text:

080001d8 <__do_global_dtors_aux>:
 80001d8:	b510      	push	{r4, lr}
 80001da:	4c05      	ldr	r4, [pc, #20]	; (80001f0 <__do_global_dtors_aux+0x18>)
 80001dc:	7823      	ldrb	r3, [r4, #0]
 80001de:	b933      	cbnz	r3, 80001ee <__do_global_dtors_aux+0x16>
 80001e0:	4b04      	ldr	r3, [pc, #16]	; (80001f4 <__do_global_dtors_aux+0x1c>)
 80001e2:	b113      	cbz	r3, 80001ea <__do_global_dtors_aux+0x12>
 80001e4:	4804      	ldr	r0, [pc, #16]	; (80001f8 <__do_global_dtors_aux+0x20>)
 80001e6:	f3af 8000 	nop.w
 80001ea:	2301      	movs	r3, #1
 80001ec:	7023      	strb	r3, [r4, #0]
 80001ee:	bd10      	pop	{r4, pc}
 80001f0:	20000644 	.word	0x20000644
 80001f4:	00000000 	.word	0x00000000
 80001f8:	08008a94 	.word	0x08008a94

080001fc <frame_dummy>:
 80001fc:	b508      	push	{r3, lr}
 80001fe:	4b03      	ldr	r3, [pc, #12]	; (800020c <frame_dummy+0x10>)
 8000200:	b11b      	cbz	r3, 800020a <frame_dummy+0xe>
 8000202:	4903      	ldr	r1, [pc, #12]	; (8000210 <frame_dummy+0x14>)
 8000204:	4803      	ldr	r0, [pc, #12]	; (8000214 <frame_dummy+0x18>)
 8000206:	f3af 8000 	nop.w
 800020a:	bd08      	pop	{r3, pc}
 800020c:	00000000 	.word	0x00000000
 8000210:	20000648 	.word	0x20000648
 8000214:	08008a94 	.word	0x08008a94

08000218 <Reset_Handler>:
 8000218:	480d      	ldr	r0, [pc, #52]	; (8000250 <LoopForever+0x2>)
 800021a:	4685      	mov	sp, r0
 800021c:	480d      	ldr	r0, [pc, #52]	; (8000254 <LoopForever+0x6>)
 800021e:	490e      	ldr	r1, [pc, #56]	; (8000258 <LoopForever+0xa>)
 8000220:	4a0e      	ldr	r2, [pc, #56]	; (800025c <LoopForever+0xe>)
 8000222:	2300      	movs	r3, #0
 8000224:	e002      	b.n	800022c <LoopCopyDataInit>

08000226 <CopyDataInit>:
 8000226:	58d4      	ldr	r4, [r2, r3]
 8000228:	50c4      	str	r4, [r0, r3]
 800022a:	3304      	adds	r3, #4

0800022c <LoopCopyDataInit>:
 800022c:	18c4      	adds	r4, r0, r3
 800022e:	428c      	cmp	r4, r1
 8000230:	d3f9      	bcc.n	8000226 <CopyDataInit>
 8000232:	4a0b      	ldr	r2, [pc, #44]	; (8000260 <LoopForever+0x12>)
 8000234:	4c0b      	ldr	r4, [pc, #44]	; (8000264 <LoopForever+0x16>)
 8000236:	2300      	movs	r3, #0
 8000238:	e001      	b.n	800023e <LoopFillZerobss>

0800023a <FillZerobss>:
 800023a:	6013      	str	r3, [r2, #0]
 800023c:	3204      	adds	r2, #4

0800023e <LoopFillZerobss>:
 800023e:	42a2      	cmp	r2, r4
 8000240:	d3fb      	bcc.n	800023a <FillZerobss>
 8000242:	f003 fd99 	bl	8003d78 <SystemInit>
 8000246:	f008 fbeb 	bl	8008a20 <__libc_init_array>
 800024a:	f000 fb81 	bl	8000950 <main>

0800024e <LoopForever>:
 800024e:	e7fe      	b.n	800024e <LoopForever>
 8000250:	20008000 	.word	0x20008000
 8000254:	20000000 	.word	0x20000000
 8000258:	20000644 	.word	0x20000644
 800025c:	08008e28 	.word	0x08008e28
 8000260:	20000644 	.word	0x20000644
 8000264:	20001ce0 	.word	0x20001ce0

08000268 <BusFault_Handler>:
 8000268:	e7fe      	b.n	8000268 <BusFault_Handler>
	...

0800026c <ASPEP_start>:
 800026c:	b510      	push	{r4, lr}
 800026e:	6cc3      	ldr	r3, [r0, #76]	; 0x4c
 8000270:	4604      	mov	r4, r0
 8000272:	6940      	ldr	r0, [r0, #20]
 8000274:	4798      	blx	r3
 8000276:	2300      	movs	r3, #0
 8000278:	f8a4 3064 	strh.w	r3, [r4, #100]	; 0x64
 800027c:	f884 3060 	strb.w	r3, [r4, #96]	; 0x60
 8000280:	6960      	ldr	r0, [r4, #20]
 8000282:	6d63      	ldr	r3, [r4, #84]	; 0x54
 8000284:	f104 011c 	add.w	r1, r4, #28
 8000288:	2204      	movs	r2, #4
 800028a:	e8bd 4010 	ldmia.w	sp!, {r4, lr}
 800028e:	4718      	bx	r3

08000290 <ASPEP_sendBeacon>:
 8000290:	b4f0      	push	{r4, r5, r6, r7}
 8000292:	780b      	ldrb	r3, [r1, #0]
 8000294:	790a      	ldrb	r2, [r1, #4]
 8000296:	788c      	ldrb	r4, [r1, #2]
 8000298:	784f      	ldrb	r7, [r1, #1]
 800029a:	78ce      	ldrb	r6, [r1, #3]
 800029c:	4d1b      	ldr	r5, [pc, #108]	; (800030c <ASPEP_sendBeacon+0x7c>)
 800029e:	01db      	lsls	r3, r3, #7
 80002a0:	ea43 1302 	orr.w	r3, r3, r2, lsl #4
 80002a4:	f043 0205 	orr.w	r2, r3, #5
 80002a8:	03a3      	lsls	r3, r4, #14
 80002aa:	f002 01f5 	and.w	r1, r2, #245	; 0xf5
 80002ae:	ea43 2307 	orr.w	r3, r3, r7, lsl #8
 80002b2:	ea43 5346 	orr.w	r3, r3, r6, lsl #21
 80002b6:	4313      	orrs	r3, r2
 80002b8:	5c69      	ldrb	r1, [r5, r1]
 80002ba:	4c15      	ldr	r4, [pc, #84]	; (8000310 <ASPEP_sendBeacon+0x80>)
 80002bc:	f3c3 2207 	ubfx	r2, r3, #8, #8
 80002c0:	404a      	eors	r2, r1
 80002c2:	f3c3 4107 	ubfx	r1, r3, #16, #8
 80002c6:	5caa      	ldrb	r2, [r5, r2]
 80002c8:	4051      	eors	r1, r2
 80002ca:	f3c3 6603 	ubfx	r6, r3, #24, #4
 80002ce:	5c6a      	ldrb	r2, [r5, r1]
 80002d0:	4072      	eors	r2, r6
 80002d2:	5ca2      	ldrb	r2, [r4, r2]
 80002d4:	ea43 7302 	orr.w	r3, r3, r2, lsl #28
 80002d8:	6203      	str	r3, [r0, #32]
 80002da:	b672      	cpsid	i
 80002dc:	6c83      	ldr	r3, [r0, #72]	; 0x48
 80002de:	b143      	cbz	r3, 80002f2 <ASPEP_sendBeacon+0x62>
 80002e0:	b662      	cpsie	i
 80002e2:	f890 3024 	ldrb.w	r3, [r0, #36]	; 0x24
 80002e6:	b913      	cbnz	r3, 80002ee <ASPEP_sendBeacon+0x5e>
 80002e8:	2302      	movs	r3, #2
 80002ea:	f880 3024 	strb.w	r3, [r0, #36]	; 0x24
 80002ee:	bcf0      	pop	{r4, r5, r6, r7}
 80002f0:	4770      	bx	lr
 80002f2:	f100 0120 	add.w	r1, r0, #32
 80002f6:	2303      	movs	r3, #3
 80002f8:	6481      	str	r1, [r0, #72]	; 0x48
 80002fa:	f880 3024 	strb.w	r3, [r0, #36]	; 0x24
 80002fe:	b662      	cpsie	i
 8000300:	2204      	movs	r2, #4
 8000302:	6d83      	ldr	r3, [r0, #88]	; 0x58
 8000304:	6940      	ldr	r0, [r0, #20]
 8000306:	bcf0      	pop	{r4, r5, r6, r7}
 8000308:	4718      	bx	r3
 800030a:	bf00      	nop
 800030c:	08008abc 	.word	0x08008abc
 8000310:	08008aac 	.word	0x08008aac

08000314 <ASPEP_sendPing>:
 8000314:	b470      	push	{r4, r5, r6}
 8000316:	f890 3063 	ldrb.w	r3, [r0, #99]	; 0x63
 800031a:	f890 5060 	ldrb.w	r5, [r0, #96]	; 0x60
 800031e:	014c      	lsls	r4, r1, #5
 8000320:	f003 060f 	and.w	r6, r3, #15
 8000324:	ea44 1301 	orr.w	r3, r4, r1, lsl #4
 8000328:	ea43 2306 	orr.w	r3, r3, r6, lsl #8
 800032c:	f005 0401 	and.w	r4, r5, #1
 8000330:	ea43 1384 	orr.w	r3, r3, r4, lsl #6
 8000334:	ea43 13c4 	orr.w	r3, r3, r4, lsl #7
 8000338:	f043 0306 	orr.w	r3, r3, #6
 800033c:	4c16      	ldr	r4, [pc, #88]	; (8000398 <ASPEP_sendPing+0x84>)
 800033e:	4d17      	ldr	r5, [pc, #92]	; (800039c <ASPEP_sendPing+0x88>)
 8000340:	f003 01f6 	and.w	r1, r3, #246	; 0xf6
 8000344:	ea43 3202 	orr.w	r2, r3, r2, lsl #12
 8000348:	5c61      	ldrb	r1, [r4, r1]
 800034a:	ea81 2112 	eor.w	r1, r1, r2, lsr #8
 800034e:	b2c9      	uxtb	r1, r1
 8000350:	5c63      	ldrb	r3, [r4, r1]
 8000352:	ea83 4312 	eor.w	r3, r3, r2, lsr #16
 8000356:	b2db      	uxtb	r3, r3
 8000358:	5ce3      	ldrb	r3, [r4, r3]
 800035a:	ea83 6312 	eor.w	r3, r3, r2, lsr #24
 800035e:	5ceb      	ldrb	r3, [r5, r3]
 8000360:	ea42 7203 	orr.w	r2, r2, r3, lsl #28
 8000364:	6202      	str	r2, [r0, #32]
 8000366:	b672      	cpsid	i
 8000368:	6c83      	ldr	r3, [r0, #72]	; 0x48
 800036a:	b143      	cbz	r3, 800037e <ASPEP_sendPing+0x6a>
 800036c:	b662      	cpsie	i
 800036e:	f890 3024 	ldrb.w	r3, [r0, #36]	; 0x24
 8000372:	b913      	cbnz	r3, 800037a <ASPEP_sendPing+0x66>
 8000374:	2302      	movs	r3, #2
 8000376:	f880 3024 	strb.w	r3, [r0, #36]	; 0x24
 800037a:	bc70      	pop	{r4, r5, r6}
 800037c:	4770      	bx	lr
 800037e:	f100 0120 	add.w	r1, r0, #32
 8000382:	2303      	movs	r3, #3
 8000384:	6481      	str	r1, [r0, #72]	; 0x48
 8000386:	f880 3024 	strb.w	r3, [r0, #36]	; 0x24
 800038a:	b662      	cpsie	i
 800038c:	2204      	movs	r2, #4
 800038e:	6d83      	ldr	r3, [r0, #88]	; 0x58
 8000390:	6940      	ldr	r0, [r0, #20]
 8000392:	bc70      	pop	{r4, r5, r6}
 8000394:	4718      	bx	r3
 8000396:	bf00      	nop
 8000398:	08008abc 	.word	0x08008abc
 800039c:	08008aac 	.word	0x08008aac

080003a0 <ASPEP_getBuffer>:
 80003a0:	2a0a      	cmp	r2, #10
 80003a2:	b410      	push	{r4}
 80003a4:	4603      	mov	r3, r0
 80003a6:	d00b      	beq.n	80003c0 <ASPEP_getBuffer+0x20>
 80003a8:	f890 2036 	ldrb.w	r2, [r0, #54]	; 0x36
 80003ac:	2a01      	cmp	r2, #1
 80003ae:	d921      	bls.n	80003f4 <ASPEP_getBuffer+0x54>
 80003b0:	f890 203e 	ldrb.w	r2, [r0, #62]	; 0x3e
 80003b4:	2a01      	cmp	r2, #1
 80003b6:	d911      	bls.n	80003dc <ASPEP_getBuffer+0x3c>
 80003b8:	2000      	movs	r0, #0
 80003ba:	f85d 4b04 	ldr.w	r4, [sp], #4
 80003be:	4770      	bx	lr
 80003c0:	f890 202e 	ldrb.w	r2, [r0, #46]	; 0x2e
 80003c4:	2a01      	cmp	r2, #1
 80003c6:	d8f7      	bhi.n	80003b8 <ASPEP_getBuffer+0x18>
 80003c8:	6a82      	ldr	r2, [r0, #40]	; 0x28
 80003ca:	2401      	movs	r4, #1
 80003cc:	3204      	adds	r2, #4
 80003ce:	600a      	str	r2, [r1, #0]
 80003d0:	f883 402e 	strb.w	r4, [r3, #46]	; 0x2e
 80003d4:	4620      	mov	r0, r4
 80003d6:	f85d 4b04 	ldr.w	r4, [sp], #4
 80003da:	4770      	bx	lr
 80003dc:	6b82      	ldr	r2, [r0, #56]	; 0x38
 80003de:	2001      	movs	r0, #1
 80003e0:	f103 0438 	add.w	r4, r3, #56	; 0x38
 80003e4:	f883 003e 	strb.w	r0, [r3, #62]	; 0x3e
 80003e8:	3204      	adds	r2, #4
 80003ea:	641c      	str	r4, [r3, #64]	; 0x40
 80003ec:	f85d 4b04 	ldr.w	r4, [sp], #4
 80003f0:	600a      	str	r2, [r1, #0]
 80003f2:	4770      	bx	lr
 80003f4:	6b02      	ldr	r2, [r0, #48]	; 0x30
 80003f6:	2001      	movs	r0, #1
 80003f8:	f103 0430 	add.w	r4, r3, #48	; 0x30
 80003fc:	f883 0036 	strb.w	r0, [r3, #54]	; 0x36
 8000400:	3204      	adds	r2, #4
 8000402:	641c      	str	r4, [r3, #64]	; 0x40
 8000404:	f85d 4b04 	ldr.w	r4, [sp], #4
 8000408:	600a      	str	r2, [r1, #0]
 800040a:	4770      	bx	lr

0800040c <ASPEP_sendPacket>:
 800040c:	b5f8      	push	{r3, r4, r5, r6, r7, lr}
 800040e:	f890 4064 	ldrb.w	r4, [r0, #100]	; 0x64
 8000412:	2c02      	cmp	r4, #2
 8000414:	d002      	beq.n	800041c <ASPEP_sendPacket+0x10>
 8000416:	2102      	movs	r1, #2
 8000418:	4608      	mov	r0, r1
 800041a:	bdf8      	pop	{r3, r4, r5, r6, r7, pc}
 800041c:	ea43 1402 	orr.w	r4, r3, r2, lsl #4
 8000420:	f841 4c04 	str.w	r4, [r1, #-4]
 8000424:	f890 4067 	ldrb.w	r4, [r0, #103]	; 0x67
 8000428:	2c01      	cmp	r4, #1
 800042a:	f1a1 0504 	sub.w	r5, r1, #4
 800042e:	d106      	bne.n	800043e <ASPEP_sendPacket+0x32>
 8000430:	18ac      	adds	r4, r5, r2
 8000432:	26ca      	movs	r6, #202	; 0xca
 8000434:	548e      	strb	r6, [r1, r2]
 8000436:	1c97      	adds	r7, r2, #2
 8000438:	26fe      	movs	r6, #254	; 0xfe
 800043a:	b2ba      	uxth	r2, r7
 800043c:	7166      	strb	r6, [r4, #5]
 800043e:	2b0a      	cmp	r3, #10
 8000440:	d103      	bne.n	800044a <ASPEP_sendPacket+0x3e>
 8000442:	7c04      	ldrb	r4, [r0, #16]
 8000444:	b37c      	cbz	r4, 80004a6 <ASPEP_sendPacket+0x9a>
 8000446:	2400      	movs	r4, #0
 8000448:	7404      	strb	r4, [r0, #16]
 800044a:	f851 4c04 	ldr.w	r4, [r1, #-4]
 800044e:	4f34      	ldr	r7, [pc, #208]	; (8000520 <ASPEP_sendPacket+0x114>)
 8000450:	f8df c0d0 	ldr.w	ip, [pc, #208]	; 8000524 <ASPEP_sendPacket+0x118>
 8000454:	b2e6      	uxtb	r6, r4
 8000456:	f3c4 2e07 	ubfx	lr, r4, #8, #8
 800045a:	5dbe      	ldrb	r6, [r7, r6]
 800045c:	ea8e 0e06 	eor.w	lr, lr, r6
 8000460:	f3c4 4607 	ubfx	r6, r4, #16, #8
 8000464:	f817 e00e 	ldrb.w	lr, [r7, lr]
 8000468:	ea86 060e 	eor.w	r6, r6, lr
 800046c:	3204      	adds	r2, #4
 800046e:	5dbe      	ldrb	r6, [r7, r6]
 8000470:	f3c4 6703 	ubfx	r7, r4, #24, #4
 8000474:	407e      	eors	r6, r7
 8000476:	b292      	uxth	r2, r2
 8000478:	f81c 6006 	ldrb.w	r6, [ip, r6]
 800047c:	ea44 7406 	orr.w	r4, r4, r6, lsl #28
 8000480:	f841 4c04 	str.w	r4, [r1, #-4]
 8000484:	b672      	cpsid	i
 8000486:	6c81      	ldr	r1, [r0, #72]	; 0x48
 8000488:	b1e9      	cbz	r1, 80004c6 <ASPEP_sendPacket+0xba>
 800048a:	b662      	cpsie	i
 800048c:	2b09      	cmp	r3, #9
 800048e:	d00d      	beq.n	80004ac <ASPEP_sendPacket+0xa0>
 8000490:	2b0a      	cmp	r3, #10
 8000492:	d02f      	beq.n	80004f4 <ASPEP_sendPacket+0xe8>
 8000494:	2b00      	cmp	r3, #0
 8000496:	d133      	bne.n	8000500 <ASPEP_sendPacket+0xf4>
 8000498:	f890 1024 	ldrb.w	r1, [r0, #36]	; 0x24
 800049c:	bb71      	cbnz	r1, 80004fc <ASPEP_sendPacket+0xf0>
 800049e:	2302      	movs	r3, #2
 80004a0:	f880 3024 	strb.w	r3, [r0, #36]	; 0x24
 80004a4:	e7b8      	b.n	8000418 <ASPEP_sendPacket+0xc>
 80004a6:	2101      	movs	r1, #1
 80004a8:	4608      	mov	r0, r1
 80004aa:	bdf8      	pop	{r3, r4, r5, r6, r7, pc}
 80004ac:	e9d0 3410 	ldrd	r3, r4, [r0, #64]	; 0x40
 80004b0:	6819      	ldr	r1, [r3, #0]
 80004b2:	428d      	cmp	r5, r1
 80004b4:	bf14      	ite	ne
 80004b6:	2103      	movne	r1, #3
 80004b8:	2100      	moveq	r1, #0
 80004ba:	b37c      	cbz	r4, 800051c <ASPEP_sendPacket+0x110>
 80004bc:	2402      	movs	r4, #2
 80004be:	719c      	strb	r4, [r3, #6]
 80004c0:	6c03      	ldr	r3, [r0, #64]	; 0x40
 80004c2:	809a      	strh	r2, [r3, #4]
 80004c4:	e7a8      	b.n	8000418 <ASPEP_sendPacket+0xc>
 80004c6:	2b09      	cmp	r3, #9
 80004c8:	d022      	beq.n	8000510 <ASPEP_sendPacket+0x104>
 80004ca:	2b0a      	cmp	r3, #10
 80004cc:	f04f 0103 	mov.w	r1, #3
 80004d0:	bf0b      	itete	eq
 80004d2:	f100 0328 	addeq.w	r3, r0, #40	; 0x28
 80004d6:	f100 0320 	addne.w	r3, r0, #32
 80004da:	f880 102e 	strbeq.w	r1, [r0, #46]	; 0x2e
 80004de:	f880 1024 	strbne.w	r1, [r0, #36]	; 0x24
 80004e2:	6483      	str	r3, [r0, #72]	; 0x48
 80004e4:	b662      	cpsie	i
 80004e6:	6d83      	ldr	r3, [r0, #88]	; 0x58
 80004e8:	6940      	ldr	r0, [r0, #20]
 80004ea:	4629      	mov	r1, r5
 80004ec:	4798      	blx	r3
 80004ee:	2100      	movs	r1, #0
 80004f0:	4608      	mov	r0, r1
 80004f2:	bdf8      	pop	{r3, r4, r5, r6, r7, pc}
 80004f4:	f890 302e 	ldrb.w	r3, [r0, #46]	; 0x2e
 80004f8:	2b01      	cmp	r3, #1
 80004fa:	d003      	beq.n	8000504 <ASPEP_sendPacket+0xf8>
 80004fc:	2103      	movs	r1, #3
 80004fe:	e78b      	b.n	8000418 <ASPEP_sendPacket+0xc>
 8000500:	2100      	movs	r1, #0
 8000502:	e789      	b.n	8000418 <ASPEP_sendPacket+0xc>
 8000504:	2302      	movs	r3, #2
 8000506:	8582      	strh	r2, [r0, #44]	; 0x2c
 8000508:	f880 302e 	strb.w	r3, [r0, #46]	; 0x2e
 800050c:	2100      	movs	r1, #0
 800050e:	e783      	b.n	8000418 <ASPEP_sendPacket+0xc>
 8000510:	6c03      	ldr	r3, [r0, #64]	; 0x40
 8000512:	2103      	movs	r1, #3
 8000514:	7199      	strb	r1, [r3, #6]
 8000516:	6c03      	ldr	r3, [r0, #64]	; 0x40
 8000518:	6483      	str	r3, [r0, #72]	; 0x48
 800051a:	e7e3      	b.n	80004e4 <ASPEP_sendPacket+0xd8>
 800051c:	6443      	str	r3, [r0, #68]	; 0x44
 800051e:	e7cd      	b.n	80004bc <ASPEP_sendPacket+0xb0>
 8000520:	08008abc 	.word	0x08008abc
 8000524:	08008aac 	.word	0x08008aac

08000528 <ASPEP_HWDataTransmittedIT>:
 8000528:	b538      	push	{r3, r4, r5, lr}
 800052a:	f890 3024 	ldrb.w	r3, [r0, #36]	; 0x24
 800052e:	2b03      	cmp	r3, #3
 8000530:	4604      	mov	r4, r0
 8000532:	d015      	beq.n	8000560 <ASPEP_HWDataTransmittedIT+0x38>
 8000534:	6c83      	ldr	r3, [r0, #72]	; 0x48
 8000536:	2200      	movs	r2, #0
 8000538:	719a      	strb	r2, [r3, #6]
 800053a:	f890 302e 	ldrb.w	r3, [r0, #46]	; 0x2e
 800053e:	2b02      	cmp	r3, #2
 8000540:	d015      	beq.n	800056e <ASPEP_HWDataTransmittedIT+0x46>
 8000542:	f890 3024 	ldrb.w	r3, [r0, #36]	; 0x24
 8000546:	2b02      	cmp	r3, #2
 8000548:	d11d      	bne.n	8000586 <ASPEP_HWDataTransmittedIT+0x5e>
 800054a:	f100 0120 	add.w	r1, r0, #32
 800054e:	6d83      	ldr	r3, [r0, #88]	; 0x58
 8000550:	6481      	str	r1, [r0, #72]	; 0x48
 8000552:	2204      	movs	r2, #4
 8000554:	6940      	ldr	r0, [r0, #20]
 8000556:	4798      	blx	r3
 8000558:	2303      	movs	r3, #3
 800055a:	f884 3024 	strb.w	r3, [r4, #36]	; 0x24
 800055e:	bd38      	pop	{r3, r4, r5, pc}
 8000560:	f890 302e 	ldrb.w	r3, [r0, #46]	; 0x2e
 8000564:	2200      	movs	r2, #0
 8000566:	2b02      	cmp	r3, #2
 8000568:	f880 2024 	strb.w	r2, [r0, #36]	; 0x24
 800056c:	d10b      	bne.n	8000586 <ASPEP_HWDataTransmittedIT+0x5e>
 800056e:	f104 0328 	add.w	r3, r4, #40	; 0x28
 8000572:	64a3      	str	r3, [r4, #72]	; 0x48
 8000574:	8da2      	ldrh	r2, [r4, #44]	; 0x2c
 8000576:	6da3      	ldr	r3, [r4, #88]	; 0x58
 8000578:	6aa1      	ldr	r1, [r4, #40]	; 0x28
 800057a:	6960      	ldr	r0, [r4, #20]
 800057c:	4798      	blx	r3
 800057e:	2303      	movs	r3, #3
 8000580:	f884 302e 	strb.w	r3, [r4, #46]	; 0x2e
 8000584:	bd38      	pop	{r3, r4, r5, pc}
 8000586:	b672      	cpsid	i
 8000588:	6c63      	ldr	r3, [r4, #68]	; 0x44
 800058a:	b1d3      	cbz	r3, 80005c2 <ASPEP_HWDataTransmittedIT+0x9a>
 800058c:	2203      	movs	r2, #3
 800058e:	64a3      	str	r3, [r4, #72]	; 0x48
 8000590:	719a      	strb	r2, [r3, #6]
 8000592:	6c63      	ldr	r3, [r4, #68]	; 0x44
 8000594:	6da5      	ldr	r5, [r4, #88]	; 0x58
 8000596:	889a      	ldrh	r2, [r3, #4]
 8000598:	6819      	ldr	r1, [r3, #0]
 800059a:	6960      	ldr	r0, [r4, #20]
 800059c:	47a8      	blx	r5
 800059e:	f894 3036 	ldrb.w	r3, [r4, #54]	; 0x36
 80005a2:	2b02      	cmp	r3, #2
 80005a4:	d007      	beq.n	80005b6 <ASPEP_HWDataTransmittedIT+0x8e>
 80005a6:	f894 303e 	ldrb.w	r3, [r4, #62]	; 0x3e
 80005aa:	2b02      	cmp	r3, #2
 80005ac:	d003      	beq.n	80005b6 <ASPEP_HWDataTransmittedIT+0x8e>
 80005ae:	2300      	movs	r3, #0
 80005b0:	6463      	str	r3, [r4, #68]	; 0x44
 80005b2:	b662      	cpsie	i
 80005b4:	bd38      	pop	{r3, r4, r5, pc}
 80005b6:	6c62      	ldr	r2, [r4, #68]	; 0x44
 80005b8:	0063      	lsls	r3, r4, #1
 80005ba:	3368      	adds	r3, #104	; 0x68
 80005bc:	1a9b      	subs	r3, r3, r2
 80005be:	6463      	str	r3, [r4, #68]	; 0x44
 80005c0:	e7f7      	b.n	80005b2 <ASPEP_HWDataTransmittedIT+0x8a>
 80005c2:	64a3      	str	r3, [r4, #72]	; 0x48
 80005c4:	e7f5      	b.n	80005b2 <ASPEP_HWDataTransmittedIT+0x8a>
 80005c6:	bf00      	nop

080005c8 <ASPEP_RXframeProcess>:
 80005c8:	b5f8      	push	{r3, r4, r5, r6, r7, lr}
 80005ca:	f890 3061 	ldrb.w	r3, [r0, #97]	; 0x61
 80005ce:	69c2      	ldr	r2, [r0, #28]
 80005d0:	2500      	movs	r5, #0
 80005d2:	4604      	mov	r4, r0
 80005d4:	800d      	strh	r5, [r1, #0]
 80005d6:	b18b      	cbz	r3, 80005fc <ASPEP_RXframeProcess+0x34>
 80005d8:	f890 6064 	ldrb.w	r6, [r0, #100]	; 0x64
 80005dc:	f880 5061 	strb.w	r5, [r0, #97]	; 0x61
 80005e0:	2e01      	cmp	r6, #1
 80005e2:	d050      	beq.n	8000686 <ASPEP_RXframeProcess+0xbe>
 80005e4:	2e02      	cmp	r6, #2
 80005e6:	d03a      	beq.n	800065e <ASPEP_RXframeProcess+0x96>
 80005e8:	2e00      	cmp	r6, #0
 80005ea:	d030      	beq.n	800064e <ASPEP_RXframeProcess+0x86>
 80005ec:	6d63      	ldr	r3, [r4, #84]	; 0x54
 80005ee:	6960      	ldr	r0, [r4, #20]
 80005f0:	2204      	movs	r2, #4
 80005f2:	f104 011c 	add.w	r1, r4, #28
 80005f6:	4798      	blx	r3
 80005f8:	4628      	mov	r0, r5
 80005fa:	bdf8      	pop	{r3, r4, r5, r6, r7, pc}
 80005fc:	f890 5062 	ldrb.w	r5, [r0, #98]	; 0x62
 8000600:	2d00      	cmp	r5, #0
 8000602:	d0f9      	beq.n	80005f8 <ASPEP_RXframeProcess+0x30>
 8000604:	042b      	lsls	r3, r5, #16
 8000606:	ea43 2505 	orr.w	r5, r3, r5, lsl #8
 800060a:	f3c5 2307 	ubfx	r3, r5, #8, #8
 800060e:	4a7a      	ldr	r2, [pc, #488]	; (80007f8 <ASPEP_RXframeProcess+0x230>)
 8000610:	497a      	ldr	r1, [pc, #488]	; (80007fc <ASPEP_RXframeProcess+0x234>)
 8000612:	f083 0309 	eor.w	r3, r3, #9
 8000616:	5cd3      	ldrb	r3, [r2, r3]
 8000618:	ea83 4315 	eor.w	r3, r3, r5, lsr #16
 800061c:	f045 050f 	orr.w	r5, r5, #15
 8000620:	5cd3      	ldrb	r3, [r2, r3]
 8000622:	5ccb      	ldrb	r3, [r1, r3]
 8000624:	ea45 7503 	orr.w	r5, r5, r3, lsl #28
 8000628:	6205      	str	r5, [r0, #32]
 800062a:	b672      	cpsid	i
 800062c:	6c83      	ldr	r3, [r0, #72]	; 0x48
 800062e:	b3cb      	cbz	r3, 80006a4 <ASPEP_RXframeProcess+0xdc>
 8000630:	b662      	cpsie	i
 8000632:	f890 3024 	ldrb.w	r3, [r0, #36]	; 0x24
 8000636:	b913      	cbnz	r3, 800063e <ASPEP_RXframeProcess+0x76>
 8000638:	2302      	movs	r3, #2
 800063a:	f880 3024 	strb.w	r3, [r0, #36]	; 0x24
 800063e:	2500      	movs	r5, #0
 8000640:	6960      	ldr	r0, [r4, #20]
 8000642:	6d23      	ldr	r3, [r4, #80]	; 0x50
 8000644:	f884 5062 	strb.w	r5, [r4, #98]	; 0x62
 8000648:	4798      	blx	r3
 800064a:	4628      	mov	r0, r5
 800064c:	bdf8      	pop	{r3, r4, r5, r6, r7, pc}
 800064e:	f890 3066 	ldrb.w	r3, [r0, #102]	; 0x66
 8000652:	2b05      	cmp	r3, #5
 8000654:	d04b      	beq.n	80006ee <ASPEP_RXframeProcess+0x126>
 8000656:	2b06      	cmp	r3, #6
 8000658:	d069      	beq.n	800072e <ASPEP_RXframeProcess+0x166>
 800065a:	4635      	mov	r5, r6
 800065c:	e7c6      	b.n	80005ec <ASPEP_RXframeProcess+0x24>
 800065e:	f890 3066 	ldrb.w	r3, [r0, #102]	; 0x66
 8000662:	2b05      	cmp	r3, #5
 8000664:	d03a      	beq.n	80006dc <ASPEP_RXframeProcess+0x114>
 8000666:	2b06      	cmp	r3, #6
 8000668:	d068      	beq.n	800073c <ASPEP_RXframeProcess+0x174>
 800066a:	2b09      	cmp	r3, #9
 800066c:	d1be      	bne.n	80005ec <ASPEP_RXframeProcess+0x24>
 800066e:	f890 3060 	ldrb.w	r3, [r0, #96]	; 0x60
 8000672:	f8b0 205c 	ldrh.w	r2, [r0, #92]	; 0x5c
 8000676:	6985      	ldr	r5, [r0, #24]
 8000678:	3301      	adds	r3, #1
 800067a:	2001      	movs	r0, #1
 800067c:	f884 3060 	strb.w	r3, [r4, #96]	; 0x60
 8000680:	7420      	strb	r0, [r4, #16]
 8000682:	800a      	strh	r2, [r1, #0]
 8000684:	e7b2      	b.n	80005ec <ASPEP_RXframeProcess+0x24>
 8000686:	f890 3066 	ldrb.w	r3, [r0, #102]	; 0x66
 800068a:	2b05      	cmp	r3, #5
 800068c:	d016      	beq.n	80006bc <ASPEP_RXframeProcess+0xf4>
 800068e:	2b06      	cmp	r3, #6
 8000690:	d1ac      	bne.n	80005ec <ASPEP_RXframeProcess+0x24>
 8000692:	f3c2 320f 	ubfx	r2, r2, #12, #16
 8000696:	4631      	mov	r1, r6
 8000698:	f7ff fe3c 	bl	8000314 <ASPEP_sendPing>
 800069c:	2302      	movs	r3, #2
 800069e:	f884 3064 	strb.w	r3, [r4, #100]	; 0x64
 80006a2:	e7a3      	b.n	80005ec <ASPEP_RXframeProcess+0x24>
 80006a4:	f100 0120 	add.w	r1, r0, #32
 80006a8:	2303      	movs	r3, #3
 80006aa:	6481      	str	r1, [r0, #72]	; 0x48
 80006ac:	f880 3024 	strb.w	r3, [r0, #36]	; 0x24
 80006b0:	b662      	cpsie	i
 80006b2:	2204      	movs	r2, #4
 80006b4:	6d83      	ldr	r3, [r0, #88]	; 0x58
 80006b6:	6940      	ldr	r0, [r0, #20]
 80006b8:	4798      	blx	r3
 80006ba:	e7c0      	b.n	800063e <ASPEP_RXframeProcess+0x76>
 80006bc:	7f01      	ldrb	r1, [r0, #28]
 80006be:	f890 3067 	ldrb.w	r3, [r0, #103]	; 0x67
 80006c2:	ebb3 1fd1 	cmp.w	r3, r1, lsr #7
 80006c6:	d059      	beq.n	800077c <ASPEP_RXframeProcess+0x1b4>
 80006c8:	2300      	movs	r3, #0
 80006ca:	f884 3064 	strb.w	r3, [r4, #100]	; 0x64
 80006ce:	f104 0167 	add.w	r1, r4, #103	; 0x67
 80006d2:	4620      	mov	r0, r4
 80006d4:	f7ff fddc 	bl	8000290 <ASPEP_sendBeacon>
 80006d8:	2500      	movs	r5, #0
 80006da:	e787      	b.n	80005ec <ASPEP_RXframeProcess+0x24>
 80006dc:	7f01      	ldrb	r1, [r0, #28]
 80006de:	f890 3067 	ldrb.w	r3, [r0, #103]	; 0x67
 80006e2:	ebb3 1fd1 	cmp.w	r3, r1, lsr #7
 80006e6:	d02e      	beq.n	8000746 <ASPEP_RXframeProcess+0x17e>
 80006e8:	f884 5064 	strb.w	r5, [r4, #100]	; 0x64
 80006ec:	e7ef      	b.n	80006ce <ASPEP_RXframeProcess+0x106>
 80006ee:	7f01      	ldrb	r1, [r0, #28]
 80006f0:	f890 7067 	ldrb.w	r7, [r0, #103]	; 0x67
 80006f4:	ebb7 1fd1 	cmp.w	r7, r1, lsr #7
 80006f8:	ea4f 15d1 	mov.w	r5, r1, lsr #7
 80006fc:	f3c2 3086 	ubfx	r0, r2, #14, #7
 8000700:	f3c2 5346 	ubfx	r3, r2, #21, #7
 8000704:	d054      	beq.n	80007b0 <ASPEP_RXframeProcess+0x1e8>
 8000706:	f894 1069 	ldrb.w	r1, [r4, #105]	; 0x69
 800070a:	f894 c06a 	ldrb.w	ip, [r4, #106]	; 0x6a
 800070e:	42bd      	cmp	r5, r7
 8000710:	bf28      	it	cs
 8000712:	463d      	movcs	r5, r7
 8000714:	4281      	cmp	r1, r0
 8000716:	bf28      	it	cs
 8000718:	4601      	movcs	r1, r0
 800071a:	4563      	cmp	r3, ip
 800071c:	bf28      	it	cs
 800071e:	4663      	movcs	r3, ip
 8000720:	f884 5067 	strb.w	r5, [r4, #103]	; 0x67
 8000724:	f884 1069 	strb.w	r1, [r4, #105]	; 0x69
 8000728:	f884 306a 	strb.w	r3, [r4, #106]	; 0x6a
 800072c:	e7cf      	b.n	80006ce <ASPEP_RXframeProcess+0x106>
 800072e:	f3c2 320f 	ubfx	r2, r2, #12, #16
 8000732:	4631      	mov	r1, r6
 8000734:	f7ff fdee 	bl	8000314 <ASPEP_sendPing>
 8000738:	4635      	mov	r5, r6
 800073a:	e757      	b.n	80005ec <ASPEP_RXframeProcess+0x24>
 800073c:	7f42      	ldrb	r2, [r0, #29]
 800073e:	2101      	movs	r1, #1
 8000740:	f7ff fde8 	bl	8000314 <ASPEP_sendPing>
 8000744:	e752      	b.n	80005ec <ASPEP_RXframeProcess+0x24>
 8000746:	7f43      	ldrb	r3, [r0, #29]
 8000748:	f890 1068 	ldrb.w	r1, [r0, #104]	; 0x68
 800074c:	f003 033f 	and.w	r3, r3, #63	; 0x3f
 8000750:	4299      	cmp	r1, r3
 8000752:	d3c9      	bcc.n	80006e8 <ASPEP_RXframeProcess+0x120>
 8000754:	f890 1069 	ldrb.w	r1, [r0, #105]	; 0x69
 8000758:	f3c2 3386 	ubfx	r3, r2, #14, #7
 800075c:	4299      	cmp	r1, r3
 800075e:	d1c3      	bne.n	80006e8 <ASPEP_RXframeProcess+0x120>
 8000760:	f890 106a 	ldrb.w	r1, [r0, #106]	; 0x6a
 8000764:	f3c2 5346 	ubfx	r3, r2, #21, #7
 8000768:	4299      	cmp	r1, r3
 800076a:	d1bd      	bne.n	80006e8 <ASPEP_RXframeProcess+0x120>
 800076c:	f890 506b 	ldrb.w	r5, [r0, #107]	; 0x6b
 8000770:	f3c2 1302 	ubfx	r3, r2, #4, #3
 8000774:	1aeb      	subs	r3, r5, r3
 8000776:	425d      	negs	r5, r3
 8000778:	415d      	adcs	r5, r3
 800077a:	e7b5      	b.n	80006e8 <ASPEP_RXframeProcess+0x120>
 800077c:	7f43      	ldrb	r3, [r0, #29]
 800077e:	f890 1068 	ldrb.w	r1, [r0, #104]	; 0x68
 8000782:	f003 033f 	and.w	r3, r3, #63	; 0x3f
 8000786:	4299      	cmp	r1, r3
 8000788:	d39e      	bcc.n	80006c8 <ASPEP_RXframeProcess+0x100>
 800078a:	f890 1069 	ldrb.w	r1, [r0, #105]	; 0x69
 800078e:	f3c2 3386 	ubfx	r3, r2, #14, #7
 8000792:	4299      	cmp	r1, r3
 8000794:	d198      	bne.n	80006c8 <ASPEP_RXframeProcess+0x100>
 8000796:	f890 106a 	ldrb.w	r1, [r0, #106]	; 0x6a
 800079a:	f3c2 5346 	ubfx	r3, r2, #21, #7
 800079e:	4299      	cmp	r1, r3
 80007a0:	d192      	bne.n	80006c8 <ASPEP_RXframeProcess+0x100>
 80007a2:	f890 106b 	ldrb.w	r1, [r0, #107]	; 0x6b
 80007a6:	f3c2 1302 	ubfx	r3, r2, #4, #3
 80007aa:	4299      	cmp	r1, r3
 80007ac:	d18c      	bne.n	80006c8 <ASPEP_RXframeProcess+0x100>
 80007ae:	e78e      	b.n	80006ce <ASPEP_RXframeProcess+0x106>
 80007b0:	7f61      	ldrb	r1, [r4, #29]
 80007b2:	f894 6068 	ldrb.w	r6, [r4, #104]	; 0x68
 80007b6:	f001 013f 	and.w	r1, r1, #63	; 0x3f
 80007ba:	42b1      	cmp	r1, r6
 80007bc:	d8a3      	bhi.n	8000706 <ASPEP_RXframeProcess+0x13e>
 80007be:	f894 1069 	ldrb.w	r1, [r4, #105]	; 0x69
 80007c2:	f894 c06a 	ldrb.w	ip, [r4, #106]	; 0x6a
 80007c6:	4288      	cmp	r0, r1
 80007c8:	d1a1      	bne.n	800070e <ASPEP_RXframeProcess+0x146>
 80007ca:	4563      	cmp	r3, ip
 80007cc:	d19f      	bne.n	800070e <ASPEP_RXframeProcess+0x146>
 80007ce:	f894 e06b 	ldrb.w	lr, [r4, #107]	; 0x6b
 80007d2:	f3c2 1202 	ubfx	r2, r2, #4, #3
 80007d6:	4596      	cmp	lr, r2
 80007d8:	d199      	bne.n	800070e <ASPEP_RXframeProcess+0x146>
 80007da:	1c4b      	adds	r3, r1, #1
 80007dc:	1c72      	adds	r2, r6, #1
 80007de:	015b      	lsls	r3, r3, #5
 80007e0:	0152      	lsls	r2, r2, #5
 80007e2:	ea4f 1c8c 	mov.w	ip, ip, lsl #6
 80007e6:	2101      	movs	r1, #1
 80007e8:	81a3      	strh	r3, [r4, #12]
 80007ea:	f8a4 205e 	strh.w	r2, [r4, #94]	; 0x5e
 80007ee:	f8a4 c00e 	strh.w	ip, [r4, #14]
 80007f2:	f884 1064 	strb.w	r1, [r4, #100]	; 0x64
 80007f6:	e76a      	b.n	80006ce <ASPEP_RXframeProcess+0x106>
 80007f8:	08008abc 	.word	0x08008abc
 80007fc:	08008aac 	.word	0x08008aac

08000800 <ASPEP_HWDataReceivedIT>:
 8000800:	b538      	push	{r3, r4, r5, lr}
 8000802:	f890 3065 	ldrb.w	r3, [r0, #101]	; 0x65
 8000806:	4604      	mov	r4, r0
 8000808:	b13b      	cbz	r3, 800081a <ASPEP_HWDataReceivedIT+0x1a>
 800080a:	2b01      	cmp	r3, #1
 800080c:	d104      	bne.n	8000818 <ASPEP_HWDataReceivedIT+0x18>
 800080e:	2200      	movs	r2, #0
 8000810:	f880 3061 	strb.w	r3, [r0, #97]	; 0x61
 8000814:	f880 2065 	strb.w	r2, [r0, #101]	; 0x65
 8000818:	bd38      	pop	{r3, r4, r5, pc}
 800081a:	69c2      	ldr	r2, [r0, #28]
 800081c:	491f      	ldr	r1, [pc, #124]	; (800089c <ASPEP_HWDataReceivedIT+0x9c>)
 800081e:	b2d3      	uxtb	r3, r2
 8000820:	5ccb      	ldrb	r3, [r1, r3]
 8000822:	ea83 2312 	eor.w	r3, r3, r2, lsr #8
 8000826:	b2db      	uxtb	r3, r3
 8000828:	5ccb      	ldrb	r3, [r1, r3]
 800082a:	ea83 4312 	eor.w	r3, r3, r2, lsr #16
 800082e:	b2db      	uxtb	r3, r3
 8000830:	5ccb      	ldrb	r3, [r1, r3]
 8000832:	ea83 6312 	eor.w	r3, r3, r2, lsr #24
 8000836:	5ccb      	ldrb	r3, [r1, r3]
 8000838:	b963      	cbnz	r3, 8000854 <ASPEP_HWDataReceivedIT+0x54>
 800083a:	7f03      	ldrb	r3, [r0, #28]
 800083c:	f003 030f 	and.w	r3, r3, #15
 8000840:	2b06      	cmp	r3, #6
 8000842:	f880 3066 	strb.w	r3, [r0, #102]	; 0x66
 8000846:	d809      	bhi.n	800085c <ASPEP_HWDataReceivedIT+0x5c>
 8000848:	2b04      	cmp	r3, #4
 800084a:	d81e      	bhi.n	800088a <ASPEP_HWDataReceivedIT+0x8a>
 800084c:	2301      	movs	r3, #1
 800084e:	f884 3062 	strb.w	r3, [r4, #98]	; 0x62
 8000852:	bd38      	pop	{r3, r4, r5, pc}
 8000854:	2304      	movs	r3, #4
 8000856:	f880 3062 	strb.w	r3, [r0, #98]	; 0x62
 800085a:	bd38      	pop	{r3, r4, r5, pc}
 800085c:	2b09      	cmp	r3, #9
 800085e:	d1f5      	bne.n	800084c <ASPEP_HWDataReceivedIT+0x4c>
 8000860:	f3c2 120c 	ubfx	r2, r2, #4, #13
 8000864:	f8a0 205c 	strh.w	r2, [r0, #92]	; 0x5c
 8000868:	b17a      	cbz	r2, 800088a <ASPEP_HWDataReceivedIT+0x8a>
 800086a:	f8b0 305e 	ldrh.w	r3, [r0, #94]	; 0x5e
 800086e:	4293      	cmp	r3, r2
 8000870:	d30f      	bcc.n	8000892 <ASPEP_HWDataReceivedIT+0x92>
 8000872:	f890 5067 	ldrb.w	r5, [r0, #103]	; 0x67
 8000876:	6d43      	ldr	r3, [r0, #84]	; 0x54
 8000878:	eb02 0245 	add.w	r2, r2, r5, lsl #1
 800087c:	e9d0 0105 	ldrd	r0, r1, [r0, #20]
 8000880:	4798      	blx	r3
 8000882:	2301      	movs	r3, #1
 8000884:	f884 3065 	strb.w	r3, [r4, #101]	; 0x65
 8000888:	bd38      	pop	{r3, r4, r5, pc}
 800088a:	2301      	movs	r3, #1
 800088c:	f884 3061 	strb.w	r3, [r4, #97]	; 0x61
 8000890:	bd38      	pop	{r3, r4, r5, pc}
 8000892:	2302      	movs	r3, #2
 8000894:	f880 3062 	strb.w	r3, [r0, #98]	; 0x62
 8000898:	bd38      	pop	{r3, r4, r5, pc}
 800089a:	bf00      	nop
 800089c:	08008abc 	.word	0x08008abc

080008a0 <ASPEP_HWDMAReset>:
 80008a0:	4601      	mov	r1, r0
 80008a2:	2300      	movs	r3, #0
 80008a4:	f880 3065 	strb.w	r3, [r0, #101]	; 0x65
 80008a8:	311c      	adds	r1, #28
 80008aa:	6d43      	ldr	r3, [r0, #84]	; 0x54
 80008ac:	6940      	ldr	r0, [r0, #20]
 80008ae:	2204      	movs	r2, #4
 80008b0:	4718      	bx	r3
 80008b2:	bf00      	nop

080008b4 <SystemClock_Config>:
 80008b4:	b5f0      	push	{r4, r5, r6, r7, lr}
 80008b6:	2100      	movs	r1, #0
 80008b8:	b0a7      	sub	sp, #156	; 0x9c
 80008ba:	460c      	mov	r4, r1
 80008bc:	2238      	movs	r2, #56	; 0x38
 80008be:	a806      	add	r0, sp, #24
 80008c0:	f008 f8e0 	bl	8008a84 <memset>
 80008c4:	4621      	mov	r1, r4
 80008c6:	2244      	movs	r2, #68	; 0x44
 80008c8:	a815      	add	r0, sp, #84	; 0x54
 80008ca:	e9cd 4400 	strd	r4, r4, [sp]
 80008ce:	e9cd 4402 	strd	r4, r4, [sp, #8]
 80008d2:	9404      	str	r4, [sp, #16]
 80008d4:	f008 f8d6 	bl	8008a84 <memset>
 80008d8:	4620      	mov	r0, r4
 80008da:	f004 fe3d 	bl	8005558 <HAL_PWREx_ControlVoltageScaling>
 80008de:	2601      	movs	r6, #1
 80008e0:	2302      	movs	r3, #2
 80008e2:	f44f 3780 	mov.w	r7, #65536	; 0x10000
 80008e6:	2403      	movs	r4, #3
 80008e8:	2155      	movs	r1, #85	; 0x55
 80008ea:	2208      	movs	r2, #8
 80008ec:	a806      	add	r0, sp, #24
 80008ee:	e9cd 6706 	strd	r6, r7, [sp, #24]
 80008f2:	e9cd 3312 	strd	r3, r3, [sp, #72]	; 0x48
 80008f6:	e9cd 1210 	strd	r1, r2, [sp, #64]	; 0x40
 80008fa:	930d      	str	r3, [sp, #52]	; 0x34
 80008fc:	930f      	str	r3, [sp, #60]	; 0x3c
 80008fe:	940e      	str	r4, [sp, #56]	; 0x38
 8000900:	f004 feb0 	bl	8005664 <HAL_RCC_OscConfig>
 8000904:	b108      	cbz	r0, 800090a <SystemClock_Config+0x56>
 8000906:	b672      	cpsid	i
 8000908:	e7fe      	b.n	8000908 <SystemClock_Config+0x54>
 800090a:	4603      	mov	r3, r0
 800090c:	240f      	movs	r4, #15
 800090e:	2503      	movs	r5, #3
 8000910:	9304      	str	r3, [sp, #16]
 8000912:	2200      	movs	r2, #0
 8000914:	2300      	movs	r3, #0
 8000916:	4668      	mov	r0, sp
 8000918:	2104      	movs	r1, #4
 800091a:	e9cd 4500 	strd	r4, r5, [sp]
 800091e:	e9cd 2302 	strd	r2, r3, [sp, #8]
 8000922:	f005 f923 	bl	8005b6c <HAL_RCC_ClockConfig>
 8000926:	b108      	cbz	r0, 800092c <SystemClock_Config+0x78>
 8000928:	b672      	cpsid	i
 800092a:	e7fe      	b.n	800092a <SystemClock_Config+0x76>
 800092c:	f44f 4110 	mov.w	r1, #36864	; 0x9000
 8000930:	f04f 7200 	mov.w	r2, #33554432	; 0x2000000
 8000934:	f04f 5380 	mov.w	r3, #268435456	; 0x10000000
 8000938:	a815      	add	r0, sp, #84	; 0x54
 800093a:	9115      	str	r1, [sp, #84]	; 0x54
 800093c:	9221      	str	r2, [sp, #132]	; 0x84
 800093e:	9324      	str	r3, [sp, #144]	; 0x90
 8000940:	f005 fa2c 	bl	8005d9c <HAL_RCCEx_PeriphCLKConfig>
 8000944:	b108      	cbz	r0, 800094a <SystemClock_Config+0x96>
 8000946:	b672      	cpsid	i
 8000948:	e7fe      	b.n	8000948 <SystemClock_Config+0x94>
 800094a:	b027      	add	sp, #156	; 0x9c
 800094c:	bdf0      	pop	{r4, r5, r6, r7, pc}
 800094e:	bf00      	nop

08000950 <main>:
 8000950:	e92d 4ff0 	stmdb	sp!, {r4, r5, r6, r7, r8, r9, sl, fp, lr}
 8000954:	2400      	movs	r4, #0
 8000956:	b0ad      	sub	sp, #180	; 0xb4
 8000958:	f003 fa3e 	bl	8003dd8 <HAL_Init>
 800095c:	f7ff ffaa 	bl	80008b4 <SystemClock_Config>
 8000960:	e9cd 441c 	strd	r4, r4, [sp, #112]	; 0x70
 8000964:	e9cd 441e 	strd	r4, r4, [sp, #120]	; 0x78
 8000968:	4bb5      	ldr	r3, [pc, #724]	; (8000c40 <main+0x2f0>)
 800096a:	9420      	str	r4, [sp, #128]	; 0x80
 800096c:	6cda      	ldr	r2, [r3, #76]	; 0x4c
 800096e:	48b5      	ldr	r0, [pc, #724]	; (8000c44 <main+0x2f4>)
 8000970:	f8df a300 	ldr.w	sl, [pc, #768]	; 8000c74 <main+0x324>
 8000974:	f042 0204 	orr.w	r2, r2, #4
 8000978:	64da      	str	r2, [r3, #76]	; 0x4c
 800097a:	6cda      	ldr	r2, [r3, #76]	; 0x4c
 800097c:	f002 0204 	and.w	r2, r2, #4
 8000980:	9202      	str	r2, [sp, #8]
 8000982:	9a02      	ldr	r2, [sp, #8]
 8000984:	6cda      	ldr	r2, [r3, #76]	; 0x4c
 8000986:	f042 0220 	orr.w	r2, r2, #32
 800098a:	64da      	str	r2, [r3, #76]	; 0x4c
 800098c:	6cda      	ldr	r2, [r3, #76]	; 0x4c
 800098e:	f002 0220 	and.w	r2, r2, #32
 8000992:	9203      	str	r2, [sp, #12]
 8000994:	9a03      	ldr	r2, [sp, #12]
 8000996:	6cda      	ldr	r2, [r3, #76]	; 0x4c
 8000998:	f042 0201 	orr.w	r2, r2, #1
 800099c:	64da      	str	r2, [r3, #76]	; 0x4c
 800099e:	6cda      	ldr	r2, [r3, #76]	; 0x4c
 80009a0:	f002 0201 	and.w	r2, r2, #1
 80009a4:	9204      	str	r2, [sp, #16]
 80009a6:	9a04      	ldr	r2, [sp, #16]
 80009a8:	6cda      	ldr	r2, [r3, #76]	; 0x4c
 80009aa:	f042 0202 	orr.w	r2, r2, #2
 80009ae:	64da      	str	r2, [r3, #76]	; 0x4c
 80009b0:	6cdb      	ldr	r3, [r3, #76]	; 0x4c
 80009b2:	f003 0302 	and.w	r3, r3, #2
 80009b6:	9305      	str	r3, [sp, #20]
 80009b8:	4622      	mov	r2, r4
 80009ba:	2140      	movs	r1, #64	; 0x40
 80009bc:	9b05      	ldr	r3, [sp, #20]
 80009be:	2640      	movs	r6, #64	; 0x40
 80009c0:	f004 fd32 	bl	8005428 <HAL_GPIO_WritePin>
 80009c4:	2701      	movs	r7, #1
 80009c6:	2200      	movs	r2, #0
 80009c8:	2300      	movs	r3, #0
 80009ca:	489e      	ldr	r0, [pc, #632]	; (8000c44 <main+0x2f4>)
 80009cc:	a91c      	add	r1, sp, #112	; 0x70
 80009ce:	e9cd 231e 	strd	r2, r3, [sp, #120]	; 0x78
 80009d2:	e9cd 671c 	strd	r6, r7, [sp, #112]	; 0x70
 80009d6:	f004 fc2d 	bl	8005234 <HAL_GPIO_Init>
 80009da:	4b9b      	ldr	r3, [pc, #620]	; (8000c48 <main+0x2f8>)
 80009dc:	4899      	ldr	r0, [pc, #612]	; (8000c44 <main+0x2f4>)
 80009de:	941e      	str	r4, [sp, #120]	; 0x78
 80009e0:	f44f 6280 	mov.w	r2, #1024	; 0x400
 80009e4:	a91c      	add	r1, sp, #112	; 0x70
 80009e6:	e9cd 231c 	strd	r2, r3, [sp, #112]	; 0x70
 80009ea:	f004 fc23 	bl	8005234 <HAL_GPIO_Init>
 80009ee:	2210      	movs	r2, #16
 80009f0:	2300      	movs	r3, #0
 80009f2:	4896      	ldr	r0, [pc, #600]	; (8000c4c <main+0x2fc>)
 80009f4:	941e      	str	r4, [sp, #120]	; 0x78
 80009f6:	a91c      	add	r1, sp, #112	; 0x70
 80009f8:	e9cd 231c 	strd	r2, r3, [sp, #112]	; 0x70
 80009fc:	f004 fc1a 	bl	8005234 <HAL_GPIO_Init>
 8000a00:	4b91      	ldr	r3, [pc, #580]	; (8000c48 <main+0x2f8>)
 8000a02:	4892      	ldr	r0, [pc, #584]	; (8000c4c <main+0x2fc>)
 8000a04:	941e      	str	r4, [sp, #120]	; 0x78
 8000a06:	f44f 7280 	mov.w	r2, #256	; 0x100
 8000a0a:	a91c      	add	r1, sp, #112	; 0x70
 8000a0c:	e9cd 231c 	strd	r2, r3, [sp, #112]	; 0x70
 8000a10:	f004 fc10 	bl	8005234 <HAL_GPIO_Init>
 8000a14:	4622      	mov	r2, r4
 8000a16:	4621      	mov	r1, r4
 8000a18:	2028      	movs	r0, #40	; 0x28
 8000a1a:	f004 f9bd 	bl	8004d98 <HAL_NVIC_SetPriority>
 8000a1e:	2028      	movs	r0, #40	; 0x28
 8000a20:	f004 f9f2 	bl	8004e08 <HAL_NVIC_EnableIRQ>
 8000a24:	4621      	mov	r1, r4
 8000a26:	223c      	movs	r2, #60	; 0x3c
 8000a28:	a81c      	add	r0, sp, #112	; 0x70
 8000a2a:	e9cd 440e 	strd	r4, r4, [sp, #56]	; 0x38
 8000a2e:	9410      	str	r4, [sp, #64]	; 0x40
 8000a30:	f008 f828 	bl	8008a84 <memset>
 8000a34:	2220      	movs	r2, #32
 8000a36:	4621      	mov	r1, r4
 8000a38:	a814      	add	r0, sp, #80	; 0x50
 8000a3a:	f008 f823 	bl	8008a84 <memset>
 8000a3e:	f44f 4b00 	mov.w	fp, #32768	; 0x8000
 8000a42:	f04f 42a0 	mov.w	r2, #1342177280	; 0x50000000
 8000a46:	2303      	movs	r3, #3
 8000a48:	f04f 0801 	mov.w	r8, #1
 8000a4c:	f04f 0904 	mov.w	r9, #4
 8000a50:	4650      	mov	r0, sl
 8000a52:	e9ca 4401 	strd	r4, r4, [sl, #4]
 8000a56:	e9ca 440b 	strd	r4, r4, [sl, #44]	; 0x2c
 8000a5a:	e9ca 8905 	strd	r8, r9, [sl, #20]
 8000a5e:	f8ca 4010 	str.w	r4, [sl, #16]
 8000a62:	f8aa 401c 	strh.w	r4, [sl, #28]
 8000a66:	f88a 4024 	strb.w	r4, [sl, #36]	; 0x24
 8000a6a:	f88a 4038 	strb.w	r4, [sl, #56]	; 0x38
 8000a6e:	f8ca 403c 	str.w	r4, [sl, #60]	; 0x3c
 8000a72:	f88a 4040 	strb.w	r4, [sl, #64]	; 0x40
 8000a76:	f8ca 2000 	str.w	r2, [sl]
 8000a7a:	f8ca 3020 	str.w	r3, [sl, #32]
 8000a7e:	f8ca b00c 	str.w	fp, [sl, #12]
 8000a82:	f003 f9dd 	bl	8003e40 <HAL_ADC_Init>
 8000a86:	b108      	cbz	r0, 8000a8c <main+0x13c>
 8000a88:	b672      	cpsid	i
 8000a8a:	e7fe      	b.n	8000a8a <main+0x13a>
 8000a8c:	4603      	mov	r3, r0
 8000a8e:	a90e      	add	r1, sp, #56	; 0x38
 8000a90:	4650      	mov	r0, sl
 8000a92:	930e      	str	r3, [sp, #56]	; 0x38
 8000a94:	f004 f848 	bl	8004b28 <HAL_ADCEx_MultiModeConfigChannel>
 8000a98:	4603      	mov	r3, r0
 8000a9a:	b108      	cbz	r0, 8000aa0 <main+0x150>
 8000a9c:	b672      	cpsid	i
 8000a9e:	e7fe      	b.n	8000a9e <main+0x14e>
 8000aa0:	4a6b      	ldr	r2, [pc, #428]	; (8000c50 <main+0x300>)
 8000aa2:	f8ad 3094 	strh.w	r3, [sp, #148]	; 0x94
 8000aa6:	f88d 3096 	strb.w	r3, [sp, #150]	; 0x96
 8000aaa:	f88d 30a0 	strb.w	r3, [sp, #160]	; 0xa0
 8000aae:	2309      	movs	r3, #9
 8000ab0:	e9cd 231c 	strd	r2, r3, [sp, #112]	; 0x70
 8000ab4:	2201      	movs	r2, #1
 8000ab6:	237f      	movs	r3, #127	; 0x7f
 8000ab8:	e9cd 231e 	strd	r2, r3, [sp, #120]	; 0x78
 8000abc:	2404      	movs	r4, #4
 8000abe:	2500      	movs	r5, #0
 8000ac0:	2702      	movs	r7, #2
 8000ac2:	2284      	movs	r2, #132	; 0x84
 8000ac4:	2380      	movs	r3, #128	; 0x80
 8000ac6:	a91c      	add	r1, sp, #112	; 0x70
 8000ac8:	4650      	mov	r0, sl
 8000aca:	e9cd 4520 	strd	r4, r5, [sp, #128]	; 0x80
 8000ace:	e9cd 2326 	strd	r2, r3, [sp, #152]	; 0x98
 8000ad2:	9724      	str	r7, [sp, #144]	; 0x90
 8000ad4:	f003 fd24 	bl	8004520 <HAL_ADCEx_InjectedConfigChannel>
 8000ad8:	b108      	cbz	r0, 8000ade <main+0x18e>
 8000ada:	b672      	cpsid	i
 8000adc:	e7fe      	b.n	8000adc <main+0x18c>
 8000ade:	a352      	add	r3, pc, #328	; (adr r3, 8000c28 <main+0x2d8>)
 8000ae0:	e9d3 2300 	ldrd	r2, r3, [r3]
 8000ae4:	a91c      	add	r1, sp, #112	; 0x70
 8000ae6:	4650      	mov	r0, sl
 8000ae8:	e9cd 231c 	strd	r2, r3, [sp, #112]	; 0x70
 8000aec:	f003 fd18 	bl	8004520 <HAL_ADCEx_InjectedConfigChannel>
 8000af0:	b108      	cbz	r0, 8000af6 <main+0x1a6>
 8000af2:	b672      	cpsid	i
 8000af4:	e7fe      	b.n	8000af4 <main+0x1a4>
 8000af6:	4a57      	ldr	r2, [pc, #348]	; (8000c54 <main+0x304>)
 8000af8:	2306      	movs	r3, #6
 8000afa:	e9cd 2314 	strd	r2, r3, [sp, #80]	; 0x50
 8000afe:	a914      	add	r1, sp, #80	; 0x50
 8000b00:	2204      	movs	r2, #4
 8000b02:	237f      	movs	r3, #127	; 0x7f
 8000b04:	4650      	mov	r0, sl
 8000b06:	e9cd 4518 	strd	r4, r5, [sp, #96]	; 0x60
 8000b0a:	e9cd 2316 	strd	r2, r3, [sp, #88]	; 0x58
 8000b0e:	f003 fa9d 	bl	800404c <HAL_ADC_ConfigChannel>
 8000b12:	b108      	cbz	r0, 8000b18 <main+0x1c8>
 8000b14:	b672      	cpsid	i
 8000b16:	e7fe      	b.n	8000b16 <main+0x1c6>
 8000b18:	a345      	add	r3, pc, #276	; (adr r3, 8000c30 <main+0x2e0>)
 8000b1a:	e9d3 2300 	ldrd	r2, r3, [r3]
 8000b1e:	a914      	add	r1, sp, #80	; 0x50
 8000b20:	4650      	mov	r0, sl
 8000b22:	e9cd 2314 	strd	r2, r3, [sp, #80]	; 0x50
 8000b26:	f003 fa91 	bl	800404c <HAL_ADC_ConfigChannel>
 8000b2a:	b108      	cbz	r0, 8000b30 <main+0x1e0>
 8000b2c:	b672      	cpsid	i
 8000b2e:	e7fe      	b.n	8000b2e <main+0x1de>
 8000b30:	a341      	add	r3, pc, #260	; (adr r3, 8000c38 <main+0x2e8>)
 8000b32:	e9d3 2300 	ldrd	r2, r3, [r3]
 8000b36:	a914      	add	r1, sp, #80	; 0x50
 8000b38:	4650      	mov	r0, sl
 8000b3a:	e9cd 2314 	strd	r2, r3, [sp, #80]	; 0x50
 8000b3e:	f003 fa85 	bl	800404c <HAL_ADC_ConfigChannel>
 8000b42:	4601      	mov	r1, r0
 8000b44:	b108      	cbz	r0, 8000b4a <main+0x1fa>
 8000b46:	b672      	cpsid	i
 8000b48:	e7fe      	b.n	8000b48 <main+0x1f8>
 8000b4a:	4e43      	ldr	r6, [pc, #268]	; (8000c58 <main+0x308>)
 8000b4c:	9001      	str	r0, [sp, #4]
 8000b4e:	223c      	movs	r2, #60	; 0x3c
 8000b50:	a81c      	add	r0, sp, #112	; 0x70
 8000b52:	f007 ff97 	bl	8008a84 <memset>
 8000b56:	9901      	ldr	r1, [sp, #4]
 8000b58:	4a40      	ldr	r2, [pc, #256]	; (8000c5c <main+0x30c>)
 8000b5a:	83b1      	strh	r1, [r6, #28]
 8000b5c:	4630      	mov	r0, r6
 8000b5e:	6032      	str	r2, [r6, #0]
 8000b60:	e9c6 1b02 	strd	r1, fp, [r6, #8]
 8000b64:	e9c6 1804 	strd	r1, r8, [r6, #16]
 8000b68:	6071      	str	r1, [r6, #4]
 8000b6a:	f8c6 9018 	str.w	r9, [r6, #24]
 8000b6e:	f8c6 8020 	str.w	r8, [r6, #32]
 8000b72:	f886 1024 	strb.w	r1, [r6, #36]	; 0x24
 8000b76:	f886 1038 	strb.w	r1, [r6, #56]	; 0x38
 8000b7a:	63f1      	str	r1, [r6, #60]	; 0x3c
 8000b7c:	f886 1040 	strb.w	r1, [r6, #64]	; 0x40
 8000b80:	f003 f95e 	bl	8003e40 <HAL_ADC_Init>
 8000b84:	4602      	mov	r2, r0
 8000b86:	b108      	cbz	r0, 8000b8c <main+0x23c>
 8000b88:	b672      	cpsid	i
 8000b8a:	e7fe      	b.n	8000b8a <main+0x23a>
 8000b8c:	f8df 80c0 	ldr.w	r8, [pc, #192]	; 8000c50 <main+0x300>
 8000b90:	9724      	str	r7, [sp, #144]	; 0x90
 8000b92:	f04f 0909 	mov.w	r9, #9
 8000b96:	e9cd 891c 	strd	r8, r9, [sp, #112]	; 0x70
 8000b9a:	e9cd 4520 	strd	r4, r5, [sp, #128]	; 0x80
 8000b9e:	f04f 0801 	mov.w	r8, #1
 8000ba2:	f04f 097f 	mov.w	r9, #127	; 0x7f
 8000ba6:	2384      	movs	r3, #132	; 0x84
 8000ba8:	2480      	movs	r4, #128	; 0x80
 8000baa:	a91c      	add	r1, sp, #112	; 0x70
 8000bac:	4630      	mov	r0, r6
 8000bae:	e9cd 891e 	strd	r8, r9, [sp, #120]	; 0x78
 8000bb2:	e9cd 3426 	strd	r3, r4, [sp, #152]	; 0x98
 8000bb6:	f8ad 2094 	strh.w	r2, [sp, #148]	; 0x94
 8000bba:	f88d 2096 	strb.w	r2, [sp, #150]	; 0x96
 8000bbe:	f88d 20a0 	strb.w	r2, [sp, #160]	; 0xa0
 8000bc2:	f003 fcad 	bl	8004520 <HAL_ADCEx_InjectedConfigChannel>
 8000bc6:	b108      	cbz	r0, 8000bcc <main+0x27c>
 8000bc8:	b672      	cpsid	i
 8000bca:	e7fe      	b.n	8000bca <main+0x27a>
 8000bcc:	4a24      	ldr	r2, [pc, #144]	; (8000c60 <main+0x310>)
 8000bce:	f240 130f 	movw	r3, #271	; 0x10f
 8000bd2:	4630      	mov	r0, r6
 8000bd4:	a91c      	add	r1, sp, #112	; 0x70
 8000bd6:	e9cd 231c 	strd	r2, r3, [sp, #112]	; 0x70
 8000bda:	f003 fca1 	bl	8004520 <HAL_ADCEx_InjectedConfigChannel>
 8000bde:	b108      	cbz	r0, 8000be4 <main+0x294>
 8000be0:	b672      	cpsid	i
 8000be2:	e7fe      	b.n	8000be2 <main+0x292>
 8000be4:	481f      	ldr	r0, [pc, #124]	; (8000c64 <main+0x314>)
 8000be6:	4b20      	ldr	r3, [pc, #128]	; (8000c68 <main+0x318>)
 8000be8:	6003      	str	r3, [r0, #0]
 8000bea:	2440      	movs	r4, #64	; 0x40
 8000bec:	2300      	movs	r3, #0
 8000bee:	e9c0 3303 	strd	r3, r3, [r0, #12]
 8000bf2:	e9c0 3305 	strd	r3, r3, [r0, #20]
 8000bf6:	6043      	str	r3, [r0, #4]
 8000bf8:	6084      	str	r4, [r0, #8]
 8000bfa:	f003 fffb 	bl	8004bf4 <HAL_COMP_Init>
 8000bfe:	b108      	cbz	r0, 8000c04 <main+0x2b4>
 8000c00:	b672      	cpsid	i
 8000c02:	e7fe      	b.n	8000c02 <main+0x2b2>
 8000c04:	4b19      	ldr	r3, [pc, #100]	; (8000c6c <main+0x31c>)
 8000c06:	4a1a      	ldr	r2, [pc, #104]	; (8000c70 <main+0x320>)
 8000c08:	601a      	str	r2, [r3, #0]
 8000c0a:	e9c3 0401 	strd	r0, r4, [r3, #4]
 8000c0e:	e9c3 0003 	strd	r0, r0, [r3, #12]
 8000c12:	e9c3 0005 	strd	r0, r0, [r3, #20]
 8000c16:	4618      	mov	r0, r3
 8000c18:	f003 ffec 	bl	8004bf4 <HAL_COMP_Init>
 8000c1c:	b360      	cbz	r0, 8000c78 <main+0x328>
 8000c1e:	b672      	cpsid	i
 8000c20:	e7fe      	b.n	8000c20 <main+0x2d0>
 8000c22:	bf00      	nop
 8000c24:	f3af 8000 	nop.w
 8000c28:	32601000 	.word	0x32601000
 8000c2c:	0000010f 	.word	0x0000010f
 8000c30:	14f00020 	.word	0x14f00020
 8000c34:	0000000c 	.word	0x0000000c
 8000c38:	2e300800 	.word	0x2e300800
 8000c3c:	00000012 	.word	0x00000012
 8000c40:	40021000 	.word	0x40021000
 8000c44:	48000800 	.word	0x48000800
 8000c48:	10110000 	.word	0x10110000
 8000c4c:	48000400 	.word	0x48000400
 8000c50:	0c900008 	.word	0x0c900008
 8000c54:	04300002 	.word	0x04300002
 8000c58:	2000070c 	.word	0x2000070c
 8000c5c:	50000100 	.word	0x50000100
 8000c60:	cb8c0000 	.word	0xcb8c0000
 8000c64:	200007b4 	.word	0x200007b4
 8000c68:	40010200 	.word	0x40010200
 8000c6c:	2000097c 	.word	0x2000097c
 8000c70:	40010204 	.word	0x40010204
 8000c74:	20000838 	.word	0x20000838
 8000c78:	4ba5      	ldr	r3, [pc, #660]	; (8000f10 <main+0x5c0>)
 8000c7a:	4aa6      	ldr	r2, [pc, #664]	; (8000f14 <main+0x5c4>)
 8000c7c:	601a      	str	r2, [r3, #0]
 8000c7e:	e9c3 0401 	strd	r0, r4, [r3, #4]
 8000c82:	e9c3 0003 	strd	r0, r0, [r3, #12]
 8000c86:	e9c3 0005 	strd	r0, r0, [r3, #20]
 8000c8a:	4618      	mov	r0, r3
 8000c8c:	f003 ffb2 	bl	8004bf4 <HAL_COMP_Init>
 8000c90:	b108      	cbz	r0, 8000c96 <main+0x346>
 8000c92:	b672      	cpsid	i
 8000c94:	e7fe      	b.n	8000c94 <main+0x344>
 8000c96:	48a0      	ldr	r0, [pc, #640]	; (8000f18 <main+0x5c8>)
 8000c98:	4ba0      	ldr	r3, [pc, #640]	; (8000f1c <main+0x5cc>)
 8000c9a:	6003      	str	r3, [r0, #0]
 8000c9c:	f004 f84e 	bl	8004d3c <HAL_CORDIC_Init>
 8000ca0:	4601      	mov	r1, r0
 8000ca2:	b108      	cbz	r0, 8000ca8 <main+0x358>
 8000ca4:	b672      	cpsid	i
 8000ca6:	e7fe      	b.n	8000ca6 <main+0x356>
 8000ca8:	4d9d      	ldr	r5, [pc, #628]	; (8000f20 <main+0x5d0>)
 8000caa:	2230      	movs	r2, #48	; 0x30
 8000cac:	a81c      	add	r0, sp, #112	; 0x70
 8000cae:	f007 fee9 	bl	8008a84 <memset>
 8000cb2:	4b9c      	ldr	r3, [pc, #624]	; (8000f24 <main+0x5d4>)
 8000cb4:	602b      	str	r3, [r5, #0]
 8000cb6:	4628      	mov	r0, r5
 8000cb8:	f004 f8d4 	bl	8004e64 <HAL_DAC_Init>
 8000cbc:	b108      	cbz	r0, 8000cc2 <main+0x372>
 8000cbe:	b672      	cpsid	i
 8000cc0:	e7fe      	b.n	8000cc0 <main+0x370>
 8000cc2:	2600      	movs	r6, #0
 8000cc4:	2700      	movs	r7, #0
 8000cc6:	e9cd 671e 	strd	r6, r7, [sp, #120]	; 0x78
 8000cca:	2600      	movs	r6, #0
 8000ccc:	2702      	movs	r7, #2
 8000cce:	e9cd 6720 	strd	r6, r7, [sp, #128]	; 0x80
 8000cd2:	4602      	mov	r2, r0
 8000cd4:	f04f 0802 	mov.w	r8, #2
 8000cd8:	f8ad 0074 	strh.w	r0, [sp, #116]	; 0x74
 8000cdc:	2602      	movs	r6, #2
 8000cde:	2700      	movs	r7, #0
 8000ce0:	a91c      	add	r1, sp, #112	; 0x70
 8000ce2:	4628      	mov	r0, r5
 8000ce4:	e9cd 6722 	strd	r6, r7, [sp, #136]	; 0x88
 8000ce8:	f8cd 8070 	str.w	r8, [sp, #112]	; 0x70
 8000cec:	f004 f8d0 	bl	8004e90 <HAL_DAC_ConfigChannel>
 8000cf0:	b108      	cbz	r0, 8000cf6 <main+0x3a6>
 8000cf2:	b672      	cpsid	i
 8000cf4:	e7fe      	b.n	8000cf4 <main+0x3a4>
 8000cf6:	2210      	movs	r2, #16
 8000cf8:	4628      	mov	r0, r5
 8000cfa:	a91c      	add	r1, sp, #112	; 0x70
 8000cfc:	f8cd 8088 	str.w	r8, [sp, #136]	; 0x88
 8000d00:	f004 f8c6 	bl	8004e90 <HAL_DAC_ConfigChannel>
 8000d04:	4602      	mov	r2, r0
 8000d06:	b108      	cbz	r0, 8000d0c <main+0x3bc>
 8000d08:	b672      	cpsid	i
 8000d0a:	e7fe      	b.n	8000d0a <main+0x3ba>
 8000d0c:	4886      	ldr	r0, [pc, #536]	; (8000f28 <main+0x5d8>)
 8000d0e:	4987      	ldr	r1, [pc, #540]	; (8000f2c <main+0x5dc>)
 8000d10:	6042      	str	r2, [r0, #4]
 8000d12:	f44f 3500 	mov.w	r5, #131072	; 0x20000
 8000d16:	f44f 4640 	mov.w	r6, #49152	; 0xc000
 8000d1a:	e9c0 5609 	strd	r5, r6, [r0, #36]	; 0x24
 8000d1e:	6084      	str	r4, [r0, #8]
 8000d20:	6102      	str	r2, [r0, #16]
 8000d22:	7502      	strb	r2, [r0, #20]
 8000d24:	6182      	str	r2, [r0, #24]
 8000d26:	62c2      	str	r2, [r0, #44]	; 0x2c
 8000d28:	6001      	str	r1, [r0, #0]
 8000d2a:	f004 fb8f 	bl	800544c <HAL_OPAMP_Init>
 8000d2e:	b108      	cbz	r0, 8000d34 <main+0x3e4>
 8000d30:	b672      	cpsid	i
 8000d32:	e7fe      	b.n	8000d32 <main+0x3e2>
 8000d34:	4b7e      	ldr	r3, [pc, #504]	; (8000f30 <main+0x5e0>)
 8000d36:	4a7f      	ldr	r2, [pc, #508]	; (8000f34 <main+0x5e4>)
 8000d38:	6118      	str	r0, [r3, #16]
 8000d3a:	e9c3 0401 	strd	r0, r4, [r3, #4]
 8000d3e:	7518      	strb	r0, [r3, #20]
 8000d40:	6198      	str	r0, [r3, #24]
 8000d42:	62d8      	str	r0, [r3, #44]	; 0x2c
 8000d44:	4618      	mov	r0, r3
 8000d46:	601a      	str	r2, [r3, #0]
 8000d48:	e9c3 5609 	strd	r5, r6, [r3, #36]	; 0x24
 8000d4c:	f004 fb7e 	bl	800544c <HAL_OPAMP_Init>
 8000d50:	4602      	mov	r2, r0
 8000d52:	b108      	cbz	r0, 8000d58 <main+0x408>
 8000d54:	b672      	cpsid	i
 8000d56:	e7fe      	b.n	8000d56 <main+0x406>
 8000d58:	4877      	ldr	r0, [pc, #476]	; (8000f38 <main+0x5e8>)
 8000d5a:	4f78      	ldr	r7, [pc, #480]	; (8000f3c <main+0x5ec>)
 8000d5c:	6102      	str	r2, [r0, #16]
 8000d5e:	2101      	movs	r1, #1
 8000d60:	e9c0 2401 	strd	r2, r4, [r0, #4]
 8000d64:	e9c0 5609 	strd	r5, r6, [r0, #36]	; 0x24
 8000d68:	6182      	str	r2, [r0, #24]
 8000d6a:	62c2      	str	r2, [r0, #44]	; 0x2c
 8000d6c:	6007      	str	r7, [r0, #0]
 8000d6e:	7501      	strb	r1, [r0, #20]
 8000d70:	f004 fb6c 	bl	800544c <HAL_OPAMP_Init>
 8000d74:	b108      	cbz	r0, 8000d7a <main+0x42a>
 8000d76:	b672      	cpsid	i
 8000d78:	e7fe      	b.n	8000d78 <main+0x428>
 8000d7a:	2400      	movs	r4, #0
 8000d7c:	4d70      	ldr	r5, [pc, #448]	; (8000f40 <main+0x5f0>)
 8000d7e:	940e      	str	r4, [sp, #56]	; 0x38
 8000d80:	4621      	mov	r1, r4
 8000d82:	2234      	movs	r2, #52	; 0x34
 8000d84:	a81c      	add	r0, sp, #112	; 0x70
 8000d86:	e9cd 440f 	strd	r4, r4, [sp, #60]	; 0x3c
 8000d8a:	e9cd 4411 	strd	r4, r4, [sp, #68]	; 0x44
 8000d8e:	e9cd 4414 	strd	r4, r4, [sp, #80]	; 0x50
 8000d92:	e9cd 4416 	strd	r4, r4, [sp, #88]	; 0x58
 8000d96:	e9cd 4418 	strd	r4, r4, [sp, #96]	; 0x60
 8000d9a:	e9cd 4407 	strd	r4, r4, [sp, #28]
 8000d9e:	e9cd 440b 	strd	r4, r4, [sp, #44]	; 0x2c
 8000da2:	9406      	str	r4, [sp, #24]
 8000da4:	940a      	str	r4, [sp, #40]	; 0x28
 8000da6:	941a      	str	r4, [sp, #104]	; 0x68
 8000da8:	f007 fe6c 	bl	8008a84 <memset>
 8000dac:	4b65      	ldr	r3, [pc, #404]	; (8000f44 <main+0x5f4>)
 8000dae:	602b      	str	r3, [r5, #0]
 8000db0:	2020      	movs	r0, #32
 8000db2:	f640 3111 	movw	r1, #2833	; 0xb11
 8000db6:	f44f 7280 	mov.w	r2, #256	; 0x100
 8000dba:	2301      	movs	r3, #1
 8000dbc:	60a8      	str	r0, [r5, #8]
 8000dbe:	4628      	mov	r0, r5
 8000dc0:	e9c5 1203 	strd	r1, r2, [r5, #12]
 8000dc4:	606c      	str	r4, [r5, #4]
 8000dc6:	61ac      	str	r4, [r5, #24]
 8000dc8:	616b      	str	r3, [r5, #20]
 8000dca:	f005 f9f1 	bl	80061b0 <HAL_TIM_Base_Init>
 8000dce:	b108      	cbz	r0, 8000dd4 <main+0x484>
 8000dd0:	b672      	cpsid	i
 8000dd2:	e7fe      	b.n	8000dd2 <main+0x482>
 8000dd4:	4628      	mov	r0, r5
 8000dd6:	f005 fa71 	bl	80062bc <HAL_TIM_PWM_Init>
 8000dda:	b108      	cbz	r0, 8000de0 <main+0x490>
 8000ddc:	b672      	cpsid	i
 8000dde:	e7fe      	b.n	8000dde <main+0x48e>
 8000de0:	2206      	movs	r2, #6
 8000de2:	2310      	movs	r3, #16
 8000de4:	a90e      	add	r1, sp, #56	; 0x38
 8000de6:	4628      	mov	r0, r5
 8000de8:	e9cd 230e 	strd	r2, r3, [sp, #56]	; 0x38
 8000dec:	f005 fb9c 	bl	8006528 <HAL_TIM_SlaveConfigSynchro>
 8000df0:	b108      	cbz	r0, 8000df6 <main+0x4a6>
 8000df2:	b672      	cpsid	i
 8000df4:	e7fe      	b.n	8000df4 <main+0x4a4>
 8000df6:	2270      	movs	r2, #112	; 0x70
 8000df8:	2300      	movs	r3, #0
 8000dfa:	9008      	str	r0, [sp, #32]
 8000dfc:	a906      	add	r1, sp, #24
 8000dfe:	4628      	mov	r0, r5
 8000e00:	e9cd 2306 	strd	r2, r3, [sp, #24]
 8000e04:	f005 fd4c 	bl	80068a0 <HAL_TIMEx_MasterConfigSynchronization>
 8000e08:	b108      	cbz	r0, 8000e0e <main+0x4be>
 8000e0a:	b672      	cpsid	i
 8000e0c:	e7fe      	b.n	8000e0c <main+0x4bc>
 8000e0e:	2602      	movs	r6, #2
 8000e10:	2701      	movs	r7, #1
 8000e12:	900c      	str	r0, [sp, #48]	; 0x30
 8000e14:	aa0a      	add	r2, sp, #40	; 0x28
 8000e16:	2102      	movs	r1, #2
 8000e18:	4628      	mov	r0, r5
 8000e1a:	e9cd 670a 	strd	r6, r7, [sp, #40]	; 0x28
 8000e1e:	f005 fdd5 	bl	80069cc <HAL_TIMEx_ConfigBreakInput>
 8000e22:	b108      	cbz	r0, 8000e28 <main+0x4d8>
 8000e24:	b672      	cpsid	i
 8000e26:	e7fe      	b.n	8000e26 <main+0x4d6>
 8000e28:	2404      	movs	r4, #4
 8000e2a:	aa0a      	add	r2, sp, #40	; 0x28
 8000e2c:	2102      	movs	r1, #2
 8000e2e:	4628      	mov	r0, r5
 8000e30:	940a      	str	r4, [sp, #40]	; 0x28
 8000e32:	f005 fdcb 	bl	80069cc <HAL_TIMEx_ConfigBreakInput>
 8000e36:	b108      	cbz	r0, 8000e3c <main+0x4ec>
 8000e38:	b672      	cpsid	i
 8000e3a:	e7fe      	b.n	8000e3a <main+0x4ea>
 8000e3c:	2310      	movs	r3, #16
 8000e3e:	aa0a      	add	r2, sp, #40	; 0x28
 8000e40:	2102      	movs	r1, #2
 8000e42:	4628      	mov	r0, r5
 8000e44:	930a      	str	r3, [sp, #40]	; 0x28
 8000e46:	f005 fdc1 	bl	80069cc <HAL_TIMEx_ConfigBreakInput>
 8000e4a:	b108      	cbz	r0, 8000e50 <main+0x500>
 8000e4c:	b672      	cpsid	i
 8000e4e:	e7fe      	b.n	8000e4e <main+0x4fe>
 8000e50:	2660      	movs	r6, #96	; 0x60
 8000e52:	2700      	movs	r7, #0
 8000e54:	e9cd 6714 	strd	r6, r7, [sp, #80]	; 0x50
 8000e58:	4602      	mov	r2, r0
 8000e5a:	901a      	str	r0, [sp, #104]	; 0x68
 8000e5c:	2600      	movs	r6, #0
 8000e5e:	2700      	movs	r7, #0
 8000e60:	a914      	add	r1, sp, #80	; 0x50
 8000e62:	4628      	mov	r0, r5
 8000e64:	e9cd 6716 	strd	r6, r7, [sp, #88]	; 0x58
 8000e68:	e9cd 6718 	strd	r6, r7, [sp, #96]	; 0x60
 8000e6c:	f005 fc1e 	bl	80066ac <HAL_TIM_PWM_ConfigChannel>
 8000e70:	4603      	mov	r3, r0
 8000e72:	b108      	cbz	r0, 8000e78 <main+0x528>
 8000e74:	b672      	cpsid	i
 8000e76:	e7fe      	b.n	8000e76 <main+0x526>
 8000e78:	4622      	mov	r2, r4
 8000e7a:	a914      	add	r1, sp, #80	; 0x50
 8000e7c:	4628      	mov	r0, r5
 8000e7e:	9315      	str	r3, [sp, #84]	; 0x54
 8000e80:	f005 fc14 	bl	80066ac <HAL_TIM_PWM_ConfigChannel>
 8000e84:	4603      	mov	r3, r0
 8000e86:	b108      	cbz	r0, 8000e8c <main+0x53c>
 8000e88:	b672      	cpsid	i
 8000e8a:	e7fe      	b.n	8000e8a <main+0x53a>
 8000e8c:	4628      	mov	r0, r5
 8000e8e:	2208      	movs	r2, #8
 8000e90:	a914      	add	r1, sp, #80	; 0x50
 8000e92:	9315      	str	r3, [sp, #84]	; 0x54
 8000e94:	f005 fc0a 	bl	80066ac <HAL_TIM_PWM_ConfigChannel>
 8000e98:	b108      	cbz	r0, 8000e9e <main+0x54e>
 8000e9a:	b672      	cpsid	i
 8000e9c:	e7fe      	b.n	8000e9c <main+0x54c>
 8000e9e:	2070      	movs	r0, #112	; 0x70
 8000ea0:	2100      	movs	r1, #0
 8000ea2:	e9cd 0114 	strd	r0, r1, [sp, #80]	; 0x50
 8000ea6:	2300      	movs	r3, #0
 8000ea8:	4825      	ldr	r0, [pc, #148]	; (8000f40 <main+0x5f0>)
 8000eaa:	9317      	str	r3, [sp, #92]	; 0x5c
 8000eac:	220c      	movs	r2, #12
 8000eae:	a914      	add	r1, sp, #80	; 0x50
 8000eb0:	f005 fbfc 	bl	80066ac <HAL_TIM_PWM_ConfigChannel>
 8000eb4:	4603      	mov	r3, r0
 8000eb6:	b108      	cbz	r0, 8000ebc <main+0x56c>
 8000eb8:	b672      	cpsid	i
 8000eba:	e7fe      	b.n	8000eba <main+0x56a>
 8000ebc:	f44f 7480 	mov.w	r4, #256	; 0x100
 8000ec0:	2544      	movs	r5, #68	; 0x44
 8000ec2:	9328      	str	r3, [sp, #160]	; 0xa0
 8000ec4:	2200      	movs	r2, #0
 8000ec6:	f44f 5300 	mov.w	r3, #8192	; 0x2000
 8000eca:	e9cd 451e 	strd	r4, r5, [sp, #120]	; 0x78
 8000ece:	e9cd 2320 	strd	r2, r3, [sp, #128]	; 0x80
 8000ed2:	f44f 6780 	mov.w	r7, #1024	; 0x400
 8000ed6:	f04f 7280 	mov.w	r2, #16777216	; 0x1000000
 8000eda:	f04f 7300 	mov.w	r3, #33554432	; 0x2000000
 8000ede:	4818      	ldr	r0, [pc, #96]	; (8000f40 <main+0x5f0>)
 8000ee0:	f44f 6600 	mov.w	r6, #2048	; 0x800
 8000ee4:	a91c      	add	r1, sp, #112	; 0x70
 8000ee6:	2400      	movs	r4, #0
 8000ee8:	2500      	movs	r5, #0
 8000eea:	f04f 0803 	mov.w	r8, #3
 8000eee:	f04f 0900 	mov.w	r9, #0
 8000ef2:	e9cd 671c 	strd	r6, r7, [sp, #112]	; 0x70
 8000ef6:	e9cd 4522 	strd	r4, r5, [sp, #136]	; 0x88
 8000efa:	e9cd 2324 	strd	r2, r3, [sp, #144]	; 0x90
 8000efe:	e9cd 8926 	strd	r8, r9, [sp, #152]	; 0x98
 8000f02:	f005 fd15 	bl	8006930 <HAL_TIMEx_ConfigBreakDeadTime>
 8000f06:	4607      	mov	r7, r0
 8000f08:	b1f0      	cbz	r0, 8000f48 <main+0x5f8>
 8000f0a:	b672      	cpsid	i
 8000f0c:	e7fe      	b.n	8000f0c <main+0x5bc>
 8000f0e:	bf00      	nop
 8000f10:	20000814 	.word	0x20000814
 8000f14:	4001020c 	.word	0x4001020c
 8000f18:	200008a4 	.word	0x200008a4
 8000f1c:	40020c00 	.word	0x40020c00
 8000f20:	200006ac 	.word	0x200006ac
 8000f24:	50001000 	.word	0x50001000
 8000f28:	200007d8 	.word	0x200007d8
 8000f2c:	40010300 	.word	0x40010300
 8000f30:	20000670 	.word	0x20000670
 8000f34:	40010304 	.word	0x40010304
 8000f38:	20000778 	.word	0x20000778
 8000f3c:	40010308 	.word	0x40010308
 8000f40:	20000930 	.word	0x20000930
 8000f44:	40012c00 	.word	0x40012c00
 8000f48:	4e6c      	ldr	r6, [pc, #432]	; (80010fc <main+0x7ac>)
 8000f4a:	486d      	ldr	r0, [pc, #436]	; (8001100 <main+0x7b0>)
 8000f4c:	f002 fd4c 	bl	80039e8 <HAL_TIM_MspPostInit>
 8000f50:	f640 71ff 	movw	r1, #4095	; 0xfff
 8000f54:	e9cd 891c 	strd	r8, r9, [sp, #112]	; 0x70
 8000f58:	220c      	movs	r2, #12
 8000f5a:	4b6a      	ldr	r3, [pc, #424]	; (8001104 <main+0x7b4>)
 8000f5c:	60f1      	str	r1, [r6, #12]
 8000f5e:	2401      	movs	r4, #1
 8000f60:	2500      	movs	r5, #0
 8000f62:	4630      	mov	r0, r6
 8000f64:	f04f 080c 	mov.w	r8, #12
 8000f68:	f04f 0900 	mov.w	r9, #0
 8000f6c:	a91c      	add	r1, sp, #112	; 0x70
 8000f6e:	9224      	str	r2, [sp, #144]	; 0x90
 8000f70:	e9cd 7714 	strd	r7, r7, [sp, #80]	; 0x50
 8000f74:	e9c6 7701 	strd	r7, r7, [r6, #4]
 8000f78:	e9cd 451e 	strd	r4, r5, [sp, #120]	; 0x78
 8000f7c:	e9cd 4522 	strd	r4, r5, [sp, #136]	; 0x88
 8000f80:	e9cd 8920 	strd	r8, r9, [sp, #128]	; 0x80
 8000f84:	9716      	str	r7, [sp, #88]	; 0x58
 8000f86:	6137      	str	r7, [r6, #16]
 8000f88:	61b7      	str	r7, [r6, #24]
 8000f8a:	6033      	str	r3, [r6, #0]
 8000f8c:	f005 fa1a 	bl	80063c4 <HAL_TIM_Encoder_Init>
 8000f90:	4602      	mov	r2, r0
 8000f92:	b108      	cbz	r0, 8000f98 <main+0x648>
 8000f94:	b672      	cpsid	i
 8000f96:	e7fe      	b.n	8000f96 <main+0x646>
 8000f98:	4630      	mov	r0, r6
 8000f9a:	a914      	add	r1, sp, #80	; 0x50
 8000f9c:	9214      	str	r2, [sp, #80]	; 0x50
 8000f9e:	9216      	str	r2, [sp, #88]	; 0x58
 8000fa0:	f005 fc7e 	bl	80068a0 <HAL_TIMEx_MasterConfigSynchronization>
 8000fa4:	4680      	mov	r8, r0
 8000fa6:	b108      	cbz	r0, 8000fac <main+0x65c>
 8000fa8:	b672      	cpsid	i
 8000faa:	e7fe      	b.n	8000faa <main+0x65a>
 8000fac:	f000 ff6c 	bl	8001e88 <MX_MotorControl_Init>
 8000fb0:	4855      	ldr	r0, [pc, #340]	; (8001108 <main+0x7b8>)
 8000fb2:	4a56      	ldr	r2, [pc, #344]	; (800110c <main+0x7bc>)
 8000fb4:	f8c0 8004 	str.w	r8, [r0, #4]
 8000fb8:	f04f 0901 	mov.w	r9, #1
 8000fbc:	e9c0 8802 	strd	r8, r8, [r0, #8]
 8000fc0:	e9c0 880d 	strd	r8, r8, [r0, #52]	; 0x34
 8000fc4:	f8a0 8010 	strh.w	r8, [r0, #16]
 8000fc8:	f880 8012 	strb.w	r8, [r0, #18]
 8000fcc:	f8c0 803c 	str.w	r8, [r0, #60]	; 0x3c
 8000fd0:	f04f 0802 	mov.w	r8, #2
 8000fd4:	e9c0 9905 	strd	r9, r9, [r0, #20]
 8000fd8:	e9c0 9909 	strd	r9, r9, [r0, #36]	; 0x24
 8000fdc:	e9c0 990b 	strd	r9, r9, [r0, #44]	; 0x2c
 8000fe0:	e9c0 8807 	strd	r8, r8, [r0, #28]
 8000fe4:	6002      	str	r2, [r0, #0]
 8000fe6:	f004 f835 	bl	8005054 <HAL_FDCAN_Init>
 8000fea:	4603      	mov	r3, r0
 8000fec:	b108      	cbz	r0, 8000ff2 <main+0x6a2>
 8000fee:	b672      	cpsid	i
 8000ff0:	e7fe      	b.n	8000ff0 <main+0x6a0>
 8000ff2:	f8df b128 	ldr.w	fp, [pc, #296]	; 800111c <main+0x7cc>
 8000ff6:	9016      	str	r0, [sp, #88]	; 0x58
 8000ff8:	2100      	movs	r1, #0
 8000ffa:	2200      	movs	r2, #0
 8000ffc:	e9cd 1220 	strd	r1, r2, [sp, #128]	; 0x80
 8001000:	f04f 4280 	mov.w	r2, #1073741824	; 0x40000000
 8001004:	f8cb 2000 	str.w	r2, [fp]
 8001008:	4a41      	ldr	r2, [pc, #260]	; (8001110 <main+0x7c0>)
 800100a:	9324      	str	r3, [sp, #144]	; 0x90
 800100c:	e9cd 0014 	strd	r0, r0, [sp, #80]	; 0x50
 8001010:	e9cb 3301 	strd	r3, r3, [fp, #4]
 8001014:	f8cb 3010 	str.w	r3, [fp, #16]
 8001018:	f8cb 3018 	str.w	r3, [fp, #24]
 800101c:	f04f 36ff 	mov.w	r6, #4294967295
 8001020:	2300      	movs	r3, #0
 8001022:	4658      	mov	r0, fp
 8001024:	a91c      	add	r1, sp, #112	; 0x70
 8001026:	e9cd 231c 	strd	r2, r3, [sp, #112]	; 0x70
 800102a:	e9cd 451e 	strd	r4, r5, [sp, #120]	; 0x78
 800102e:	e9cd 4522 	strd	r4, r5, [sp, #136]	; 0x88
 8001032:	f8cb 600c 	str.w	r6, [fp, #12]
 8001036:	f005 f9c5 	bl	80063c4 <HAL_TIM_Encoder_Init>
 800103a:	4603      	mov	r3, r0
 800103c:	b108      	cbz	r0, 8001042 <main+0x6f2>
 800103e:	b672      	cpsid	i
 8001040:	e7fe      	b.n	8001040 <main+0x6f0>
 8001042:	4658      	mov	r0, fp
 8001044:	a914      	add	r1, sp, #80	; 0x50
 8001046:	9314      	str	r3, [sp, #80]	; 0x50
 8001048:	9316      	str	r3, [sp, #88]	; 0x58
 800104a:	f005 fc29 	bl	80068a0 <HAL_TIMEx_MasterConfigSynchronization>
 800104e:	4604      	mov	r4, r0
 8001050:	b108      	cbz	r0, 8001056 <main+0x706>
 8001052:	b672      	cpsid	i
 8001054:	e7fe      	b.n	8001054 <main+0x704>
 8001056:	464a      	mov	r2, r9
 8001058:	2104      	movs	r1, #4
 800105a:	2018      	movs	r0, #24
 800105c:	f003 fe9c 	bl	8004d98 <HAL_NVIC_SetPriority>
 8001060:	2018      	movs	r0, #24
 8001062:	f003 fed1 	bl	8004e08 <HAL_NVIC_EnableIRQ>
 8001066:	4622      	mov	r2, r4
 8001068:	4621      	mov	r1, r4
 800106a:	2019      	movs	r0, #25
 800106c:	f003 fe94 	bl	8004d98 <HAL_NVIC_SetPriority>
 8001070:	2019      	movs	r0, #25
 8001072:	f003 fec9 	bl	8004e08 <HAL_NVIC_EnableIRQ>
 8001076:	4622      	mov	r2, r4
 8001078:	4641      	mov	r1, r8
 800107a:	2012      	movs	r0, #18
 800107c:	f003 fe8c 	bl	8004d98 <HAL_NVIC_SetPriority>
 8001080:	2012      	movs	r0, #18
 8001082:	f003 fec1 	bl	8004e08 <HAL_NVIC_EnableIRQ>
 8001086:	4622      	mov	r2, r4
 8001088:	2103      	movs	r1, #3
 800108a:	201e      	movs	r0, #30
 800108c:	f003 fe84 	bl	8004d98 <HAL_NVIC_SetPriority>
 8001090:	201e      	movs	r0, #30
 8001092:	f003 feb9 	bl	8004e08 <HAL_NVIC_EnableIRQ>
 8001096:	2103      	movs	r1, #3
 8001098:	4622      	mov	r2, r4
 800109a:	2017      	movs	r0, #23
 800109c:	f003 fe7c 	bl	8004d98 <HAL_NVIC_SetPriority>
 80010a0:	2017      	movs	r0, #23
 80010a2:	f003 feb1 	bl	8004e08 <HAL_NVIC_EnableIRQ>
 80010a6:	f8da 3000 	ldr.w	r3, [sl]
 80010aa:	931c      	str	r3, [sp, #112]	; 0x70
 80010ac:	220b      	movs	r2, #11
 80010ae:	232f      	movs	r3, #47	; 0x2f
 80010b0:	a81c      	add	r0, sp, #112	; 0x70
 80010b2:	f88d 2074 	strb.w	r2, [sp, #116]	; 0x74
 80010b6:	931e      	str	r3, [sp, #120]	; 0x78
 80010b8:	f002 fe2c 	bl	8003d14 <POT_Init>
 80010bc:	a814      	add	r0, sp, #80	; 0x50
 80010be:	f002 fe31 	bl	8003d24 <POT_ReadValue>
 80010c2:	23fa      	movs	r3, #250	; 0xfa
 80010c4:	f8ad 3050 	strh.w	r3, [sp, #80]	; 0x50
 80010c8:	f002 fea2 	bl	8003e10 <HAL_GetTick>
 80010cc:	f44f 70fa 	mov.w	r0, #500	; 0x1f4
 80010d0:	f002 fea4 	bl	8003e1c <HAL_Delay>
 80010d4:	4621      	mov	r1, r4
 80010d6:	4620      	mov	r0, r4
 80010d8:	f000 f828 	bl	800112c <MC_ProgramSpeedRampMotor1>
 80010dc:	f000 f820 	bl	8001120 <MC_StartMotor1>
 80010e0:	4d0c      	ldr	r5, [pc, #48]	; (8001114 <main+0x7c4>)
 80010e2:	4c0d      	ldr	r4, [pc, #52]	; (8001118 <main+0x7c8>)
 80010e4:	88eb      	ldrh	r3, [r5, #6]
 80010e6:	f403 637c 	and.w	r3, r3, #4032	; 0xfc0
 80010ea:	2201      	movs	r2, #1
 80010ec:	2140      	movs	r1, #64	; 0x40
 80010ee:	4620      	mov	r0, r4
 80010f0:	b10b      	cbz	r3, 80010f6 <main+0x7a6>
 80010f2:	2200      	movs	r2, #0
 80010f4:	2140      	movs	r1, #64	; 0x40
 80010f6:	f004 f997 	bl	8005428 <HAL_GPIO_WritePin>
 80010fa:	e7f3      	b.n	80010e4 <main+0x794>
 80010fc:	200006c0 	.word	0x200006c0
 8001100:	20000930 	.word	0x20000930
 8001104:	40000800 	.word	0x40000800
 8001108:	200008cc 	.word	0x200008cc
 800110c:	40006400 	.word	0x40006400
 8001110:	00010003 	.word	0x00010003
 8001114:	200000dc 	.word	0x200000dc
 8001118:	48000800 	.word	0x48000800
 800111c:	200009a0 	.word	0x200009a0

08001120 <MC_StartMotor1>:
 8001120:	4b01      	ldr	r3, [pc, #4]	; (8001128 <MC_StartMotor1+0x8>)
 8001122:	6818      	ldr	r0, [r3, #0]
 8001124:	f000 b838 	b.w	8001198 <MCI_StartMotor>
 8001128:	20001c78 	.word	0x20001c78

0800112c <MC_ProgramSpeedRampMotor1>:
 800112c:	4b02      	ldr	r3, [pc, #8]	; (8001138 <MC_ProgramSpeedRampMotor1+0xc>)
 800112e:	460a      	mov	r2, r1
 8001130:	4601      	mov	r1, r0
 8001132:	6818      	ldr	r0, [r3, #0]
 8001134:	f000 b810 	b.w	8001158 <MCI_ExecSpeedRamp>
 8001138:	20001c78 	.word	0x20001c78

0800113c <MCI_Init>:
 800113c:	b410      	push	{r4}
 800113e:	2400      	movs	r4, #0
 8001140:	7304      	strb	r4, [r0, #12]
 8001142:	81c4      	strh	r4, [r0, #14]
 8001144:	8204      	strh	r4, [r0, #16]
 8001146:	82c4      	strh	r4, [r0, #22]
 8001148:	7604      	strb	r4, [r0, #24]
 800114a:	e9c0 1200 	strd	r1, r2, [r0]
 800114e:	f85d 4b04 	ldr.w	r4, [sp], #4
 8001152:	6083      	str	r3, [r0, #8]
 8001154:	4770      	bx	lr
 8001156:	bf00      	nop

08001158 <MCI_ExecSpeedRamp>:
 8001158:	b410      	push	{r4}
 800115a:	f240 1301 	movw	r3, #257	; 0x101
 800115e:	2401      	movs	r4, #1
 8001160:	7304      	strb	r4, [r0, #12]
 8001162:	81c1      	strh	r1, [r0, #14]
 8001164:	f85d 4b04 	ldr.w	r4, [sp], #4
 8001168:	82c2      	strh	r2, [r0, #22]
 800116a:	8303      	strh	r3, [r0, #24]
 800116c:	4770      	bx	lr
 800116e:	bf00      	nop

08001170 <MCI_ExecTorqueRamp>:
 8001170:	b410      	push	{r4}
 8001172:	2301      	movs	r3, #1
 8001174:	2402      	movs	r4, #2
 8001176:	7304      	strb	r4, [r0, #12]
 8001178:	8201      	strh	r1, [r0, #16]
 800117a:	f85d 4b04 	ldr.w	r4, [sp], #4
 800117e:	82c2      	strh	r2, [r0, #22]
 8001180:	8303      	strh	r3, [r0, #24]
 8001182:	4770      	bx	lr

08001184 <MCI_SetCurrentReferences>:
 8001184:	b082      	sub	sp, #8
 8001186:	2203      	movs	r2, #3
 8001188:	2301      	movs	r3, #1
 800118a:	f8c0 1012 	str.w	r1, [r0, #18]
 800118e:	7302      	strb	r2, [r0, #12]
 8001190:	8303      	strh	r3, [r0, #24]
 8001192:	b002      	add	sp, #8
 8001194:	4770      	bx	lr
 8001196:	bf00      	nop

08001198 <MCI_StartMotor>:
 8001198:	b510      	push	{r4, lr}
 800119a:	2103      	movs	r1, #3
 800119c:	4604      	mov	r4, r0
 800119e:	6800      	ldr	r0, [r0, #0]
 80011a0:	f007 fa90 	bl	80086c4 <STM_NextState>
 80011a4:	b108      	cbz	r0, 80011aa <MCI_StartMotor+0x12>
 80011a6:	2301      	movs	r3, #1
 80011a8:	7623      	strb	r3, [r4, #24]
 80011aa:	bd10      	pop	{r4, pc}

080011ac <MCI_StopMotor>:
 80011ac:	6800      	ldr	r0, [r0, #0]
 80011ae:	2107      	movs	r1, #7
 80011b0:	f007 ba88 	b.w	80086c4 <STM_NextState>

080011b4 <MCI_FaultAcknowledged>:
 80011b4:	6800      	ldr	r0, [r0, #0]
 80011b6:	f007 bafb 	b.w	80087b0 <STM_FaultAcknowledged>
 80011ba:	bf00      	nop

080011bc <MCI_EncoderAlign>:
 80011bc:	6800      	ldr	r0, [r0, #0]
 80011be:	2101      	movs	r1, #1
 80011c0:	f007 ba80 	b.w	80086c4 <STM_NextState>

080011c4 <MCI_ExecBufferedCommands>:
 80011c4:	b178      	cbz	r0, 80011e6 <MCI_ExecBufferedCommands+0x22>
 80011c6:	b510      	push	{r4, lr}
 80011c8:	7e03      	ldrb	r3, [r0, #24]
 80011ca:	2b01      	cmp	r3, #1
 80011cc:	4604      	mov	r4, r0
 80011ce:	d000      	beq.n	80011d2 <MCI_ExecBufferedCommands+0xe>
 80011d0:	bd10      	pop	{r4, pc}
 80011d2:	7b01      	ldrb	r1, [r0, #12]
 80011d4:	2902      	cmp	r1, #2
 80011d6:	d020      	beq.n	800121a <MCI_ExecBufferedCommands+0x56>
 80011d8:	2903      	cmp	r1, #3
 80011da:	d005      	beq.n	80011e8 <MCI_ExecBufferedCommands+0x24>
 80011dc:	2901      	cmp	r1, #1
 80011de:	d00c      	beq.n	80011fa <MCI_ExecBufferedCommands+0x36>
 80011e0:	2303      	movs	r3, #3
 80011e2:	7623      	strb	r3, [r4, #24]
 80011e4:	bd10      	pop	{r4, pc}
 80011e6:	4770      	bx	lr
 80011e8:	6882      	ldr	r2, [r0, #8]
 80011ea:	f882 3024 	strb.w	r3, [r2, #36]	; 0x24
 80011ee:	f8d0 3012 	ldr.w	r3, [r0, #18]
 80011f2:	6113      	str	r3, [r2, #16]
 80011f4:	2302      	movs	r3, #2
 80011f6:	7623      	strb	r3, [r4, #24]
 80011f8:	bd10      	pop	{r4, pc}
 80011fa:	6883      	ldr	r3, [r0, #8]
 80011fc:	2200      	movs	r2, #0
 80011fe:	f883 2024 	strb.w	r2, [r3, #36]	; 0x24
 8001202:	6840      	ldr	r0, [r0, #4]
 8001204:	f007 f99e 	bl	8008544 <STC_SetControlMode>
 8001208:	8ae2      	ldrh	r2, [r4, #22]
 800120a:	f9b4 100e 	ldrsh.w	r1, [r4, #14]
 800120e:	6860      	ldr	r0, [r4, #4]
 8001210:	f007 f99c 	bl	800854c <STC_ExecRamp>
 8001214:	2800      	cmp	r0, #0
 8001216:	d0e3      	beq.n	80011e0 <MCI_ExecBufferedCommands+0x1c>
 8001218:	e7ec      	b.n	80011f4 <MCI_ExecBufferedCommands+0x30>
 800121a:	6883      	ldr	r3, [r0, #8]
 800121c:	2100      	movs	r1, #0
 800121e:	f883 1024 	strb.w	r1, [r3, #36]	; 0x24
 8001222:	6840      	ldr	r0, [r0, #4]
 8001224:	f007 f98e 	bl	8008544 <STC_SetControlMode>
 8001228:	8ae2      	ldrh	r2, [r4, #22]
 800122a:	f9b4 1010 	ldrsh.w	r1, [r4, #16]
 800122e:	6860      	ldr	r0, [r4, #4]
 8001230:	f007 f98c 	bl	800854c <STC_ExecRamp>
 8001234:	2800      	cmp	r0, #0
 8001236:	d0d3      	beq.n	80011e0 <MCI_ExecBufferedCommands+0x1c>
 8001238:	e7dc      	b.n	80011f4 <MCI_ExecBufferedCommands+0x30>
 800123a:	bf00      	nop

0800123c <MCI_GetSTMState>:
 800123c:	6800      	ldr	r0, [r0, #0]
 800123e:	f007 bab5 	b.w	80087ac <STM_GetState>
 8001242:	bf00      	nop

08001244 <MCI_GetControlMode>:
 8001244:	7e40      	ldrb	r0, [r0, #25]
 8001246:	4770      	bx	lr

08001248 <MCI_GetLastRampFinalSpeed>:
 8001248:	f9b0 000e 	ldrsh.w	r0, [r0, #14]
 800124c:	4770      	bx	lr
 800124e:	bf00      	nop

08001250 <MCI_GetLastRampFinalTorque>:
 8001250:	f9b0 0010 	ldrsh.w	r0, [r0, #16]
 8001254:	4770      	bx	lr
 8001256:	bf00      	nop

08001258 <MCI_GetLastRampFinalDuration>:
 8001258:	8ac0      	ldrh	r0, [r0, #22]
 800125a:	4770      	bx	lr

0800125c <MCI_StopRamp>:
 800125c:	6840      	ldr	r0, [r0, #4]
 800125e:	f007 b9bd 	b.w	80085dc <STC_StopRamp>
 8001262:	bf00      	nop

08001264 <MCI_GetAvrgMecSpeedUnit>:
 8001264:	b508      	push	{r3, lr}
 8001266:	6840      	ldr	r0, [r0, #4]
 8001268:	f007 f952 	bl	8008510 <STC_GetSpeedSensor>
 800126c:	e8bd 4008 	ldmia.w	sp!, {r3, lr}
 8001270:	f007 b8f6 	b.w	8008460 <SPD_GetAvrgMecSpeedUnit>

08001274 <MCI_GetMecSpeedRefUnit>:
 8001274:	6840      	ldr	r0, [r0, #4]
 8001276:	f007 b955 	b.w	8008524 <STC_GetMecSpeedRefUnit>
 800127a:	bf00      	nop

0800127c <MCI_GetIab>:
 800127c:	6882      	ldr	r2, [r0, #8]
 800127e:	6810      	ldr	r0, [r2, #0]
 8001280:	2300      	movs	r3, #0
 8001282:	b282      	uxth	r2, r0
 8001284:	f362 030f 	bfi	r3, r2, #0, #16
 8001288:	0c00      	lsrs	r0, r0, #16
 800128a:	f360 431f 	bfi	r3, r0, #16, #16
 800128e:	b082      	sub	sp, #8
 8001290:	4618      	mov	r0, r3
 8001292:	b002      	add	sp, #8
 8001294:	4770      	bx	lr
 8001296:	bf00      	nop

08001298 <MCI_GetIalphabeta>:
 8001298:	6882      	ldr	r2, [r0, #8]
 800129a:	6850      	ldr	r0, [r2, #4]
 800129c:	2300      	movs	r3, #0
 800129e:	b282      	uxth	r2, r0
 80012a0:	f362 030f 	bfi	r3, r2, #0, #16
 80012a4:	0c00      	lsrs	r0, r0, #16
 80012a6:	f360 431f 	bfi	r3, r0, #16, #16
 80012aa:	b082      	sub	sp, #8
 80012ac:	4618      	mov	r0, r3
 80012ae:	b002      	add	sp, #8
 80012b0:	4770      	bx	lr
 80012b2:	bf00      	nop

080012b4 <MCI_GetIqd>:
 80012b4:	6882      	ldr	r2, [r0, #8]
 80012b6:	68d0      	ldr	r0, [r2, #12]
 80012b8:	2300      	movs	r3, #0
 80012ba:	b282      	uxth	r2, r0
 80012bc:	f362 030f 	bfi	r3, r2, #0, #16
 80012c0:	0c00      	lsrs	r0, r0, #16
 80012c2:	f360 431f 	bfi	r3, r0, #16, #16
 80012c6:	b082      	sub	sp, #8
 80012c8:	4618      	mov	r0, r3
 80012ca:	b002      	add	sp, #8
 80012cc:	4770      	bx	lr
 80012ce:	bf00      	nop

080012d0 <MCI_GetIqdref>:
 80012d0:	6882      	ldr	r2, [r0, #8]
 80012d2:	6910      	ldr	r0, [r2, #16]
 80012d4:	2300      	movs	r3, #0
 80012d6:	b282      	uxth	r2, r0
 80012d8:	f362 030f 	bfi	r3, r2, #0, #16
 80012dc:	0c00      	lsrs	r0, r0, #16
 80012de:	f360 431f 	bfi	r3, r0, #16, #16
 80012e2:	b082      	sub	sp, #8
 80012e4:	4618      	mov	r0, r3
 80012e6:	b002      	add	sp, #8
 80012e8:	4770      	bx	lr
 80012ea:	bf00      	nop

080012ec <MCI_GetVqd>:
 80012ec:	6882      	ldr	r2, [r0, #8]
 80012ee:	f8d2 0016 	ldr.w	r0, [r2, #22]
 80012f2:	2300      	movs	r3, #0
 80012f4:	b282      	uxth	r2, r0
 80012f6:	f362 030f 	bfi	r3, r2, #0, #16
 80012fa:	0c00      	lsrs	r0, r0, #16
 80012fc:	f360 431f 	bfi	r3, r0, #16, #16
 8001300:	b082      	sub	sp, #8
 8001302:	4618      	mov	r0, r3
 8001304:	b002      	add	sp, #8
 8001306:	4770      	bx	lr

08001308 <MCI_GetValphabeta>:
 8001308:	6882      	ldr	r2, [r0, #8]
 800130a:	f8d2 001a 	ldr.w	r0, [r2, #26]
 800130e:	2300      	movs	r3, #0
 8001310:	b282      	uxth	r2, r0
 8001312:	f362 030f 	bfi	r3, r2, #0, #16
 8001316:	0c00      	lsrs	r0, r0, #16
 8001318:	f360 431f 	bfi	r3, r0, #16, #16
 800131c:	b082      	sub	sp, #8
 800131e:	4618      	mov	r0, r3
 8001320:	b002      	add	sp, #8
 8001322:	4770      	bx	lr

08001324 <MCI_GetTeref>:
 8001324:	6883      	ldr	r3, [r0, #8]
 8001326:	f9b3 001e 	ldrsh.w	r0, [r3, #30]
 800132a:	4770      	bx	lr

0800132c <MCI_Clear_Iqdref>:
 800132c:	b510      	push	{r4, lr}
 800132e:	e9d0 0401 	ldrd	r0, r4, [r0, #4]
 8001332:	f007 f98d 	bl	8008650 <STC_GetDefaultIqdref>
 8001336:	f3c0 430f 	ubfx	r3, r0, #16, #16
 800133a:	8220      	strh	r0, [r4, #16]
 800133c:	8263      	strh	r3, [r4, #18]
 800133e:	bd10      	pop	{r4, pc}

08001340 <MCM_Clarke>:
 8001340:	b203      	sxth	r3, r0
 8001342:	f644 11e6 	movw	r1, #18918	; 0x49e6
 8001346:	f3c0 400f 	ubfx	r0, r0, #16, #16
 800134a:	fb13 f201 	smulbb	r2, r3, r1
 800134e:	fb10 f101 	smulbb	r1, r0, r1
 8001352:	4250      	negs	r0, r2
 8001354:	eba0 0041 	sub.w	r0, r0, r1, lsl #1
 8001358:	f1b0 4f80 	cmp.w	r0, #1073741824	; 0x40000000
 800135c:	b084      	sub	sp, #16
 800135e:	da05      	bge.n	800136c <MCM_Clarke+0x2c>
 8001360:	13c1      	asrs	r1, r0, #15
 8001362:	f511 4f00 	cmn.w	r1, #32768	; 0x8000
 8001366:	da0c      	bge.n	8001382 <MCM_Clarke+0x42>
 8001368:	4a09      	ldr	r2, [pc, #36]	; (8001390 <MCM_Clarke+0x50>)
 800136a:	e001      	b.n	8001370 <MCM_Clarke+0x30>
 800136c:	f647 72ff 	movw	r2, #32767	; 0x7fff
 8001370:	b29b      	uxth	r3, r3
 8001372:	2000      	movs	r0, #0
 8001374:	b292      	uxth	r2, r2
 8001376:	f363 000f 	bfi	r0, r3, #0, #16
 800137a:	f362 401f 	bfi	r0, r2, #16, #16
 800137e:	b004      	add	sp, #16
 8001380:	4770      	bx	lr
 8001382:	4803      	ldr	r0, [pc, #12]	; (8001390 <MCM_Clarke+0x50>)
 8001384:	b20a      	sxth	r2, r1
 8001386:	4282      	cmp	r2, r0
 8001388:	bfb8      	it	lt
 800138a:	4602      	movlt	r2, r0
 800138c:	e7f0      	b.n	8001370 <MCM_Clarke+0x30>
 800138e:	bf00      	nop
 8001390:	ffff8001 	.word	0xffff8001

08001394 <MCM_Trig_Functions>:
 8001394:	4b09      	ldr	r3, [pc, #36]	; (80013bc <MCM_Trig_Functions+0x28>)
 8001396:	4a0a      	ldr	r2, [pc, #40]	; (80013c0 <MCM_Trig_Functions+0x2c>)
 8001398:	601a      	str	r2, [r3, #0]
 800139a:	f100 40ff 	add.w	r0, r0, #2139095040	; 0x7f800000
 800139e:	f500 00fe 	add.w	r0, r0, #8323072	; 0x7f0000
 80013a2:	6058      	str	r0, [r3, #4]
 80013a4:	689b      	ldr	r3, [r3, #8]
 80013a6:	2000      	movs	r0, #0
 80013a8:	b29a      	uxth	r2, r3
 80013aa:	f362 000f 	bfi	r0, r2, #0, #16
 80013ae:	0c1b      	lsrs	r3, r3, #16
 80013b0:	b082      	sub	sp, #8
 80013b2:	f363 401f 	bfi	r0, r3, #16, #16
 80013b6:	b002      	add	sp, #8
 80013b8:	4770      	bx	lr
 80013ba:	bf00      	nop
 80013bc:	40020c00 	.word	0x40020c00
 80013c0:	00600040 	.word	0x00600040

080013c4 <MCM_Park>:
 80013c4:	b570      	push	{r4, r5, r6, lr}
 80013c6:	b084      	sub	sp, #16
 80013c8:	4605      	mov	r5, r0
 80013ca:	9001      	str	r0, [sp, #4]
 80013cc:	4606      	mov	r6, r0
 80013ce:	4608      	mov	r0, r1
 80013d0:	f7ff ffe0 	bl	8001394 <MCM_Trig_Functions>
 80013d4:	b22d      	sxth	r5, r5
 80013d6:	b204      	sxth	r4, r0
 80013d8:	1436      	asrs	r6, r6, #16
 80013da:	1400      	asrs	r0, r0, #16
 80013dc:	fb05 f204 	mul.w	r2, r5, r4
 80013e0:	fb06 2210 	mls	r2, r6, r0, r2
 80013e4:	f1b2 4f80 	cmp.w	r2, #1073741824	; 0x40000000
 80013e8:	da12      	bge.n	8001410 <MCM_Park+0x4c>
 80013ea:	13d3      	asrs	r3, r2, #15
 80013ec:	f513 4f00 	cmn.w	r3, #32768	; 0x8000
 80013f0:	4914      	ldr	r1, [pc, #80]	; (8001444 <MCM_Park+0x80>)
 80013f2:	da21      	bge.n	8001438 <MCM_Park+0x74>
 80013f4:	fb04 f406 	mul.w	r4, r4, r6
 80013f8:	fb05 4000 	mla	r0, r5, r0, r4
 80013fc:	f1b0 4f80 	cmp.w	r0, #1073741824	; 0x40000000
 8001400:	ea4f 32e0 	mov.w	r2, r0, asr #15
 8001404:	da07      	bge.n	8001416 <MCM_Park+0x52>
 8001406:	f512 4f00 	cmn.w	r2, #32768	; 0x8000
 800140a:	da0f      	bge.n	800142c <MCM_Park+0x68>
 800140c:	4b0d      	ldr	r3, [pc, #52]	; (8001444 <MCM_Park+0x80>)
 800140e:	e004      	b.n	800141a <MCM_Park+0x56>
 8001410:	f647 71ff 	movw	r1, #32767	; 0x7fff
 8001414:	e7ee      	b.n	80013f4 <MCM_Park+0x30>
 8001416:	f647 73ff 	movw	r3, #32767	; 0x7fff
 800141a:	b28a      	uxth	r2, r1
 800141c:	2000      	movs	r0, #0
 800141e:	b29b      	uxth	r3, r3
 8001420:	f362 000f 	bfi	r0, r2, #0, #16
 8001424:	f363 401f 	bfi	r0, r3, #16, #16
 8001428:	b004      	add	sp, #16
 800142a:	bd70      	pop	{r4, r5, r6, pc}
 800142c:	4805      	ldr	r0, [pc, #20]	; (8001444 <MCM_Park+0x80>)
 800142e:	b213      	sxth	r3, r2
 8001430:	4283      	cmp	r3, r0
 8001432:	bfb8      	it	lt
 8001434:	4603      	movlt	r3, r0
 8001436:	e7f0      	b.n	800141a <MCM_Park+0x56>
 8001438:	b21a      	sxth	r2, r3
 800143a:	4291      	cmp	r1, r2
 800143c:	bfb8      	it	lt
 800143e:	4611      	movlt	r1, r2
 8001440:	e7d8      	b.n	80013f4 <MCM_Park+0x30>
 8001442:	bf00      	nop
 8001444:	ffff8001 	.word	0xffff8001

08001448 <MCM_Rev_Park>:
 8001448:	b530      	push	{r4, r5, lr}
 800144a:	b085      	sub	sp, #20
 800144c:	4604      	mov	r4, r0
 800144e:	9001      	str	r0, [sp, #4]
 8001450:	4605      	mov	r5, r0
 8001452:	4608      	mov	r0, r1
 8001454:	f7ff ff9e 	bl	8001394 <MCM_Trig_Functions>
 8001458:	142d      	asrs	r5, r5, #16
 800145a:	1403      	asrs	r3, r0, #16
 800145c:	b224      	sxth	r4, r4
 800145e:	fb05 f203 	mul.w	r2, r5, r3
 8001462:	b200      	sxth	r0, r0
 8001464:	fb04 2200 	mla	r2, r4, r0, r2
 8001468:	fb00 f005 	mul.w	r0, r0, r5
 800146c:	fb04 0313 	mls	r3, r4, r3, r0
 8001470:	f3c2 32cf 	ubfx	r2, r2, #15, #16
 8001474:	2000      	movs	r0, #0
 8001476:	f3c3 33cf 	ubfx	r3, r3, #15, #16
 800147a:	f362 000f 	bfi	r0, r2, #0, #16
 800147e:	f363 401f 	bfi	r0, r3, #16, #16
 8001482:	b005      	add	sp, #20
 8001484:	bd30      	pop	{r4, r5, pc}
 8001486:	bf00      	nop

08001488 <MCM_Sqrt>:
 8001488:	2800      	cmp	r0, #0
 800148a:	dd09      	ble.n	80014a0 <MCM_Sqrt+0x18>
 800148c:	b672      	cpsid	i
 800148e:	4b05      	ldr	r3, [pc, #20]	; (80014a4 <MCM_Sqrt+0x1c>)
 8001490:	f240 1229 	movw	r2, #297	; 0x129
 8001494:	601a      	str	r2, [r3, #0]
 8001496:	6058      	str	r0, [r3, #4]
 8001498:	6898      	ldr	r0, [r3, #8]
 800149a:	13c0      	asrs	r0, r0, #15
 800149c:	b662      	cpsie	i
 800149e:	4770      	bx	lr
 80014a0:	2000      	movs	r0, #0
 80014a2:	4770      	bx	lr
 80014a4:	40020c00 	.word	0x40020c00

080014a8 <FOC_Clear>:
 80014a8:	b5f8      	push	{r3, r4, r5, r6, r7, lr}
 80014aa:	eb00 01c0 	add.w	r1, r0, r0, lsl #3
 80014ae:	4b1e      	ldr	r3, [pc, #120]	; (8001528 <FOC_Clear+0x80>)
 80014b0:	eb00 0141 	add.w	r1, r0, r1, lsl #1
 80014b4:	eb03 0c41 	add.w	ip, r3, r1, lsl #1
 80014b8:	004a      	lsls	r2, r1, #1
 80014ba:	2500      	movs	r5, #0
 80014bc:	4604      	mov	r4, r0
 80014be:	f102 070c 	add.w	r7, r2, #12
 80014c2:	2626      	movs	r6, #38	; 0x26
 80014c4:	3216      	adds	r2, #22
 80014c6:	f843 5011 	str.w	r5, [r3, r1, lsl #1]
 80014ca:	eb07 0e03 	add.w	lr, r7, r3
 80014ce:	f8cc 5004 	str.w	r5, [ip, #4]
 80014d2:	fb06 3604 	mla	r6, r6, r4, r3
 80014d6:	eb02 0c03 	add.w	ip, r2, r3
 80014da:	4814      	ldr	r0, [pc, #80]	; (800152c <FOC_Clear+0x84>)
 80014dc:	50fd      	str	r5, [r7, r3]
 80014de:	f850 0024 	ldr.w	r0, [r0, r4, lsl #2]
 80014e2:	f8ce 5004 	str.w	r5, [lr, #4]
 80014e6:	4629      	mov	r1, r5
 80014e8:	83f5      	strh	r5, [r6, #30]
 80014ea:	50d5      	str	r5, [r2, r3]
 80014ec:	f8cc 5004 	str.w	r5, [ip, #4]
 80014f0:	8435      	strh	r5, [r6, #32]
 80014f2:	f005 ff57 	bl	80073a4 <PID_SetIntegralTerm>
 80014f6:	4b0e      	ldr	r3, [pc, #56]	; (8001530 <FOC_Clear+0x88>)
 80014f8:	4629      	mov	r1, r5
 80014fa:	f853 0024 	ldr.w	r0, [r3, r4, lsl #2]
 80014fe:	f005 ff51 	bl	80073a4 <PID_SetIntegralTerm>
 8001502:	4b0c      	ldr	r3, [pc, #48]	; (8001534 <FOC_Clear+0x8c>)
 8001504:	f853 0024 	ldr.w	r0, [r3, r4, lsl #2]
 8001508:	f007 f804 	bl	8008514 <STC_Clear>
 800150c:	4b0a      	ldr	r3, [pc, #40]	; (8001538 <FOC_Clear+0x90>)
 800150e:	f853 0024 	ldr.w	r0, [r3, r4, lsl #2]
 8001512:	f000 fe03 	bl	800211c <PWMC_SwitchOffPWM>
 8001516:	4b09      	ldr	r3, [pc, #36]	; (800153c <FOC_Clear+0x94>)
 8001518:	f853 0024 	ldr.w	r0, [r3, r4, lsl #2]
 800151c:	b118      	cbz	r0, 8001526 <FOC_Clear+0x7e>
 800151e:	e8bd 40f8 	ldmia.w	sp!, {r3, r4, r5, r6, r7, lr}
 8001522:	f007 b9bb 	b.w	800889c <FF_Clear>
 8001526:	bdf8      	pop	{r3, r4, r5, r6, r7, pc}
 8001528:	20000a2c 	.word	0x20000a2c
 800152c:	2000048c 	.word	0x2000048c
 8001530:	20000488 	.word	0x20000488
 8001534:	20000490 	.word	0x20000490
 8001538:	20000a20 	.word	0x20000a20
 800153c:	20000480 	.word	0x20000480

08001540 <MCboot>:
 8001540:	e92d 4ff0 	stmdb	sp!, {r4, r5, r6, r7, r8, r9, sl, fp, lr}
 8001544:	f8df 8158 	ldr.w	r8, [pc, #344]	; 80016a0 <MCboot+0x160>
 8001548:	4d42      	ldr	r5, [pc, #264]	; (8001654 <MCboot+0x114>)
 800154a:	f8df a158 	ldr.w	sl, [pc, #344]	; 80016a4 <MCboot+0x164>
 800154e:	4f42      	ldr	r7, [pc, #264]	; (8001658 <MCboot+0x118>)
 8001550:	4c42      	ldr	r4, [pc, #264]	; (800165c <MCboot+0x11c>)
 8001552:	f8df 9154 	ldr.w	r9, [pc, #340]	; 80016a8 <MCboot+0x168>
 8001556:	f8df b154 	ldr.w	fp, [pc, #340]	; 80016ac <MCboot+0x16c>
 800155a:	4e41      	ldr	r6, [pc, #260]	; (8001660 <MCboot+0x120>)
 800155c:	b085      	sub	sp, #20
 800155e:	4602      	mov	r2, r0
 8001560:	4640      	mov	r0, r8
 8001562:	9201      	str	r2, [sp, #4]
 8001564:	f007 f88a 	bl	800867c <STM_Init>
 8001568:	4a3e      	ldr	r2, [pc, #248]	; (8001664 <MCboot+0x124>)
 800156a:	4b3f      	ldr	r3, [pc, #252]	; (8001668 <MCboot+0x128>)
 800156c:	483f      	ldr	r0, [pc, #252]	; (800166c <MCboot+0x12c>)
 800156e:	4940      	ldr	r1, [pc, #256]	; (8001670 <MCboot+0x130>)
 8001570:	6028      	str	r0, [r5, #0]
 8001572:	2500      	movs	r5, #0
 8001574:	701d      	strb	r5, [r3, #0]
 8001576:	6011      	str	r1, [r2, #0]
 8001578:	f006 fb26 	bl	8007bc8 <R3_2_Init>
 800157c:	483d      	ldr	r0, [pc, #244]	; (8001674 <MCboot+0x134>)
 800157e:	f7fe fe75 	bl	800026c <ASPEP_start>
 8001582:	f005 ffbb 	bl	80074fc <startTimers>
 8001586:	4650      	mov	r0, sl
 8001588:	f005 fef8 	bl	800737c <PID_HandleInit>
 800158c:	4638      	mov	r0, r7
 800158e:	f005 fafd 	bl	8006b8c <ENC_Init>
 8001592:	463b      	mov	r3, r7
 8001594:	6821      	ldr	r1, [r4, #0]
 8001596:	464a      	mov	r2, r9
 8001598:	4658      	mov	r0, fp
 800159a:	f005 faa7 	bl	8006aec <EAC_Init>
 800159e:	4a36      	ldr	r2, [pc, #216]	; (8001678 <MCboot+0x138>)
 80015a0:	6820      	ldr	r0, [r4, #0]
 80015a2:	f8c2 b000 	str.w	fp, [r2]
 80015a6:	4651      	mov	r1, sl
 80015a8:	463a      	mov	r2, r7
 80015aa:	f006 ff9b 	bl	80084e4 <STC_Init>
 80015ae:	4648      	mov	r0, r9
 80015b0:	f007 f91e 	bl	80087f0 <VSS_Init>
 80015b4:	4831      	ldr	r0, [pc, #196]	; (800167c <MCboot+0x13c>)
 80015b6:	f8df 90f8 	ldr.w	r9, [pc, #248]	; 80016b0 <MCboot+0x170>
 80015ba:	f8df a0f8 	ldr.w	sl, [pc, #248]	; 80016b4 <MCboot+0x174>
 80015be:	f005 fedd 	bl	800737c <PID_HandleInit>
 80015c2:	482f      	ldr	r0, [pc, #188]	; (8001680 <MCboot+0x140>)
 80015c4:	f005 feda 	bl	800737c <PID_HandleInit>
 80015c8:	4630      	mov	r0, r6
 80015ca:	f006 feef 	bl	80083ac <RVBS_Init>
 80015ce:	4b2d      	ldr	r3, [pc, #180]	; (8001684 <MCboot+0x144>)
 80015d0:	482d      	ldr	r0, [pc, #180]	; (8001688 <MCboot+0x148>)
 80015d2:	681b      	ldr	r3, [r3, #0]
 80015d4:	e9c3 9643 	strd	r9, r6, [r3, #268]	; 0x10c
 80015d8:	f005 fe8c 	bl	80072f4 <NTC_Init>
 80015dc:	492b      	ldr	r1, [pc, #172]	; (800168c <MCboot+0x14c>)
 80015de:	4b2c      	ldr	r3, [pc, #176]	; (8001690 <MCboot+0x150>)
 80015e0:	4a2c      	ldr	r2, [pc, #176]	; (8001694 <MCboot+0x154>)
 80015e2:	6808      	ldr	r0, [r1, #0]
 80015e4:	6812      	ldr	r2, [r2, #0]
 80015e6:	681b      	ldr	r3, [r3, #0]
 80015e8:	4631      	mov	r1, r6
 80015ea:	f007 f94b 	bl	8008884 <FF_Init>
 80015ee:	4b2a      	ldr	r3, [pc, #168]	; (8001698 <MCboot+0x158>)
 80015f0:	482a      	ldr	r0, [pc, #168]	; (800169c <MCboot+0x15c>)
 80015f2:	6018      	str	r0, [r3, #0]
 80015f4:	2601      	movs	r6, #1
 80015f6:	f006 ff27 	bl	8008448 <REMNG_Init>
 80015fa:	4628      	mov	r0, r5
 80015fc:	f7ff ff54 	bl	80014a8 <FOC_Clear>
 8001600:	6820      	ldr	r0, [r4, #0]
 8001602:	f889 6024 	strb.w	r6, [r9, #36]	; 0x24
 8001606:	f007 f823 	bl	8008650 <STC_GetDefaultIqdref>
 800160a:	4603      	mov	r3, r0
 800160c:	f3c0 420f 	ubfx	r2, r0, #16, #16
 8001610:	f8a9 3010 	strh.w	r3, [r9, #16]
 8001614:	f8a9 2012 	strh.w	r2, [r9, #18]
 8001618:	6820      	ldr	r0, [r4, #0]
 800161a:	f007 f819 	bl	8008650 <STC_GetDefaultIqdref>
 800161e:	f3c0 400f 	ubfx	r0, r0, #16, #16
 8001622:	464b      	mov	r3, r9
 8001624:	6822      	ldr	r2, [r4, #0]
 8001626:	f8a9 0014 	strh.w	r0, [r9, #20]
 800162a:	4641      	mov	r1, r8
 800162c:	4650      	mov	r0, sl
 800162e:	f7ff fd85 	bl	800113c <MCI_Init>
 8001632:	6820      	ldr	r0, [r4, #0]
 8001634:	f007 f808 	bl	8008648 <STC_GetMecSpeedRefUnitDefault>
 8001638:	462a      	mov	r2, r5
 800163a:	4601      	mov	r1, r0
 800163c:	4650      	mov	r0, sl
 800163e:	f7ff fd8b 	bl	8001158 <MCI_ExecSpeedRamp>
 8001642:	9a01      	ldr	r2, [sp, #4]
 8001644:	4b08      	ldr	r3, [pc, #32]	; (8001668 <MCboot+0x128>)
 8001646:	f8c2 a000 	str.w	sl, [r2]
 800164a:	701e      	strb	r6, [r3, #0]
 800164c:	b005      	add	sp, #20
 800164e:	e8bd 8ff0 	ldmia.w	sp!, {r4, r5, r6, r7, r8, r9, sl, fp, pc}
 8001652:	bf00      	nop
 8001654:	20000a20 	.word	0x20000a20
 8001658:	200000dc 	.word	0x200000dc
 800165c:	20000490 	.word	0x20000490
 8001660:	20000000 	.word	0x20000000
 8001664:	20000a54 	.word	0x20000a54
 8001668:	20000660 	.word	0x20000660
 800166c:	20000344 	.word	0x20000344
 8001670:	20000028 	.word	0x20000028
 8001674:	200005bc 	.word	0x200005bc
 8001678:	20000a24 	.word	0x20000a24
 800167c:	200001d8 	.word	0x200001d8
 8001680:	200001ac 	.word	0x200001ac
 8001684:	20000484 	.word	0x20000484
 8001688:	20000420 	.word	0x20000420
 800168c:	20000480 	.word	0x20000480
 8001690:	2000048c 	.word	0x2000048c
 8001694:	20000488 	.word	0x20000488
 8001698:	20000a58 	.word	0x20000a58
 800169c:	200003d4 	.word	0x200003d4
 80016a0:	20000a08 	.word	0x20000a08
 80016a4:	20000204 	.word	0x20000204
 80016a8:	20000448 	.word	0x20000448
 80016ac:	20000158 	.word	0x20000158
 80016b0:	20000a2c 	.word	0x20000a2c
 80016b4:	200009ec 	.word	0x200009ec

080016b8 <FOC_InitAdditionalMethods>:
 80016b8:	4b03      	ldr	r3, [pc, #12]	; (80016c8 <FOC_InitAdditionalMethods+0x10>)
 80016ba:	f853 0020 	ldr.w	r0, [r3, r0, lsl #2]
 80016be:	b108      	cbz	r0, 80016c4 <FOC_InitAdditionalMethods+0xc>
 80016c0:	f007 b988 	b.w	80089d4 <FF_InitFOCAdditionalMethods>
 80016c4:	4770      	bx	lr
 80016c6:	bf00      	nop
 80016c8:	20000480 	.word	0x20000480

080016cc <FOC_CalcCurrRef>:
 80016cc:	b570      	push	{r4, r5, r6, lr}
 80016ce:	4b0f      	ldr	r3, [pc, #60]	; (800170c <FOC_CalcCurrRef+0x40>)
 80016d0:	2426      	movs	r4, #38	; 0x26
 80016d2:	fb04 3400 	mla	r4, r4, r0, r3
 80016d6:	f894 3024 	ldrb.w	r3, [r4, #36]	; 0x24
 80016da:	b103      	cbz	r3, 80016de <FOC_CalcCurrRef+0x12>
 80016dc:	bd70      	pop	{r4, r5, r6, pc}
 80016de:	4e0c      	ldr	r6, [pc, #48]	; (8001710 <FOC_CalcCurrRef+0x44>)
 80016e0:	4605      	mov	r5, r0
 80016e2:	f856 0020 	ldr.w	r0, [r6, r0, lsl #2]
 80016e6:	f006 ff7d 	bl	80085e4 <STC_CalcTorqueReference>
 80016ea:	4b0a      	ldr	r3, [pc, #40]	; (8001714 <FOC_CalcCurrRef+0x48>)
 80016ec:	83e0      	strh	r0, [r4, #30]
 80016ee:	f853 3025 	ldr.w	r3, [r3, r5, lsl #2]
 80016f2:	8220      	strh	r0, [r4, #16]
 80016f4:	3410      	adds	r4, #16
 80016f6:	2b00      	cmp	r3, #0
 80016f8:	d0f0      	beq.n	80016dc <FOC_CalcCurrRef+0x10>
 80016fa:	f856 2025 	ldr.w	r2, [r6, r5, lsl #2]
 80016fe:	6821      	ldr	r1, [r4, #0]
 8001700:	4618      	mov	r0, r3
 8001702:	e8bd 4070 	ldmia.w	sp!, {r4, r5, r6, lr}
 8001706:	f007 b8cd 	b.w	80088a4 <FF_VqdffComputation>
 800170a:	bf00      	nop
 800170c:	20000a2c 	.word	0x20000a2c
 8001710:	20000490 	.word	0x20000490
 8001714:	20000480 	.word	0x20000480

08001718 <TSK_SetChargeBootCapDelayM1>:
 8001718:	4b01      	ldr	r3, [pc, #4]	; (8001720 <TSK_SetChargeBootCapDelayM1+0x8>)
 800171a:	8018      	strh	r0, [r3, #0]
 800171c:	4770      	bx	lr
 800171e:	bf00      	nop
 8001720:	20000662 	.word	0x20000662

08001724 <TSK_ChargeBootCapDelayHasElapsedM1>:
 8001724:	4b03      	ldr	r3, [pc, #12]	; (8001734 <TSK_ChargeBootCapDelayHasElapsedM1+0x10>)
 8001726:	8818      	ldrh	r0, [r3, #0]
 8001728:	b280      	uxth	r0, r0
 800172a:	fab0 f080 	clz	r0, r0
 800172e:	0940      	lsrs	r0, r0, #5
 8001730:	4770      	bx	lr
 8001732:	bf00      	nop
 8001734:	20000662 	.word	0x20000662

08001738 <TSK_SetStopPermanencyTimeM1>:
 8001738:	4b01      	ldr	r3, [pc, #4]	; (8001740 <TSK_SetStopPermanencyTimeM1+0x8>)
 800173a:	8018      	strh	r0, [r3, #0]
 800173c:	4770      	bx	lr
 800173e:	bf00      	nop
 8001740:	20000666 	.word	0x20000666

08001744 <TSK_StopPermanencyTimeHasElapsedM1>:
 8001744:	4b03      	ldr	r3, [pc, #12]	; (8001754 <TSK_StopPermanencyTimeHasElapsedM1+0x10>)
 8001746:	8818      	ldrh	r0, [r3, #0]
 8001748:	b280      	uxth	r0, r0
 800174a:	fab0 f080 	clz	r0, r0
 800174e:	0940      	lsrs	r0, r0, #5
 8001750:	4770      	bx	lr
 8001752:	bf00      	nop
 8001754:	20000666 	.word	0x20000666

08001758 <TSK_MediumFrequencyTaskM1>:
 8001758:	b510      	push	{r4, lr}
 800175a:	4c8d      	ldr	r4, [pc, #564]	; (8001990 <TSK_MediumFrequencyTaskM1+0x238>)
 800175c:	488d      	ldr	r0, [pc, #564]	; (8001994 <TSK_MediumFrequencyTaskM1+0x23c>)
 800175e:	b082      	sub	sp, #8
 8001760:	2300      	movs	r3, #0
 8001762:	f10d 0106 	add.w	r1, sp, #6
 8001766:	f8ad 3006 	strh.w	r3, [sp, #6]
 800176a:	f005 fa7f 	bl	8006c6c <ENC_CalcAvrgMecSpeedUnit>
 800176e:	6820      	ldr	r0, [r4, #0]
 8001770:	f005 fe90 	bl	8007494 <PQD_CalcElMotorPower>
 8001774:	4888      	ldr	r0, [pc, #544]	; (8001998 <TSK_MediumFrequencyTaskM1+0x240>)
 8001776:	f007 f819 	bl	80087ac <STM_GetState>
 800177a:	2812      	cmp	r0, #18
 800177c:	d818      	bhi.n	80017b0 <TSK_MediumFrequencyTaskM1+0x58>
 800177e:	e8df f010 	tbh	[pc, r0, lsl #1]
 8001782:	002a      	.short	0x002a
 8001784:	00440038 	.word	0x00440038
 8001788:	00620053 	.word	0x00620053
 800178c:	00790067 	.word	0x00790067
 8001790:	00930080 	.word	0x00930080
 8001794:	00170013 	.word	0x00170013
 8001798:	00170017 	.word	0x00170017
 800179c:	00ac009d 	.word	0x00ac009d
 80017a0:	00cd00b9 	.word	0x00cd00b9
 80017a4:	001900dc 	.word	0x001900dc
 80017a8:	487b      	ldr	r0, [pc, #492]	; (8001998 <TSK_MediumFrequencyTaskM1+0x240>)
 80017aa:	2100      	movs	r1, #0
 80017ac:	f006 ff8a 	bl	80086c4 <STM_NextState>
 80017b0:	b002      	add	sp, #8
 80017b2:	bd10      	pop	{r4, pc}
 80017b4:	4877      	ldr	r0, [pc, #476]	; (8001994 <TSK_MediumFrequencyTaskM1+0x23c>)
 80017b6:	f005 fa27 	bl	8006c08 <ENC_Clear>
 80017ba:	4877      	ldr	r0, [pc, #476]	; (8001998 <TSK_MediumFrequencyTaskM1+0x240>)
 80017bc:	2104      	movs	r1, #4
 80017be:	f006 ff81 	bl	80086c4 <STM_NextState>
 80017c2:	2800      	cmp	r0, #0
 80017c4:	d0f4      	beq.n	80017b0 <TSK_MediumFrequencyTaskM1+0x58>
 80017c6:	2000      	movs	r0, #0
 80017c8:	f7ff fe6e 	bl	80014a8 <FOC_Clear>
 80017cc:	4b73      	ldr	r3, [pc, #460]	; (800199c <TSK_MediumFrequencyTaskM1+0x244>)
 80017ce:	6818      	ldr	r0, [r3, #0]
 80017d0:	f006 f888 	bl	80078e4 <R3_2_SwitchOnPWM>
 80017d4:	e7ec      	b.n	80017b0 <TSK_MediumFrequencyTaskM1+0x58>
 80017d6:	4872      	ldr	r0, [pc, #456]	; (80019a0 <TSK_MediumFrequencyTaskM1+0x248>)
 80017d8:	f005 f9d6 	bl	8006b88 <EAC_GetRestartState>
 80017dc:	2800      	cmp	r0, #0
 80017de:	d0e7      	beq.n	80017b0 <TSK_MediumFrequencyTaskM1+0x58>
 80017e0:	486f      	ldr	r0, [pc, #444]	; (80019a0 <TSK_MediumFrequencyTaskM1+0x248>)
 80017e2:	2100      	movs	r1, #0
 80017e4:	f005 f9ce 	bl	8006b84 <EAC_SetRestartState>
 80017e8:	2103      	movs	r1, #3
 80017ea:	486b      	ldr	r0, [pc, #428]	; (8001998 <TSK_MediumFrequencyTaskM1+0x240>)
 80017ec:	f006 ff6a 	bl	80086c4 <STM_NextState>
 80017f0:	e7de      	b.n	80017b0 <TSK_MediumFrequencyTaskM1+0x58>
 80017f2:	4b6a      	ldr	r3, [pc, #424]	; (800199c <TSK_MediumFrequencyTaskM1+0x244>)
 80017f4:	6818      	ldr	r0, [r3, #0]
 80017f6:	f006 f84d 	bl	8007894 <R3_2_TurnOnLowSides>
 80017fa:	2014      	movs	r0, #20
 80017fc:	f7ff ff8c 	bl	8001718 <TSK_SetChargeBootCapDelayM1>
 8001800:	210d      	movs	r1, #13
 8001802:	4865      	ldr	r0, [pc, #404]	; (8001998 <TSK_MediumFrequencyTaskM1+0x240>)
 8001804:	f006 ff5e 	bl	80086c4 <STM_NextState>
 8001808:	e7d2      	b.n	80017b0 <TSK_MediumFrequencyTaskM1+0x58>
 800180a:	4865      	ldr	r0, [pc, #404]	; (80019a0 <TSK_MediumFrequencyTaskM1+0x248>)
 800180c:	f005 f9a0 	bl	8006b50 <EAC_Exec>
 8001810:	4604      	mov	r4, r0
 8001812:	2800      	cmp	r0, #0
 8001814:	f040 80aa 	bne.w	800196c <TSK_MediumFrequencyTaskM1+0x214>
 8001818:	4b62      	ldr	r3, [pc, #392]	; (80019a4 <TSK_MediumFrequencyTaskM1+0x24c>)
 800181a:	6818      	ldr	r0, [r3, #0]
 800181c:	f006 fee2 	bl	80085e4 <STC_CalcTorqueReference>
 8001820:	4b61      	ldr	r3, [pc, #388]	; (80019a8 <TSK_MediumFrequencyTaskM1+0x250>)
 8001822:	8258      	strh	r0, [r3, #18]
 8001824:	821c      	strh	r4, [r3, #16]
 8001826:	e7c3      	b.n	80017b0 <TSK_MediumFrequencyTaskM1+0x58>
 8001828:	485d      	ldr	r0, [pc, #372]	; (80019a0 <TSK_MediumFrequencyTaskM1+0x248>)
 800182a:	f005 f9a9 	bl	8006b80 <EAC_IsAligned>
 800182e:	2800      	cmp	r0, #0
 8001830:	f040 8090 	bne.w	8001954 <TSK_MediumFrequencyTaskM1+0x1fc>
 8001834:	485a      	ldr	r0, [pc, #360]	; (80019a0 <TSK_MediumFrequencyTaskM1+0x248>)
 8001836:	2101      	movs	r1, #1
 8001838:	f005 f9a4 	bl	8006b84 <EAC_SetRestartState>
 800183c:	2101      	movs	r1, #1
 800183e:	4856      	ldr	r0, [pc, #344]	; (8001998 <TSK_MediumFrequencyTaskM1+0x240>)
 8001840:	f006 ff40 	bl	80086c4 <STM_NextState>
 8001844:	e7b4      	b.n	80017b0 <TSK_MediumFrequencyTaskM1+0x58>
 8001846:	2105      	movs	r1, #5
 8001848:	4853      	ldr	r0, [pc, #332]	; (8001998 <TSK_MediumFrequencyTaskM1+0x240>)
 800184a:	f006 ff3b 	bl	80086c4 <STM_NextState>
 800184e:	e7af      	b.n	80017b0 <TSK_MediumFrequencyTaskM1+0x58>
 8001850:	2000      	movs	r0, #0
 8001852:	f7ff ff31 	bl	80016b8 <FOC_InitAdditionalMethods>
 8001856:	2000      	movs	r0, #0
 8001858:	f7ff ff38 	bl	80016cc <FOC_CalcCurrRef>
 800185c:	2106      	movs	r1, #6
 800185e:	484e      	ldr	r0, [pc, #312]	; (8001998 <TSK_MediumFrequencyTaskM1+0x240>)
 8001860:	f006 ff30 	bl	80086c4 <STM_NextState>
 8001864:	4b4f      	ldr	r3, [pc, #316]	; (80019a4 <TSK_MediumFrequencyTaskM1+0x24c>)
 8001866:	6818      	ldr	r0, [r3, #0]
 8001868:	f006 ff00 	bl	800866c <STC_ForceSpeedReferenceToCurrentSpeed>
 800186c:	484f      	ldr	r0, [pc, #316]	; (80019ac <TSK_MediumFrequencyTaskM1+0x254>)
 800186e:	f7ff fca9 	bl	80011c4 <MCI_ExecBufferedCommands>
 8001872:	e79d      	b.n	80017b0 <TSK_MediumFrequencyTaskM1+0x58>
 8001874:	484d      	ldr	r0, [pc, #308]	; (80019ac <TSK_MediumFrequencyTaskM1+0x254>)
 8001876:	f7ff fca5 	bl	80011c4 <MCI_ExecBufferedCommands>
 800187a:	2000      	movs	r0, #0
 800187c:	f7ff ff26 	bl	80016cc <FOC_CalcCurrRef>
 8001880:	e796      	b.n	80017b0 <TSK_MediumFrequencyTaskM1+0x58>
 8001882:	4b46      	ldr	r3, [pc, #280]	; (800199c <TSK_MediumFrequencyTaskM1+0x244>)
 8001884:	6818      	ldr	r0, [r3, #0]
 8001886:	f006 f879 	bl	800797c <R3_2_SwitchOffPWM>
 800188a:	2000      	movs	r0, #0
 800188c:	f7ff fe0c 	bl	80014a8 <FOC_Clear>
 8001890:	6820      	ldr	r0, [r4, #0]
 8001892:	f005 fceb 	bl	800726c <MPM_Clear>
 8001896:	f44f 7048 	mov.w	r0, #800	; 0x320
 800189a:	f7ff ff4d 	bl	8001738 <TSK_SetStopPermanencyTimeM1>
 800189e:	2108      	movs	r1, #8
 80018a0:	483d      	ldr	r0, [pc, #244]	; (8001998 <TSK_MediumFrequencyTaskM1+0x240>)
 80018a2:	f006 ff0f 	bl	80086c4 <STM_NextState>
 80018a6:	e783      	b.n	80017b0 <TSK_MediumFrequencyTaskM1+0x58>
 80018a8:	f7ff ff4c 	bl	8001744 <TSK_StopPermanencyTimeHasElapsedM1>
 80018ac:	2800      	cmp	r0, #0
 80018ae:	f43f af7f 	beq.w	80017b0 <TSK_MediumFrequencyTaskM1+0x58>
 80018b2:	2109      	movs	r1, #9
 80018b4:	4838      	ldr	r0, [pc, #224]	; (8001998 <TSK_MediumFrequencyTaskM1+0x240>)
 80018b6:	f006 ff05 	bl	80086c4 <STM_NextState>
 80018ba:	e779      	b.n	80017b0 <TSK_MediumFrequencyTaskM1+0x58>
 80018bc:	f7ff ff32 	bl	8001724 <TSK_ChargeBootCapDelayHasElapsedM1>
 80018c0:	2800      	cmp	r0, #0
 80018c2:	f43f af75 	beq.w	80017b0 <TSK_MediumFrequencyTaskM1+0x58>
 80018c6:	4b35      	ldr	r3, [pc, #212]	; (800199c <TSK_MediumFrequencyTaskM1+0x244>)
 80018c8:	2100      	movs	r1, #0
 80018ca:	6818      	ldr	r0, [r3, #0]
 80018cc:	f000 fc28 	bl	8002120 <PWMC_CurrentReadingCalibr>
 80018d0:	210e      	movs	r1, #14
 80018d2:	4831      	ldr	r0, [pc, #196]	; (8001998 <TSK_MediumFrequencyTaskM1+0x240>)
 80018d4:	f006 fef6 	bl	80086c4 <STM_NextState>
 80018d8:	e76a      	b.n	80017b0 <TSK_MediumFrequencyTaskM1+0x58>
 80018da:	4b30      	ldr	r3, [pc, #192]	; (800199c <TSK_MediumFrequencyTaskM1+0x244>)
 80018dc:	2101      	movs	r1, #1
 80018de:	6818      	ldr	r0, [r3, #0]
 80018e0:	f000 fc1e 	bl	8002120 <PWMC_CurrentReadingCalibr>
 80018e4:	2800      	cmp	r0, #0
 80018e6:	f43f af63 	beq.w	80017b0 <TSK_MediumFrequencyTaskM1+0x58>
 80018ea:	210f      	movs	r1, #15
 80018ec:	482a      	ldr	r0, [pc, #168]	; (8001998 <TSK_MediumFrequencyTaskM1+0x240>)
 80018ee:	f006 fee9 	bl	80086c4 <STM_NextState>
 80018f2:	e75d      	b.n	80017b0 <TSK_MediumFrequencyTaskM1+0x58>
 80018f4:	4a2b      	ldr	r2, [pc, #172]	; (80019a4 <TSK_MediumFrequencyTaskM1+0x24c>)
 80018f6:	4b2c      	ldr	r3, [pc, #176]	; (80019a8 <TSK_MediumFrequencyTaskM1+0x250>)
 80018f8:	6810      	ldr	r0, [r2, #0]
 80018fa:	492d      	ldr	r1, [pc, #180]	; (80019b0 <TSK_MediumFrequencyTaskM1+0x258>)
 80018fc:	2201      	movs	r2, #1
 80018fe:	f883 2024 	strb.w	r2, [r3, #36]	; 0x24
 8001902:	f006 fe03 	bl	800850c <STC_SetSpeedSensor>
 8001906:	4826      	ldr	r0, [pc, #152]	; (80019a0 <TSK_MediumFrequencyTaskM1+0x248>)
 8001908:	f005 f8fa 	bl	8006b00 <EAC_StartAlignment>
 800190c:	4822      	ldr	r0, [pc, #136]	; (8001998 <TSK_MediumFrequencyTaskM1+0x240>)
 800190e:	2102      	movs	r1, #2
 8001910:	f006 fed8 	bl	80086c4 <STM_NextState>
 8001914:	2800      	cmp	r0, #0
 8001916:	f43f af4b 	beq.w	80017b0 <TSK_MediumFrequencyTaskM1+0x58>
 800191a:	e754      	b.n	80017c6 <TSK_MediumFrequencyTaskM1+0x6e>
 800191c:	f7ff ff02 	bl	8001724 <TSK_ChargeBootCapDelayHasElapsedM1>
 8001920:	2800      	cmp	r0, #0
 8001922:	f43f af45 	beq.w	80017b0 <TSK_MediumFrequencyTaskM1+0x58>
 8001926:	4b1d      	ldr	r3, [pc, #116]	; (800199c <TSK_MediumFrequencyTaskM1+0x244>)
 8001928:	2100      	movs	r1, #0
 800192a:	6818      	ldr	r0, [r3, #0]
 800192c:	f000 fbf8 	bl	8002120 <PWMC_CurrentReadingCalibr>
 8001930:	2111      	movs	r1, #17
 8001932:	4819      	ldr	r0, [pc, #100]	; (8001998 <TSK_MediumFrequencyTaskM1+0x240>)
 8001934:	f006 fec6 	bl	80086c4 <STM_NextState>
 8001938:	e73a      	b.n	80017b0 <TSK_MediumFrequencyTaskM1+0x58>
 800193a:	4b18      	ldr	r3, [pc, #96]	; (800199c <TSK_MediumFrequencyTaskM1+0x244>)
 800193c:	2101      	movs	r1, #1
 800193e:	6818      	ldr	r0, [r3, #0]
 8001940:	f000 fbee 	bl	8002120 <PWMC_CurrentReadingCalibr>
 8001944:	2800      	cmp	r0, #0
 8001946:	f43f af33 	beq.w	80017b0 <TSK_MediumFrequencyTaskM1+0x58>
 800194a:	2112      	movs	r1, #18
 800194c:	4812      	ldr	r0, [pc, #72]	; (8001998 <TSK_MediumFrequencyTaskM1+0x240>)
 800194e:	f006 feb9 	bl	80086c4 <STM_NextState>
 8001952:	e72d      	b.n	80017b0 <TSK_MediumFrequencyTaskM1+0x58>
 8001954:	4b11      	ldr	r3, [pc, #68]	; (800199c <TSK_MediumFrequencyTaskM1+0x244>)
 8001956:	6818      	ldr	r0, [r3, #0]
 8001958:	f005 ff9c 	bl	8007894 <R3_2_TurnOnLowSides>
 800195c:	2014      	movs	r0, #20
 800195e:	f7ff fedb 	bl	8001718 <TSK_SetChargeBootCapDelayM1>
 8001962:	2110      	movs	r1, #16
 8001964:	480c      	ldr	r0, [pc, #48]	; (8001998 <TSK_MediumFrequencyTaskM1+0x240>)
 8001966:	f006 fead 	bl	80086c4 <STM_NextState>
 800196a:	e721      	b.n	80017b0 <TSK_MediumFrequencyTaskM1+0x58>
 800196c:	4b0b      	ldr	r3, [pc, #44]	; (800199c <TSK_MediumFrequencyTaskM1+0x244>)
 800196e:	4c0d      	ldr	r4, [pc, #52]	; (80019a4 <TSK_MediumFrequencyTaskM1+0x24c>)
 8001970:	6818      	ldr	r0, [r3, #0]
 8001972:	f006 f803 	bl	800797c <R3_2_SwitchOffPWM>
 8001976:	6820      	ldr	r0, [r4, #0]
 8001978:	2101      	movs	r1, #1
 800197a:	f006 fde3 	bl	8008544 <STC_SetControlMode>
 800197e:	6820      	ldr	r0, [r4, #0]
 8001980:	4904      	ldr	r1, [pc, #16]	; (8001994 <TSK_MediumFrequencyTaskM1+0x23c>)
 8001982:	f006 fdc3 	bl	800850c <STC_SetSpeedSensor>
 8001986:	2107      	movs	r1, #7
 8001988:	4803      	ldr	r0, [pc, #12]	; (8001998 <TSK_MediumFrequencyTaskM1+0x240>)
 800198a:	f006 fe9b 	bl	80086c4 <STM_NextState>
 800198e:	e70f      	b.n	80017b0 <TSK_MediumFrequencyTaskM1+0x58>
 8001990:	20000484 	.word	0x20000484
 8001994:	200000dc 	.word	0x200000dc
 8001998:	20000a08 	.word	0x20000a08
 800199c:	20000a20 	.word	0x20000a20
 80019a0:	20000158 	.word	0x20000158
 80019a4:	20000490 	.word	0x20000490
 80019a8:	20000a2c 	.word	0x20000a2c
 80019ac:	200009ec 	.word	0x200009ec
 80019b0:	20000448 	.word	0x20000448

080019b4 <MC_Scheduler>:
 80019b4:	4b1e      	ldr	r3, [pc, #120]	; (8001a30 <MC_Scheduler+0x7c>)
 80019b6:	781b      	ldrb	r3, [r3, #0]
 80019b8:	2b01      	cmp	r3, #1
 80019ba:	d000      	beq.n	80019be <MC_Scheduler+0xa>
 80019bc:	4770      	bx	lr
 80019be:	b570      	push	{r4, r5, r6, lr}
 80019c0:	4c1c      	ldr	r4, [pc, #112]	; (8001a34 <MC_Scheduler+0x80>)
 80019c2:	8823      	ldrh	r3, [r4, #0]
 80019c4:	b29b      	uxth	r3, r3
 80019c6:	b1a3      	cbz	r3, 80019f2 <MC_Scheduler+0x3e>
 80019c8:	8823      	ldrh	r3, [r4, #0]
 80019ca:	3b01      	subs	r3, #1
 80019cc:	b29b      	uxth	r3, r3
 80019ce:	8023      	strh	r3, [r4, #0]
 80019d0:	4a19      	ldr	r2, [pc, #100]	; (8001a38 <MC_Scheduler+0x84>)
 80019d2:	8813      	ldrh	r3, [r2, #0]
 80019d4:	b29b      	uxth	r3, r3
 80019d6:	b11b      	cbz	r3, 80019e0 <MC_Scheduler+0x2c>
 80019d8:	8813      	ldrh	r3, [r2, #0]
 80019da:	3b01      	subs	r3, #1
 80019dc:	b29b      	uxth	r3, r3
 80019de:	8013      	strh	r3, [r2, #0]
 80019e0:	4a16      	ldr	r2, [pc, #88]	; (8001a3c <MC_Scheduler+0x88>)
 80019e2:	8813      	ldrh	r3, [r2, #0]
 80019e4:	b29b      	uxth	r3, r3
 80019e6:	b11b      	cbz	r3, 80019f0 <MC_Scheduler+0x3c>
 80019e8:	8813      	ldrh	r3, [r2, #0]
 80019ea:	3b01      	subs	r3, #1
 80019ec:	b29b      	uxth	r3, r3
 80019ee:	8013      	strh	r3, [r2, #0]
 80019f0:	bd70      	pop	{r4, r5, r6, pc}
 80019f2:	4d13      	ldr	r5, [pc, #76]	; (8001a40 <MC_Scheduler+0x8c>)
 80019f4:	f7ff feb0 	bl	8001758 <TSK_MediumFrequencyTaskM1>
 80019f8:	4629      	mov	r1, r5
 80019fa:	f851 0b0c 	ldr.w	r0, [r1], #12
 80019fe:	6883      	ldr	r3, [r0, #8]
 8001a00:	4798      	blx	r3
 8001a02:	6068      	str	r0, [r5, #4]
 8001a04:	b130      	cbz	r0, 8001a14 <MC_Scheduler+0x60>
 8001a06:	4629      	mov	r1, r5
 8001a08:	220a      	movs	r2, #10
 8001a0a:	f851 0b08 	ldr.w	r0, [r1], #8
 8001a0e:	6803      	ldr	r3, [r0, #0]
 8001a10:	4798      	blx	r3
 8001a12:	b910      	cbnz	r0, 8001a1a <MC_Scheduler+0x66>
 8001a14:	2300      	movs	r3, #0
 8001a16:	8023      	strh	r3, [r4, #0]
 8001a18:	e7da      	b.n	80019d0 <MC_Scheduler+0x1c>
 8001a1a:	4628      	mov	r0, r5
 8001a1c:	f005 fa16 	bl	8006e4c <MCP_ReceivedPacket>
 8001a20:	6828      	ldr	r0, [r5, #0]
 8001a22:	89ea      	ldrh	r2, [r5, #14]
 8001a24:	6846      	ldr	r6, [r0, #4]
 8001a26:	68a9      	ldr	r1, [r5, #8]
 8001a28:	230a      	movs	r3, #10
 8001a2a:	47b0      	blx	r6
 8001a2c:	e7f2      	b.n	8001a14 <MC_Scheduler+0x60>
 8001a2e:	bf00      	nop
 8001a30:	20000660 	.word	0x20000660
 8001a34:	20000664 	.word	0x20000664
 8001a38:	20000662 	.word	0x20000662
 8001a3c:	20000666 	.word	0x20000666
 8001a40:	20000598 	.word	0x20000598

08001a44 <TSK_HighFrequencyTask>:
 8001a44:	e92d 43f0 	stmdb	sp!, {r4, r5, r6, r7, r8, r9, lr}
 8001a48:	483e      	ldr	r0, [pc, #248]	; (8001b44 <TSK_HighFrequencyTask+0x100>)
 8001a4a:	f8df 8120 	ldr.w	r8, [pc, #288]	; 8001b6c <TSK_HighFrequencyTask+0x128>
 8001a4e:	4c3e      	ldr	r4, [pc, #248]	; (8001b48 <TSK_HighFrequencyTask+0x104>)
 8001a50:	4f3e      	ldr	r7, [pc, #248]	; (8001b4c <TSK_HighFrequencyTask+0x108>)
 8001a52:	b087      	sub	sp, #28
 8001a54:	f005 f8ea 	bl	8006c2c <ENC_CalcAngle>
 8001a58:	4b3d      	ldr	r3, [pc, #244]	; (8001b50 <TSK_HighFrequencyTask+0x10c>)
 8001a5a:	6818      	ldr	r0, [r3, #0]
 8001a5c:	f006 fd58 	bl	8008510 <STC_GetSpeedSensor>
 8001a60:	4605      	mov	r5, r0
 8001a62:	f006 fcf9 	bl	8008458 <SPD_GetElAngle>
 8001a66:	a903      	add	r1, sp, #12
 8001a68:	4606      	mov	r6, r0
 8001a6a:	f8d8 0000 	ldr.w	r0, [r8]
 8001a6e:	f000 fa1f 	bl	8001eb0 <PWMC_GetPhaseCurrents>
 8001a72:	f001 fd2b 	bl	80034cc <RCM_ReadOngoingConv>
 8001a76:	f001 fcdf 	bl	8003438 <RCM_ExecNextConv>
 8001a7a:	9803      	ldr	r0, [sp, #12]
 8001a7c:	f7ff fc60 	bl	8001340 <MCM_Clarke>
 8001a80:	4631      	mov	r1, r6
 8001a82:	9004      	str	r0, [sp, #16]
 8001a84:	f7ff fc9e 	bl	80013c4 <MCM_Park>
 8001a88:	4a32      	ldr	r2, [pc, #200]	; (8001b54 <TSK_HighFrequencyTask+0x110>)
 8001a8a:	f9b4 1010 	ldrsh.w	r1, [r4, #16]
 8001a8e:	9001      	str	r0, [sp, #4]
 8001a90:	b203      	sxth	r3, r0
 8001a92:	1ac9      	subs	r1, r1, r3
 8001a94:	6810      	ldr	r0, [r2, #0]
 8001a96:	f005 fcb7 	bl	8007408 <PI_Controller>
 8001a9a:	f9bd 2006 	ldrsh.w	r2, [sp, #6]
 8001a9e:	4b2e      	ldr	r3, [pc, #184]	; (8001b58 <TSK_HighFrequencyTask+0x114>)
 8001aa0:	f9b4 1012 	ldrsh.w	r1, [r4, #18]
 8001aa4:	4681      	mov	r9, r0
 8001aa6:	1a89      	subs	r1, r1, r2
 8001aa8:	6818      	ldr	r0, [r3, #0]
 8001aaa:	f005 fcad 	bl	8007408 <PI_Controller>
 8001aae:	f8ad 9008 	strh.w	r9, [sp, #8]
 8001ab2:	f8ad 000a 	strh.w	r0, [sp, #10]
 8001ab6:	9902      	ldr	r1, [sp, #8]
 8001ab8:	6838      	ldr	r0, [r7, #0]
 8001aba:	f006 ff4d 	bl	8008958 <FF_VqdConditioning>
 8001abe:	4b27      	ldr	r3, [pc, #156]	; (8001b5c <TSK_HighFrequencyTask+0x118>)
 8001ac0:	4601      	mov	r1, r0
 8001ac2:	6818      	ldr	r0, [r3, #0]
 8001ac4:	f004 ffe2 	bl	8006a8c <Circle_Limitation>
 8001ac8:	4603      	mov	r3, r0
 8001aca:	4628      	mov	r0, r5
 8001acc:	fa0f f983 	sxth.w	r9, r3
 8001ad0:	141d      	asrs	r5, r3, #16
 8001ad2:	9302      	str	r3, [sp, #8]
 8001ad4:	f006 fccc 	bl	8008470 <SPD_GetInstElSpeedDpp>
 8001ad8:	4631      	mov	r1, r6
 8001ada:	9802      	ldr	r0, [sp, #8]
 8001adc:	f7ff fcb4 	bl	8001448 <MCM_Rev_Park>
 8001ae0:	4601      	mov	r1, r0
 8001ae2:	f8d8 0000 	ldr.w	r0, [r8]
 8001ae6:	9105      	str	r1, [sp, #20]
 8001ae8:	f000 f9e4 	bl	8001eb4 <PWMC_SetPhaseVoltage>
 8001aec:	4680      	mov	r8, r0
 8001aee:	9803      	ldr	r0, [sp, #12]
 8001af0:	6020      	str	r0, [r4, #0]
 8001af2:	9804      	ldr	r0, [sp, #16]
 8001af4:	6060      	str	r0, [r4, #4]
 8001af6:	9801      	ldr	r0, [sp, #4]
 8001af8:	60e0      	str	r0, [r4, #12]
 8001afa:	9805      	ldr	r0, [sp, #20]
 8001afc:	f8c4 001a 	str.w	r0, [r4, #26]
 8001b00:	6838      	ldr	r0, [r7, #0]
 8001b02:	f8a4 9016 	strh.w	r9, [r4, #22]
 8001b06:	8325      	strh	r5, [r4, #24]
 8001b08:	8426      	strh	r6, [r4, #32]
 8001b0a:	f006 ff4d 	bl	80089a8 <FF_DataProcess>
 8001b0e:	f1b8 0f01 	cmp.w	r8, #1
 8001b12:	d011      	beq.n	8001b38 <TSK_HighFrequencyTask+0xf4>
 8001b14:	4a12      	ldr	r2, [pc, #72]	; (8001b60 <TSK_HighFrequencyTask+0x11c>)
 8001b16:	4813      	ldr	r0, [pc, #76]	; (8001b64 <TSK_HighFrequencyTask+0x120>)
 8001b18:	6813      	ldr	r3, [r2, #0]
 8001b1a:	f890 1088 	ldrb.w	r1, [r0, #136]	; 0x88
 8001b1e:	3301      	adds	r3, #1
 8001b20:	6013      	str	r3, [r2, #0]
 8001b22:	b919      	cbnz	r1, 8001b2c <TSK_HighFrequencyTask+0xe8>
 8001b24:	2000      	movs	r0, #0
 8001b26:	b007      	add	sp, #28
 8001b28:	e8bd 83f0 	ldmia.w	sp!, {r4, r5, r6, r7, r8, r9, pc}
 8001b2c:	f005 fa0a 	bl	8006f44 <MCPA_dataLog>
 8001b30:	2000      	movs	r0, #0
 8001b32:	b007      	add	sp, #28
 8001b34:	e8bd 83f0 	ldmia.w	sp!, {r4, r5, r6, r7, r8, r9, pc}
 8001b38:	4641      	mov	r1, r8
 8001b3a:	2200      	movs	r2, #0
 8001b3c:	480a      	ldr	r0, [pc, #40]	; (8001b68 <TSK_HighFrequencyTask+0x124>)
 8001b3e:	f006 fda3 	bl	8008688 <STM_FaultProcessing>
 8001b42:	e7e7      	b.n	8001b14 <TSK_HighFrequencyTask+0xd0>
 8001b44:	200000dc 	.word	0x200000dc
 8001b48:	20000a2c 	.word	0x20000a2c
 8001b4c:	20000480 	.word	0x20000480
 8001b50:	20000490 	.word	0x20000490
 8001b54:	2000048c 	.word	0x2000048c
 8001b58:	20000488 	.word	0x20000488
 8001b5c:	20000a54 	.word	0x20000a54
 8001b60:	2000066c 	.word	0x2000066c
 8001b64:	2000050c 	.word	0x2000050c
 8001b68:	20000a08 	.word	0x20000a08
 8001b6c:	20000a20 	.word	0x20000a20

08001b70 <TSK_SafetyTask_PWMOFF>:
 8001b70:	b5f8      	push	{r3, r4, r5, r6, r7, lr}
 8001b72:	4b23      	ldr	r3, [pc, #140]	; (8001c00 <TSK_SafetyTask_PWMOFF+0x90>)
 8001b74:	4e23      	ldr	r6, [pc, #140]	; (8001c04 <TSK_SafetyTask_PWMOFF+0x94>)
 8001b76:	4604      	mov	r4, r0
 8001b78:	f853 0020 	ldr.w	r0, [r3, r0, lsl #2]
 8001b7c:	f005 fbcc 	bl	8007318 <NTC_CalcAvTemp>
 8001b80:	4605      	mov	r5, r0
 8001b82:	f856 0024 	ldr.w	r0, [r6, r4, lsl #2]
 8001b86:	f000 faf5 	bl	8002174 <PWMC_CheckOverCurrent>
 8001b8a:	f005 050e 	and.w	r5, r5, #14
 8001b8e:	4328      	orrs	r0, r5
 8001b90:	b285      	uxth	r5, r0
 8001b92:	b36c      	cbz	r4, 8001bf0 <TSK_SafetyTask_PWMOFF+0x80>
 8001b94:	4f1c      	ldr	r7, [pc, #112]	; (8001c08 <TSK_SafetyTask_PWMOFF+0x98>)
 8001b96:	eb04 0344 	add.w	r3, r4, r4, lsl #1
 8001b9a:	eb07 0743 	add.w	r7, r7, r3, lsl #1
 8001b9e:	43ea      	mvns	r2, r5
 8001ba0:	b292      	uxth	r2, r2
 8001ba2:	4629      	mov	r1, r5
 8001ba4:	4638      	mov	r0, r7
 8001ba6:	f006 fd6f 	bl	8008688 <STM_FaultProcessing>
 8001baa:	4638      	mov	r0, r7
 8001bac:	f006 fdfe 	bl	80087ac <STM_GetState>
 8001bb0:	280a      	cmp	r0, #10
 8001bb2:	d002      	beq.n	8001bba <TSK_SafetyTask_PWMOFF+0x4a>
 8001bb4:	280b      	cmp	r0, #11
 8001bb6:	d015      	beq.n	8001be4 <TSK_SafetyTask_PWMOFF+0x74>
 8001bb8:	bdf8      	pop	{r3, r4, r5, r6, r7, pc}
 8001bba:	4b14      	ldr	r3, [pc, #80]	; (8001c0c <TSK_SafetyTask_PWMOFF+0x9c>)
 8001bbc:	f853 0024 	ldr.w	r0, [r3, r4, lsl #2]
 8001bc0:	b110      	cbz	r0, 8001bc8 <TSK_SafetyTask_PWMOFF+0x58>
 8001bc2:	2100      	movs	r1, #0
 8001bc4:	f004 ffde 	bl	8006b84 <EAC_SetRestartState>
 8001bc8:	f856 0024 	ldr.w	r0, [r6, r4, lsl #2]
 8001bcc:	f000 faa6 	bl	800211c <PWMC_SwitchOffPWM>
 8001bd0:	4620      	mov	r0, r4
 8001bd2:	f7ff fc69 	bl	80014a8 <FOC_Clear>
 8001bd6:	4b0e      	ldr	r3, [pc, #56]	; (8001c10 <TSK_SafetyTask_PWMOFF+0xa0>)
 8001bd8:	f853 0024 	ldr.w	r0, [r3, r4, lsl #2]
 8001bdc:	e8bd 40f8 	ldmia.w	sp!, {r3, r4, r5, r6, r7, lr}
 8001be0:	f005 bb44 	b.w	800726c <MPM_Clear>
 8001be4:	f856 0024 	ldr.w	r0, [r6, r4, lsl #2]
 8001be8:	e8bd 40f8 	ldmia.w	sp!, {r3, r4, r5, r6, r7, lr}
 8001bec:	f000 ba96 	b.w	800211c <PWMC_SwitchOffPWM>
 8001bf0:	4808      	ldr	r0, [pc, #32]	; (8001c14 <TSK_SafetyTask_PWMOFF+0xa4>)
 8001bf2:	f006 fbf3 	bl	80083dc <RVBS_CalcAvVbus>
 8001bf6:	f000 000e 	and.w	r0, r0, #14
 8001bfa:	4305      	orrs	r5, r0
 8001bfc:	e7ca      	b.n	8001b94 <TSK_SafetyTask_PWMOFF+0x24>
 8001bfe:	bf00      	nop
 8001c00:	20000494 	.word	0x20000494
 8001c04:	20000a20 	.word	0x20000a20
 8001c08:	20000a08 	.word	0x20000a08
 8001c0c:	20000a24 	.word	0x20000a24
 8001c10:	20000484 	.word	0x20000484
 8001c14:	20000000 	.word	0x20000000

08001c18 <TSK_SafetyTask>:
 8001c18:	b508      	push	{r3, lr}
 8001c1a:	4b06      	ldr	r3, [pc, #24]	; (8001c34 <TSK_SafetyTask+0x1c>)
 8001c1c:	781b      	ldrb	r3, [r3, #0]
 8001c1e:	2b01      	cmp	r3, #1
 8001c20:	d000      	beq.n	8001c24 <TSK_SafetyTask+0xc>
 8001c22:	bd08      	pop	{r3, pc}
 8001c24:	2000      	movs	r0, #0
 8001c26:	f7ff ffa3 	bl	8001b70 <TSK_SafetyTask_PWMOFF>
 8001c2a:	e8bd 4008 	ldmia.w	sp!, {r3, lr}
 8001c2e:	f001 bbcd 	b.w	80033cc <RCM_ExecUserConv>
 8001c32:	bf00      	nop
 8001c34:	20000660 	.word	0x20000660

08001c38 <MC_RunMotorControlTasks>:
 8001c38:	b508      	push	{r3, lr}
 8001c3a:	4b04      	ldr	r3, [pc, #16]	; (8001c4c <MC_RunMotorControlTasks+0x14>)
 8001c3c:	781b      	ldrb	r3, [r3, #0]
 8001c3e:	b903      	cbnz	r3, 8001c42 <MC_RunMotorControlTasks+0xa>
 8001c40:	bd08      	pop	{r3, pc}
 8001c42:	f7ff feb7 	bl	80019b4 <MC_Scheduler>
 8001c46:	f7ff ffe7 	bl	8001c18 <TSK_SafetyTask>
 8001c4a:	bd08      	pop	{r3, pc}
 8001c4c:	20000660 	.word	0x20000660

08001c50 <TSK_HardwareFaultTask>:
 8001c50:	b508      	push	{r3, lr}
 8001c52:	4b05      	ldr	r3, [pc, #20]	; (8001c68 <TSK_HardwareFaultTask+0x18>)
 8001c54:	6818      	ldr	r0, [r3, #0]
 8001c56:	f005 fe91 	bl	800797c <R3_2_SwitchOffPWM>
 8001c5a:	e8bd 4008 	ldmia.w	sp!, {r3, lr}
 8001c5e:	4803      	ldr	r0, [pc, #12]	; (8001c6c <TSK_HardwareFaultTask+0x1c>)
 8001c60:	2200      	movs	r2, #0
 8001c62:	2180      	movs	r1, #128	; 0x80
 8001c64:	f006 bd10 	b.w	8008688 <STM_FaultProcessing>
 8001c68:	20000a20 	.word	0x20000a20
 8001c6c:	20000a08 	.word	0x20000a08

08001c70 <mc_lock_pins>:
 8001c70:	e92d 4ff0 	stmdb	sp!, {r4, r5, r6, r7, r8, r9, sl, fp, lr}
 8001c74:	4a7a      	ldr	r2, [pc, #488]	; (8001e60 <mc_lock_pins+0x1f0>)
 8001c76:	4e7b      	ldr	r6, [pc, #492]	; (8001e64 <mc_lock_pins+0x1f4>)
 8001c78:	61d6      	str	r6, [r2, #28]
 8001c7a:	f04f 0904 	mov.w	r9, #4
 8001c7e:	b099      	sub	sp, #100	; 0x64
 8001c80:	f8c2 901c 	str.w	r9, [r2, #28]
 8001c84:	61d6      	str	r6, [r2, #28]
 8001c86:	69d3      	ldr	r3, [r2, #28]
 8001c88:	9317      	str	r3, [sp, #92]	; 0x5c
 8001c8a:	4d77      	ldr	r5, [pc, #476]	; (8001e68 <mc_lock_pins+0x1f8>)
 8001c8c:	9b17      	ldr	r3, [sp, #92]	; 0x5c
 8001c8e:	61d5      	str	r5, [r2, #28]
 8001c90:	f04f 0e02 	mov.w	lr, #2
 8001c94:	f8c2 e01c 	str.w	lr, [r2, #28]
 8001c98:	61d5      	str	r5, [r2, #28]
 8001c9a:	69d3      	ldr	r3, [r2, #28]
 8001c9c:	9316      	str	r3, [sp, #88]	; 0x58
 8001c9e:	9916      	ldr	r1, [sp, #88]	; 0x58
 8001ca0:	4b72      	ldr	r3, [pc, #456]	; (8001e6c <mc_lock_pins+0x1fc>)
 8001ca2:	61d3      	str	r3, [r2, #28]
 8001ca4:	2110      	movs	r1, #16
 8001ca6:	61d1      	str	r1, [r2, #28]
 8001ca8:	61d3      	str	r3, [r2, #28]
 8001caa:	69d3      	ldr	r3, [r2, #28]
 8001cac:	9315      	str	r3, [sp, #84]	; 0x54
 8001cae:	4c70      	ldr	r4, [pc, #448]	; (8001e70 <mc_lock_pins+0x200>)
 8001cb0:	9b15      	ldr	r3, [sp, #84]	; 0x54
 8001cb2:	61d4      	str	r4, [r2, #28]
 8001cb4:	f44f 7c80 	mov.w	ip, #256	; 0x100
 8001cb8:	f8c2 c01c 	str.w	ip, [r2, #28]
 8001cbc:	61d4      	str	r4, [r2, #28]
 8001cbe:	69d3      	ldr	r3, [r2, #28]
 8001cc0:	9314      	str	r3, [sp, #80]	; 0x50
 8001cc2:	f44f 4180 	mov.w	r1, #16384	; 0x4000
 8001cc6:	f44f 33a0 	mov.w	r3, #81920	; 0x14000
 8001cca:	9814      	ldr	r0, [sp, #80]	; 0x50
 8001ccc:	61d3      	str	r3, [r2, #28]
 8001cce:	61d1      	str	r1, [r2, #28]
 8001cd0:	61d3      	str	r3, [r2, #28]
 8001cd2:	69d3      	ldr	r3, [r2, #28]
 8001cd4:	9313      	str	r3, [sp, #76]	; 0x4c
 8001cd6:	f04f 4390 	mov.w	r3, #1207959552	; 0x48000000
 8001cda:	f04f 1101 	mov.w	r1, #65537	; 0x10001
 8001cde:	f04f 0801 	mov.w	r8, #1
 8001ce2:	9813      	ldr	r0, [sp, #76]	; 0x4c
 8001ce4:	61d9      	str	r1, [r3, #28]
 8001ce6:	f8c3 801c 	str.w	r8, [r3, #28]
 8001cea:	61d9      	str	r1, [r3, #28]
 8001cec:	69d8      	ldr	r0, [r3, #28]
 8001cee:	9012      	str	r0, [sp, #72]	; 0x48
 8001cf0:	f44f 5780 	mov.w	r7, #4096	; 0x1000
 8001cf4:	f44f 3088 	mov.w	r0, #69632	; 0x11000
 8001cf8:	f8dd a048 	ldr.w	sl, [sp, #72]	; 0x48
 8001cfc:	61d0      	str	r0, [r2, #28]
 8001cfe:	61d7      	str	r7, [r2, #28]
 8001d00:	61d0      	str	r0, [r2, #28]
 8001d02:	f8d2 a01c 	ldr.w	sl, [r2, #28]
 8001d06:	f8cd a044 	str.w	sl, [sp, #68]	; 0x44
 8001d0a:	f8dd a044 	ldr.w	sl, [sp, #68]	; 0x44
 8001d0e:	61d1      	str	r1, [r2, #28]
 8001d10:	f8c2 801c 	str.w	r8, [r2, #28]
 8001d14:	61d1      	str	r1, [r2, #28]
 8001d16:	69d1      	ldr	r1, [r2, #28]
 8001d18:	9110      	str	r1, [sp, #64]	; 0x40
 8001d1a:	f8dd 8040 	ldr.w	r8, [sp, #64]	; 0x40
 8001d1e:	4955      	ldr	r1, [pc, #340]	; (8001e74 <mc_lock_pins+0x204>)
 8001d20:	61d9      	str	r1, [r3, #28]
 8001d22:	f04f 0880 	mov.w	r8, #128	; 0x80
 8001d26:	f8c3 801c 	str.w	r8, [r3, #28]
 8001d2a:	61d9      	str	r1, [r3, #28]
 8001d2c:	f8d3 a01c 	ldr.w	sl, [r3, #28]
 8001d30:	f8cd a03c 	str.w	sl, [sp, #60]	; 0x3c
 8001d34:	f8dd a03c 	ldr.w	sl, [sp, #60]	; 0x3c
 8001d38:	61dd      	str	r5, [r3, #28]
 8001d3a:	f8c3 e01c 	str.w	lr, [r3, #28]
 8001d3e:	61dd      	str	r5, [r3, #28]
 8001d40:	69dd      	ldr	r5, [r3, #28]
 8001d42:	950e      	str	r5, [sp, #56]	; 0x38
 8001d44:	f8dd e038 	ldr.w	lr, [sp, #56]	; 0x38
 8001d48:	4d4b      	ldr	r5, [pc, #300]	; (8001e78 <mc_lock_pins+0x208>)
 8001d4a:	61dd      	str	r5, [r3, #28]
 8001d4c:	f04f 0e08 	mov.w	lr, #8
 8001d50:	f8c3 e01c 	str.w	lr, [r3, #28]
 8001d54:	61dd      	str	r5, [r3, #28]
 8001d56:	f8d3 a01c 	ldr.w	sl, [r3, #28]
 8001d5a:	f8cd a034 	str.w	sl, [sp, #52]	; 0x34
 8001d5e:	f8dd a034 	ldr.w	sl, [sp, #52]	; 0x34
 8001d62:	61de      	str	r6, [r3, #28]
 8001d64:	f8c3 901c 	str.w	r9, [r3, #28]
 8001d68:	61de      	str	r6, [r3, #28]
 8001d6a:	69de      	ldr	r6, [r3, #28]
 8001d6c:	960c      	str	r6, [sp, #48]	; 0x30
 8001d6e:	f8dd 9030 	ldr.w	r9, [sp, #48]	; 0x30
 8001d72:	4e42      	ldr	r6, [pc, #264]	; (8001e7c <mc_lock_pins+0x20c>)
 8001d74:	61de      	str	r6, [r3, #28]
 8001d76:	f04f 0940 	mov.w	r9, #64	; 0x40
 8001d7a:	f8c3 901c 	str.w	r9, [r3, #28]
 8001d7e:	61de      	str	r6, [r3, #28]
 8001d80:	f8d3 a01c 	ldr.w	sl, [r3, #28]
 8001d84:	f8cd a02c 	str.w	sl, [sp, #44]	; 0x2c
 8001d88:	f8dd b02c 	ldr.w	fp, [sp, #44]	; 0x2c
 8001d8c:	f8df a0f4 	ldr.w	sl, [pc, #244]	; 8001e84 <mc_lock_pins+0x214>
 8001d90:	f8c3 a01c 	str.w	sl, [r3, #28]
 8001d94:	f04f 0b20 	mov.w	fp, #32
 8001d98:	f8c3 b01c 	str.w	fp, [r3, #28]
 8001d9c:	f8c3 a01c 	str.w	sl, [r3, #28]
 8001da0:	f8d3 a01c 	ldr.w	sl, [r3, #28]
 8001da4:	f8cd a028 	str.w	sl, [sp, #40]	; 0x28
 8001da8:	f8dd a028 	ldr.w	sl, [sp, #40]	; 0x28
 8001dac:	61d6      	str	r6, [r2, #28]
 8001dae:	f8c2 901c 	str.w	r9, [r2, #28]
 8001db2:	61d6      	str	r6, [r2, #28]
 8001db4:	69d6      	ldr	r6, [r2, #28]
 8001db6:	9609      	str	r6, [sp, #36]	; 0x24
 8001db8:	9e09      	ldr	r6, [sp, #36]	; 0x24
 8001dba:	61d1      	str	r1, [r2, #28]
 8001dbc:	f8c2 801c 	str.w	r8, [r2, #28]
 8001dc0:	61d1      	str	r1, [r2, #28]
 8001dc2:	69d1      	ldr	r1, [r2, #28]
 8001dc4:	9108      	str	r1, [sp, #32]
 8001dc6:	f44f 4600 	mov.w	r6, #32768	; 0x8000
 8001dca:	f44f 31c0 	mov.w	r1, #98304	; 0x18000
 8001dce:	f8dd 8020 	ldr.w	r8, [sp, #32]
 8001dd2:	61d9      	str	r1, [r3, #28]
 8001dd4:	61de      	str	r6, [r3, #28]
 8001dd6:	61d9      	str	r1, [r3, #28]
 8001dd8:	f8d3 801c 	ldr.w	r8, [r3, #28]
 8001ddc:	f8cd 801c 	str.w	r8, [sp, #28]
 8001de0:	f8dd 801c 	ldr.w	r8, [sp, #28]
 8001de4:	61d5      	str	r5, [r2, #28]
 8001de6:	f8c2 e01c 	str.w	lr, [r2, #28]
 8001dea:	61d5      	str	r5, [r2, #28]
 8001dec:	69d5      	ldr	r5, [r2, #28]
 8001dee:	9506      	str	r5, [sp, #24]
 8001df0:	9d06      	ldr	r5, [sp, #24]
 8001df2:	61dc      	str	r4, [r3, #28]
 8001df4:	f8c3 c01c 	str.w	ip, [r3, #28]
 8001df8:	61dc      	str	r4, [r3, #28]
 8001dfa:	69dc      	ldr	r4, [r3, #28]
 8001dfc:	9405      	str	r4, [sp, #20]
 8001dfe:	f44f 7500 	mov.w	r5, #512	; 0x200
 8001e02:	f44f 3481 	mov.w	r4, #66048	; 0x10200
 8001e06:	f8dd c014 	ldr.w	ip, [sp, #20]
 8001e0a:	61dc      	str	r4, [r3, #28]
 8001e0c:	61dd      	str	r5, [r3, #28]
 8001e0e:	61dc      	str	r4, [r3, #28]
 8001e10:	69dc      	ldr	r4, [r3, #28]
 8001e12:	9404      	str	r4, [sp, #16]
 8001e14:	f44f 6580 	mov.w	r5, #1024	; 0x400
 8001e18:	f44f 3482 	mov.w	r4, #66560	; 0x10400
 8001e1c:	f8dd c010 	ldr.w	ip, [sp, #16]
 8001e20:	61dc      	str	r4, [r3, #28]
 8001e22:	61dd      	str	r5, [r3, #28]
 8001e24:	61dc      	str	r4, [r3, #28]
 8001e26:	69dc      	ldr	r4, [r3, #28]
 8001e28:	9403      	str	r4, [sp, #12]
 8001e2a:	9c03      	ldr	r4, [sp, #12]
 8001e2c:	61d8      	str	r0, [r3, #28]
 8001e2e:	61df      	str	r7, [r3, #28]
 8001e30:	61d8      	str	r0, [r3, #28]
 8001e32:	69db      	ldr	r3, [r3, #28]
 8001e34:	9302      	str	r3, [sp, #8]
 8001e36:	9b02      	ldr	r3, [sp, #8]
 8001e38:	61d1      	str	r1, [r2, #28]
 8001e3a:	61d6      	str	r6, [r2, #28]
 8001e3c:	61d1      	str	r1, [r2, #28]
 8001e3e:	69d2      	ldr	r2, [r2, #28]
 8001e40:	4b0f      	ldr	r3, [pc, #60]	; (8001e80 <mc_lock_pins+0x210>)
 8001e42:	9201      	str	r2, [sp, #4]
 8001e44:	f44f 5100 	mov.w	r1, #8192	; 0x2000
 8001e48:	f44f 3290 	mov.w	r2, #73728	; 0x12000
 8001e4c:	9801      	ldr	r0, [sp, #4]
 8001e4e:	61da      	str	r2, [r3, #28]
 8001e50:	61d9      	str	r1, [r3, #28]
 8001e52:	61da      	str	r2, [r3, #28]
 8001e54:	69db      	ldr	r3, [r3, #28]
 8001e56:	9300      	str	r3, [sp, #0]
 8001e58:	9b00      	ldr	r3, [sp, #0]
 8001e5a:	b019      	add	sp, #100	; 0x64
 8001e5c:	e8bd 8ff0 	ldmia.w	sp!, {r4, r5, r6, r7, r8, r9, sl, fp, pc}
 8001e60:	48000400 	.word	0x48000400
 8001e64:	00010004 	.word	0x00010004
 8001e68:	00010002 	.word	0x00010002
 8001e6c:	00010010 	.word	0x00010010
 8001e70:	00010100 	.word	0x00010100
 8001e74:	00010080 	.word	0x00010080
 8001e78:	00010008 	.word	0x00010008
 8001e7c:	00010040 	.word	0x00010040
 8001e80:	48000800 	.word	0x48000800
 8001e84:	00010020 	.word	0x00010020

08001e88 <MX_MotorControl_Init>:
 8001e88:	b508      	push	{r3, lr}
 8001e8a:	f003 ff81 	bl	8005d90 <HAL_RCC_GetHCLKFreq>
 8001e8e:	4b06      	ldr	r3, [pc, #24]	; (8001ea8 <MX_MotorControl_Init+0x20>)
 8001e90:	fba3 3000 	umull	r3, r0, r3, r0
 8001e94:	09c0      	lsrs	r0, r0, #7
 8001e96:	f002 ffc5 	bl	8004e24 <HAL_SYSTICK_Config>
 8001e9a:	4804      	ldr	r0, [pc, #16]	; (8001eac <MX_MotorControl_Init+0x24>)
 8001e9c:	f7ff fb50 	bl	8001540 <MCboot>
 8001ea0:	e8bd 4008 	ldmia.w	sp!, {r3, lr}
 8001ea4:	f7ff bee4 	b.w	8001c70 <mc_lock_pins>
 8001ea8:	10624dd3 	.word	0x10624dd3
 8001eac:	20001c78 	.word	0x20001c78

08001eb0 <PWMC_GetPhaseCurrents>:
 8001eb0:	6843      	ldr	r3, [r0, #4]
 8001eb2:	4718      	bx	r3

08001eb4 <PWMC_SetPhaseVoltage>:
 8001eb4:	b470      	push	{r4, r5, r6}
 8001eb6:	f8b0 605c 	ldrh.w	r6, [r0, #92]	; 0x5c
 8001eba:	8f03      	ldrh	r3, [r0, #56]	; 0x38
 8001ebc:	b083      	sub	sp, #12
 8001ebe:	140c      	asrs	r4, r1, #16
 8001ec0:	9101      	str	r1, [sp, #4]
 8001ec2:	fb06 f404 	mul.w	r4, r6, r4
 8001ec6:	b209      	sxth	r1, r1
 8001ec8:	ebc4 74c4 	rsb	r4, r4, r4, lsl #31
 8001ecc:	fb03 f101 	mul.w	r1, r3, r1
 8001ed0:	eb01 0344 	add.w	r3, r1, r4, lsl #1
 8001ed4:	ebc1 0144 	rsb	r1, r1, r4, lsl #1
 8001ed8:	eb03 75d3 	add.w	r5, r3, r3, lsr #31
 8001edc:	eb01 72d1 	add.w	r2, r1, r1, lsr #31
 8001ee0:	f1b3 3fff 	cmp.w	r3, #4294967295
 8001ee4:	ea4f 0444 	mov.w	r4, r4, lsl #1
 8001ee8:	ea4f 0565 	mov.w	r5, r5, asr #1
 8001eec:	ea4f 0262 	mov.w	r2, r2, asr #1
 8001ef0:	db7b      	blt.n	8001fea <PWMC_SetPhaseVoltage+0x136>
 8001ef2:	f1b1 3fff 	cmp.w	r1, #4294967295
 8001ef6:	db50      	blt.n	8001f9a <PWMC_SetPhaseVoltage+0xe6>
 8001ef8:	1aad      	subs	r5, r5, r2
 8001efa:	bf44      	itt	mi
 8001efc:	f505 357f 	addmi.w	r5, r5, #261120	; 0x3fc00
 8001f00:	f205 35ff 	addwmi	r5, r5, #1023	; 0x3ff
 8001f04:	2900      	cmp	r1, #0
 8001f06:	bfbc      	itt	lt
 8001f08:	f501 317f 	addlt.w	r1, r1, #261120	; 0x3fc00
 8001f0c:	f201 31ff 	addwlt	r1, r1, #1023	; 0x3ff
 8001f10:	2b00      	cmp	r3, #0
 8001f12:	bfb8      	it	lt
 8001f14:	f503 337f 	addlt.w	r3, r3, #261120	; 0x3fc00
 8001f18:	ea4f 0296 	mov.w	r2, r6, lsr #2
 8001f1c:	eb02 42a5 	add.w	r2, r2, r5, asr #18
 8001f20:	bfb8      	it	lt
 8001f22:	f203 33ff 	addwlt	r3, r3, #1023	; 0x3ff
 8001f26:	2401      	movs	r4, #1
 8001f28:	eb02 41a1 	add.w	r1, r2, r1, asr #18
 8001f2c:	eba2 43a3 	sub.w	r3, r2, r3, asr #18
 8001f30:	f880 4068 	strb.w	r4, [r0, #104]	; 0x68
 8001f34:	f8a0 3046 	strh.w	r3, [r0, #70]	; 0x46
 8001f38:	f8a0 1042 	strh.w	r1, [r0, #66]	; 0x42
 8001f3c:	f8a0 2044 	strh.w	r2, [r0, #68]	; 0x44
 8001f40:	f8b0 405a 	ldrh.w	r4, [r0, #90]	; 0x5a
 8001f44:	ea22 72e2 	bic.w	r2, r2, r2, asr #31
 8001f48:	ea21 71e1 	bic.w	r1, r1, r1, asr #31
 8001f4c:	ea23 73e3 	bic.w	r3, r3, r3, asr #31
 8001f50:	b292      	uxth	r2, r2
 8001f52:	b289      	uxth	r1, r1
 8001f54:	b29b      	uxth	r3, r3
 8001f56:	2c01      	cmp	r4, #1
 8001f58:	8742      	strh	r2, [r0, #58]	; 0x3a
 8001f5a:	8781      	strh	r1, [r0, #60]	; 0x3c
 8001f5c:	87c3      	strh	r3, [r0, #62]	; 0x3e
 8001f5e:	d118      	bne.n	8001f92 <PWMC_SetPhaseVoltage+0xde>
 8001f60:	f9b0 404c 	ldrsh.w	r4, [r0, #76]	; 0x4c
 8001f64:	f9b0 504e 	ldrsh.w	r5, [r0, #78]	; 0x4e
 8001f68:	2c00      	cmp	r4, #0
 8001f6a:	f8b0 4060 	ldrh.w	r4, [r0, #96]	; 0x60
 8001f6e:	bfcc      	ite	gt
 8001f70:	1912      	addgt	r2, r2, r4
 8001f72:	1b12      	suble	r2, r2, r4
 8001f74:	b292      	uxth	r2, r2
 8001f76:	8742      	strh	r2, [r0, #58]	; 0x3a
 8001f78:	f9b0 2050 	ldrsh.w	r2, [r0, #80]	; 0x50
 8001f7c:	2d00      	cmp	r5, #0
 8001f7e:	bfcc      	ite	gt
 8001f80:	1909      	addgt	r1, r1, r4
 8001f82:	1b09      	suble	r1, r1, r4
 8001f84:	2a00      	cmp	r2, #0
 8001f86:	b289      	uxth	r1, r1
 8001f88:	bfcc      	ite	gt
 8001f8a:	191b      	addgt	r3, r3, r4
 8001f8c:	1b1b      	suble	r3, r3, r4
 8001f8e:	8781      	strh	r1, [r0, #60]	; 0x3c
 8001f90:	87c3      	strh	r3, [r0, #62]	; 0x3e
 8001f92:	6983      	ldr	r3, [r0, #24]
 8001f94:	b003      	add	sp, #12
 8001f96:	bc70      	pop	{r4, r5, r6}
 8001f98:	4718      	bx	r3
 8001f9a:	2c00      	cmp	r4, #0
 8001f9c:	dd4b      	ble.n	8002036 <PWMC_SetPhaseVoltage+0x182>
 8001f9e:	1aa5      	subs	r5, r4, r2
 8001fa0:	bf44      	itt	mi
 8001fa2:	f505 357f 	addmi.w	r5, r5, #261120	; 0x3fc00
 8001fa6:	f205 35ff 	addwmi	r5, r5, #1023	; 0x3ff
 8001faa:	2900      	cmp	r1, #0
 8001fac:	bfb8      	it	lt
 8001fae:	f501 317f 	addlt.w	r1, r1, #261120	; 0x3fc00
 8001fb2:	f04f 0300 	mov.w	r3, #0
 8001fb6:	bfb8      	it	lt
 8001fb8:	f201 31ff 	addwlt	r1, r1, #1023	; 0x3ff
 8001fbc:	f880 3068 	strb.w	r3, [r0, #104]	; 0x68
 8001fc0:	08b2      	lsrs	r2, r6, #2
 8001fc2:	1e23      	subs	r3, r4, #0
 8001fc4:	eb02 42a5 	add.w	r2, r2, r5, asr #18
 8001fc8:	bfb8      	it	lt
 8001fca:	f503 33ff 	addlt.w	r3, r3, #130560	; 0x1fe00
 8001fce:	eb02 41a1 	add.w	r1, r2, r1, asr #18
 8001fd2:	bfb8      	it	lt
 8001fd4:	f203 13ff 	addwlt	r3, r3, #511	; 0x1ff
 8001fd8:	eba1 4363 	sub.w	r3, r1, r3, asr #17
 8001fdc:	f8a0 3046 	strh.w	r3, [r0, #70]	; 0x46
 8001fe0:	f8a0 2042 	strh.w	r2, [r0, #66]	; 0x42
 8001fe4:	f8a0 1044 	strh.w	r1, [r0, #68]	; 0x44
 8001fe8:	e7aa      	b.n	8001f40 <PWMC_SetPhaseVoltage+0x8c>
 8001fea:	f1b1 3fff 	cmp.w	r1, #4294967295
 8001fee:	db6f      	blt.n	80020d0 <PWMC_SetPhaseVoltage+0x21c>
 8001ff0:	2c00      	cmp	r4, #0
 8001ff2:	dd47      	ble.n	8002084 <PWMC_SetPhaseVoltage+0x1d0>
 8001ff4:	1b2d      	subs	r5, r5, r4
 8001ff6:	bf48      	it	mi
 8001ff8:	f505 357f 	addmi.w	r5, r5, #261120	; 0x3fc00
 8001ffc:	f04f 0202 	mov.w	r2, #2
 8002000:	bf48      	it	mi
 8002002:	f205 35ff 	addwmi	r5, r5, #1023	; 0x3ff
 8002006:	2b00      	cmp	r3, #0
 8002008:	bfb8      	it	lt
 800200a:	f503 337f 	addlt.w	r3, r3, #261120	; 0x3fc00
 800200e:	f880 2068 	strb.w	r2, [r0, #104]	; 0x68
 8002012:	ea4f 0296 	mov.w	r2, r6, lsr #2
 8002016:	eb02 42a5 	add.w	r2, r2, r5, asr #18
 800201a:	bfb8      	it	lt
 800201c:	f203 33ff 	addwlt	r3, r3, #1023	; 0x3ff
 8002020:	eba2 43a3 	sub.w	r3, r2, r3, asr #18
 8002024:	eb03 4164 	add.w	r1, r3, r4, asr #17
 8002028:	f8a0 1042 	strh.w	r1, [r0, #66]	; 0x42
 800202c:	f8a0 3044 	strh.w	r3, [r0, #68]	; 0x44
 8002030:	f8a0 2046 	strh.w	r2, [r0, #70]	; 0x46
 8002034:	e784      	b.n	8001f40 <PWMC_SetPhaseVoltage+0x8c>
 8002036:	1b2d      	subs	r5, r5, r4
 8002038:	bf44      	itt	mi
 800203a:	f505 357f 	addmi.w	r5, r5, #261120	; 0x3fc00
 800203e:	f205 35ff 	addwmi	r5, r5, #1023	; 0x3ff
 8002042:	2b00      	cmp	r3, #0
 8002044:	bfb8      	it	lt
 8002046:	f503 337f 	addlt.w	r3, r3, #261120	; 0x3fc00
 800204a:	f04f 0205 	mov.w	r2, #5
 800204e:	bfb8      	it	lt
 8002050:	f203 33ff 	addwlt	r3, r3, #1023	; 0x3ff
 8002054:	f880 2068 	strb.w	r2, [r0, #104]	; 0x68
 8002058:	1e21      	subs	r1, r4, #0
 800205a:	ea4f 0296 	mov.w	r2, r6, lsr #2
 800205e:	eb02 42a5 	add.w	r2, r2, r5, asr #18
 8002062:	bfb8      	it	lt
 8002064:	f501 31ff 	addlt.w	r1, r1, #130560	; 0x1fe00
 8002068:	eba2 43a3 	sub.w	r3, r2, r3, asr #18
 800206c:	bfb8      	it	lt
 800206e:	f201 11ff 	addwlt	r1, r1, #511	; 0x1ff
 8002072:	eb03 4161 	add.w	r1, r3, r1, asr #17
 8002076:	f8a0 1046 	strh.w	r1, [r0, #70]	; 0x46
 800207a:	f8a0 2042 	strh.w	r2, [r0, #66]	; 0x42
 800207e:	f8a0 3044 	strh.w	r3, [r0, #68]	; 0x44
 8002082:	e75d      	b.n	8001f40 <PWMC_SetPhaseVoltage+0x8c>
 8002084:	1aa5      	subs	r5, r4, r2
 8002086:	bf44      	itt	mi
 8002088:	f505 357f 	addmi.w	r5, r5, #261120	; 0x3fc00
 800208c:	f205 35ff 	addwmi	r5, r5, #1023	; 0x3ff
 8002090:	2900      	cmp	r1, #0
 8002092:	bfb8      	it	lt
 8002094:	f501 317f 	addlt.w	r1, r1, #261120	; 0x3fc00
 8002098:	f04f 0303 	mov.w	r3, #3
 800209c:	bfb8      	it	lt
 800209e:	f201 31ff 	addwlt	r1, r1, #1023	; 0x3ff
 80020a2:	f880 3068 	strb.w	r3, [r0, #104]	; 0x68
 80020a6:	08b2      	lsrs	r2, r6, #2
 80020a8:	1e23      	subs	r3, r4, #0
 80020aa:	eb02 42a5 	add.w	r2, r2, r5, asr #18
 80020ae:	bfb8      	it	lt
 80020b0:	f503 33ff 	addlt.w	r3, r3, #130560	; 0x1fe00
 80020b4:	eb02 41a1 	add.w	r1, r2, r1, asr #18
 80020b8:	bfb8      	it	lt
 80020ba:	f203 13ff 	addwlt	r3, r3, #511	; 0x1ff
 80020be:	eba1 4363 	sub.w	r3, r1, r3, asr #17
 80020c2:	f8a0 3042 	strh.w	r3, [r0, #66]	; 0x42
 80020c6:	f8a0 1044 	strh.w	r1, [r0, #68]	; 0x44
 80020ca:	f8a0 2046 	strh.w	r2, [r0, #70]	; 0x46
 80020ce:	e737      	b.n	8001f40 <PWMC_SetPhaseVoltage+0x8c>
 80020d0:	1aad      	subs	r5, r5, r2
 80020d2:	bf44      	itt	mi
 80020d4:	f505 357f 	addmi.w	r5, r5, #261120	; 0x3fc00
 80020d8:	f205 35ff 	addwmi	r5, r5, #1023	; 0x3ff
 80020dc:	2900      	cmp	r1, #0
 80020de:	bfbc      	itt	lt
 80020e0:	f501 317f 	addlt.w	r1, r1, #261120	; 0x3fc00
 80020e4:	f201 31ff 	addwlt	r1, r1, #1023	; 0x3ff
 80020e8:	2b00      	cmp	r3, #0
 80020ea:	bfb8      	it	lt
 80020ec:	f503 337f 	addlt.w	r3, r3, #261120	; 0x3fc00
 80020f0:	ea4f 0296 	mov.w	r2, r6, lsr #2
 80020f4:	eb02 42a5 	add.w	r2, r2, r5, asr #18
 80020f8:	bfb8      	it	lt
 80020fa:	f203 33ff 	addwlt	r3, r3, #1023	; 0x3ff
 80020fe:	2404      	movs	r4, #4
 8002100:	eb02 41a1 	add.w	r1, r2, r1, asr #18
 8002104:	eba2 43a3 	sub.w	r3, r2, r3, asr #18
 8002108:	f880 4068 	strb.w	r4, [r0, #104]	; 0x68
 800210c:	f8a0 3042 	strh.w	r3, [r0, #66]	; 0x42
 8002110:	f8a0 2044 	strh.w	r2, [r0, #68]	; 0x44
 8002114:	f8a0 1046 	strh.w	r1, [r0, #70]	; 0x46
 8002118:	e712      	b.n	8001f40 <PWMC_SetPhaseVoltage+0x8c>
 800211a:	bf00      	nop

0800211c <PWMC_SwitchOffPWM>:
 800211c:	6883      	ldr	r3, [r0, #8]
 800211e:	4718      	bx	r3

08002120 <PWMC_CurrentReadingCalibr>:
 8002120:	b510      	push	{r4, lr}
 8002122:	4604      	mov	r4, r0
 8002124:	b082      	sub	sp, #8
 8002126:	b199      	cbz	r1, 8002150 <PWMC_CurrentReadingCalibr+0x30>
 8002128:	2901      	cmp	r1, #1
 800212a:	d002      	beq.n	8002132 <PWMC_CurrentReadingCalibr+0x12>
 800212c:	2000      	movs	r0, #0
 800212e:	b002      	add	sp, #8
 8002130:	bd10      	pop	{r4, pc}
 8002132:	f8b0 304a 	ldrh.w	r3, [r0, #74]	; 0x4a
 8002136:	b1cb      	cbz	r3, 800216c <PWMC_CurrentReadingCalibr+0x4c>
 8002138:	3b01      	subs	r3, #1
 800213a:	b29b      	uxth	r3, r3
 800213c:	9101      	str	r1, [sp, #4]
 800213e:	f8a0 304a 	strh.w	r3, [r0, #74]	; 0x4a
 8002142:	2b00      	cmp	r3, #0
 8002144:	d1f2      	bne.n	800212c <PWMC_CurrentReadingCalibr+0xc>
 8002146:	6903      	ldr	r3, [r0, #16]
 8002148:	4798      	blx	r3
 800214a:	9901      	ldr	r1, [sp, #4]
 800214c:	4608      	mov	r0, r1
 800214e:	e7ee      	b.n	800212e <PWMC_CurrentReadingCalibr+0xe>
 8002150:	f7ff ffe4 	bl	800211c <PWMC_SwitchOffPWM>
 8002154:	f8b4 305e 	ldrh.w	r3, [r4, #94]	; 0x5e
 8002158:	f8a4 304a 	strh.w	r3, [r4, #74]	; 0x4a
 800215c:	2b00      	cmp	r3, #0
 800215e:	d1e5      	bne.n	800212c <PWMC_CurrentReadingCalibr+0xc>
 8002160:	4620      	mov	r0, r4
 8002162:	6923      	ldr	r3, [r4, #16]
 8002164:	4798      	blx	r3
 8002166:	2001      	movs	r0, #1
 8002168:	b002      	add	sp, #8
 800216a:	bd10      	pop	{r4, pc}
 800216c:	4608      	mov	r0, r1
 800216e:	b002      	add	sp, #8
 8002170:	bd10      	pop	{r4, pc}
 8002172:	bf00      	nop

08002174 <PWMC_CheckOverCurrent>:
 8002174:	69c3      	ldr	r3, [r0, #28]
 8002176:	4718      	bx	r3

08002178 <RI_SetRegCommandParser>:
 8002178:	e92d 4ff0 	stmdb	sp!, {r4, r5, r6, r7, r8, r9, sl, fp, lr}
 800217c:	8985      	ldrh	r5, [r0, #12]
 800217e:	f8d0 b008 	ldr.w	fp, [r0, #8]
 8002182:	e9d0 2400 	ldrd	r2, r4, [r0]
 8002186:	3d02      	subs	r5, #2
 8002188:	2300      	movs	r3, #0
 800218a:	b087      	sub	sp, #28
 800218c:	b22d      	sxth	r5, r5
 800218e:	8992      	ldrh	r2, [r2, #12]
 8002190:	9201      	str	r2, [sp, #4]
 8002192:	429d      	cmp	r5, r3
 8002194:	4682      	mov	sl, r0
 8002196:	81c3      	strh	r3, [r0, #14]
 8002198:	f340 80f5 	ble.w	8002386 <RI_SetRegCommandParser+0x20e>
 800219c:	9302      	str	r3, [sp, #8]
 800219e:	f1cb 0201 	rsb	r2, fp, #1
 80021a2:	4bb3      	ldr	r3, [pc, #716]	; (8002470 <RI_SetRegCommandParser+0x2f8>)
 80021a4:	9200      	str	r2, [sp, #0]
 80021a6:	3402      	adds	r4, #2
 80021a8:	46d9      	mov	r9, fp
 80021aa:	462f      	mov	r7, r5
 80021ac:	46a0      	mov	r8, r4
 80021ae:	b2bf      	uxth	r7, r7
 80021b0:	f838 0b02 	ldrh.w	r0, [r8], #2
 80021b4:	f000 0c07 	and.w	ip, r0, #7
 80021b8:	f10c 3cff 	add.w	ip, ip, #4294967295
 80021bc:	fa5f f68c 	uxtb.w	r6, ip
 80021c0:	f000 0138 	and.w	r1, r0, #56	; 0x38
 80021c4:	ebc6 06c6 	rsb	r6, r6, r6, lsl #3
 80021c8:	f020 0207 	bic.w	r2, r0, #7
 80021cc:	1ebd      	subs	r5, r7, #2
 80021ce:	3908      	subs	r1, #8
 80021d0:	eb03 0686 	add.w	r6, r3, r6, lsl #2
 80021d4:	fa5f fc8c 	uxtb.w	ip, ip
 80021d8:	b292      	uxth	r2, r2
 80021da:	b2ad      	uxth	r5, r5
 80021dc:	2920      	cmp	r1, #32
 80021de:	d812      	bhi.n	8002206 <RI_SetRegCommandParser+0x8e>
 80021e0:	e8df f001 	tbb	[pc, r1]
 80021e4:	1111119f 	.word	0x1111119f
 80021e8:	11111111 	.word	0x11111111
 80021ec:	11111179 	.word	0x11111179
 80021f0:	11111111 	.word	0x11111111
 80021f4:	1111115e 	.word	0x1111115e
 80021f8:	11111111 	.word	0x11111111
 80021fc:	111111ab 	.word	0x111111ab
 8002200:	11111111 	.word	0x11111111
 8002204:	30          	.byte	0x30
 8002205:	00          	.byte	0x00
 8002206:	2207      	movs	r2, #7
 8002208:	9900      	ldr	r1, [sp, #0]
 800220a:	4449      	add	r1, r9
 800220c:	b2c9      	uxtb	r1, r1
 800220e:	2901      	cmp	r1, #1
 8002210:	b22f      	sxth	r7, r5
 8002212:	f000 80b3 	beq.w	800237c <RI_SetRegCommandParser+0x204>
 8002216:	9901      	ldr	r1, [sp, #4]
 8002218:	4459      	add	r1, fp
 800221a:	3901      	subs	r1, #1
 800221c:	eba1 0109 	sub.w	r1, r1, r9
 8002220:	0409      	lsls	r1, r1, #16
 8002222:	f100 80a6 	bmi.w	8002372 <RI_SetRegCommandParser+0x1fa>
 8002226:	f809 2b01 	strb.w	r2, [r9], #1
 800222a:	f8ba 100e 	ldrh.w	r1, [sl, #14]
 800222e:	3101      	adds	r1, #1
 8002230:	f8aa 100e 	strh.w	r1, [sl, #14]
 8002234:	2a00      	cmp	r2, #0
 8002236:	f040 80ad 	bne.w	8002394 <RI_SetRegCommandParser+0x21c>
 800223a:	2f00      	cmp	r7, #0
 800223c:	f340 8296 	ble.w	800276c <RI_SetRegCommandParser+0x5f4>
 8002240:	4644      	mov	r4, r8
 8002242:	e7b3      	b.n	80021ac <RI_SetRegCommandParser+0x34>
 8002244:	8867      	ldrh	r7, [r4, #2]
 8002246:	3702      	adds	r7, #2
 8002248:	b2bf      	uxth	r7, r7
 800224a:	42bd      	cmp	r5, r7
 800224c:	f0c0 81cf 	bcc.w	80025ee <RI_SetRegCommandParser+0x476>
 8002250:	f5b2 7fd4 	cmp.w	r2, #424	; 0x1a8
 8002254:	f000 820c 	beq.w	8002670 <RI_SetRegCommandParser+0x4f8>
 8002258:	d910      	bls.n	800227c <RI_SetRegCommandParser+0x104>
 800225a:	f5b2 7f5a 	cmp.w	r2, #872	; 0x368
 800225e:	f000 8213 	beq.w	8002688 <RI_SetRegCommandParser+0x510>
 8002262:	f5b2 6fa5 	cmp.w	r2, #1320	; 0x528
 8002266:	d10e      	bne.n	8002286 <RI_SetRegCommandParser+0x10e>
 8002268:	4882      	ldr	r0, [pc, #520]	; (8002474 <RI_SetRegCommandParser+0x2fc>)
 800226a:	1d21      	adds	r1, r4, #4
 800226c:	f004 ff8c 	bl	8007188 <MCPA_cfgLog>
 8002270:	1bed      	subs	r5, r5, r7
 8002272:	4b7f      	ldr	r3, [pc, #508]	; (8002470 <RI_SetRegCommandParser+0x2f8>)
 8002274:	44b8      	add	r8, r7
 8002276:	4602      	mov	r2, r0
 8002278:	b2ad      	uxth	r5, r5
 800227a:	e7c5      	b.n	8002208 <RI_SetRegCommandParser+0x90>
 800227c:	f5b2 7fb4 	cmp.w	r2, #360	; 0x168
 8002280:	f000 820d 	beq.w	800269e <RI_SetRegCommandParser+0x526>
 8002284:	d904      	bls.n	8002290 <RI_SetRegCommandParser+0x118>
 8002286:	1bed      	subs	r5, r5, r7
 8002288:	b2ad      	uxth	r5, r5
 800228a:	44b8      	add	r8, r7
 800228c:	2205      	movs	r2, #5
 800228e:	e7bb      	b.n	8002208 <RI_SetRegCommandParser+0x90>
 8002290:	2aa8      	cmp	r2, #168	; 0xa8
 8002292:	f040 8195 	bne.w	80025c0 <RI_SetRegCommandParser+0x448>
 8002296:	1bed      	subs	r5, r5, r7
 8002298:	b2ad      	uxth	r5, r5
 800229a:	44b8      	add	r8, r7
 800229c:	2204      	movs	r2, #4
 800229e:	e7b3      	b.n	8002208 <RI_SetRegCommandParser+0x90>
 80022a0:	f5b2 7fec 	cmp.w	r2, #472	; 0x1d8
 80022a4:	f8d4 1002 	ldr.w	r1, [r4, #2]
 80022a8:	f000 81c8 	beq.w	800263c <RI_SetRegCommandParser+0x4c4>
 80022ac:	f200 80aa 	bhi.w	8002404 <RI_SetRegCommandParser+0x28c>
 80022b0:	2a98      	cmp	r2, #152	; 0x98
 80022b2:	f000 81a8 	beq.w	8002606 <RI_SetRegCommandParser+0x48e>
 80022b6:	f240 80d0 	bls.w	800245a <RI_SetRegCommandParser+0x2e2>
 80022ba:	f5b2 7fac 	cmp.w	r2, #344	; 0x158
 80022be:	d004      	beq.n	80022ca <RI_SetRegCommandParser+0x152>
 80022c0:	d970      	bls.n	80023a4 <RI_SetRegCommandParser+0x22c>
 80022c2:	f5b2 7fcc 	cmp.w	r2, #408	; 0x198
 80022c6:	f040 80cd 	bne.w	8002464 <RI_SetRegCommandParser+0x2ec>
 80022ca:	1fbd      	subs	r5, r7, #6
 80022cc:	b2ad      	uxth	r5, r5
 80022ce:	f104 0806 	add.w	r8, r4, #6
 80022d2:	2204      	movs	r2, #4
 80022d4:	e798      	b.n	8002208 <RI_SetRegCommandParser+0x90>
 80022d6:	f5b2 6f19 	cmp.w	r2, #2448	; 0x990
 80022da:	8861      	ldrh	r1, [r4, #2]
 80022dc:	f000 8239 	beq.w	8002752 <RI_SetRegCommandParser+0x5da>
 80022e0:	f200 80a1 	bhi.w	8002426 <RI_SetRegCommandParser+0x2ae>
 80022e4:	f5b2 7f24 	cmp.w	r2, #656	; 0x290
 80022e8:	f000 81f8 	beq.w	80026dc <RI_SetRegCommandParser+0x564>
 80022ec:	d86e      	bhi.n	80023cc <RI_SetRegCommandParser+0x254>
 80022ee:	f5b2 7fc8 	cmp.w	r2, #400	; 0x190
 80022f2:	f000 81fa 	beq.w	80026ea <RI_SetRegCommandParser+0x572>
 80022f6:	d95b      	bls.n	80023b0 <RI_SetRegCommandParser+0x238>
 80022f8:	f5b2 7fe8 	cmp.w	r2, #464	; 0x1d0
 80022fc:	f000 821b 	beq.w	8002736 <RI_SetRegCommandParser+0x5be>
 8002300:	f5b2 7f04 	cmp.w	r2, #528	; 0x210
 8002304:	f040 8121 	bne.w	800254a <RI_SetRegCommandParser+0x3d2>
 8002308:	4a5b      	ldr	r2, [pc, #364]	; (8002478 <RI_SetRegCommandParser+0x300>)
 800230a:	b209      	sxth	r1, r1
 800230c:	f852 002c 	ldr.w	r0, [r2, ip, lsl #2]
 8002310:	f005 f86c 	bl	80073ec <PID_SetKD>
 8002314:	1f3d      	subs	r5, r7, #4
 8002316:	4b56      	ldr	r3, [pc, #344]	; (8002470 <RI_SetRegCommandParser+0x2f8>)
 8002318:	f104 0804 	add.w	r8, r4, #4
 800231c:	b2ad      	uxth	r5, r5
 800231e:	2200      	movs	r2, #0
 8002320:	e772      	b.n	8002208 <RI_SetRegCommandParser+0x90>
 8002322:	2a48      	cmp	r2, #72	; 0x48
 8002324:	f000 815d 	beq.w	80025e2 <RI_SetRegCommandParser+0x46a>
 8002328:	2a88      	cmp	r2, #136	; 0x88
 800232a:	f000 8162 	beq.w	80025f2 <RI_SetRegCommandParser+0x47a>
 800232e:	1efd      	subs	r5, r7, #3
 8002330:	b2ad      	uxth	r5, r5
 8002332:	f104 0803 	add.w	r8, r4, #3
 8002336:	2205      	movs	r2, #5
 8002338:	e766      	b.n	8002208 <RI_SetRegCommandParser+0x90>
 800233a:	78a2      	ldrb	r2, [r4, #2]
 800233c:	2a00      	cmp	r2, #0
 800233e:	f000 81c9 	beq.w	80026d4 <RI_SetRegCommandParser+0x55c>
 8002342:	2d01      	cmp	r5, #1
 8002344:	f240 814d 	bls.w	80025e2 <RI_SetRegCommandParser+0x46a>
 8002348:	3403      	adds	r4, #3
 800234a:	2201      	movs	r2, #1
 800234c:	e002      	b.n	8002354 <RI_SetRegCommandParser+0x1dc>
 800234e:	4295      	cmp	r5, r2
 8002350:	f000 813c 	beq.w	80025cc <RI_SetRegCommandParser+0x454>
 8002354:	4621      	mov	r1, r4
 8002356:	f814 0b01 	ldrb.w	r0, [r4], #1
 800235a:	3201      	adds	r2, #1
 800235c:	b292      	uxth	r2, r2
 800235e:	2800      	cmp	r0, #0
 8002360:	d1f5      	bne.n	800234e <RI_SetRegCommandParser+0x1d6>
 8002362:	4610      	mov	r0, r2
 8002364:	1aad      	subs	r5, r5, r2
 8002366:	2200      	movs	r2, #0
 8002368:	700a      	strb	r2, [r1, #0]
 800236a:	b2ad      	uxth	r5, r5
 800236c:	4480      	add	r8, r0
 800236e:	2204      	movs	r2, #4
 8002370:	e74a      	b.n	8002208 <RI_SetRegCommandParser+0x90>
 8002372:	2208      	movs	r2, #8
 8002374:	4610      	mov	r0, r2
 8002376:	b007      	add	sp, #28
 8002378:	e8bd 8ff0 	ldmia.w	sp!, {r4, r5, r6, r7, r8, r9, sl, fp, pc}
 800237c:	2f00      	cmp	r7, #0
 800237e:	f47f af4a 	bne.w	8002216 <RI_SetRegCommandParser+0x9e>
 8002382:	2a00      	cmp	r2, #0
 8002384:	d1f6      	bne.n	8002374 <RI_SetRegCommandParser+0x1fc>
 8002386:	2200      	movs	r2, #0
 8002388:	4610      	mov	r0, r2
 800238a:	f8aa 200e 	strh.w	r2, [sl, #14]
 800238e:	b007      	add	sp, #28
 8002390:	e8bd 8ff0 	ldmia.w	sp!, {r4, r5, r6, r7, r8, r9, sl, fp, pc}
 8002394:	2a07      	cmp	r2, #7
 8002396:	f040 810c 	bne.w	80025b2 <RI_SetRegCommandParser+0x43a>
 800239a:	2201      	movs	r2, #1
 800239c:	4610      	mov	r0, r2
 800239e:	b007      	add	sp, #28
 80023a0:	e8bd 8ff0 	ldmia.w	sp!, {r4, r5, r6, r7, r8, r9, sl, fp, pc}
 80023a4:	2ad8      	cmp	r2, #216	; 0xd8
 80023a6:	d090      	beq.n	80022ca <RI_SetRegCommandParser+0x152>
 80023a8:	f5b2 7f8c 	cmp.w	r2, #280	; 0x118
 80023ac:	d08d      	beq.n	80022ca <RI_SetRegCommandParser+0x152>
 80023ae:	e059      	b.n	8002464 <RI_SetRegCommandParser+0x2ec>
 80023b0:	2ad0      	cmp	r2, #208	; 0xd0
 80023b2:	f000 81a7 	beq.w	8002704 <RI_SetRegCommandParser+0x58c>
 80023b6:	f5b2 7f88 	cmp.w	r2, #272	; 0x110
 80023ba:	f040 808e 	bne.w	80024da <RI_SetRegCommandParser+0x362>
 80023be:	4a2f      	ldr	r2, [pc, #188]	; (800247c <RI_SetRegCommandParser+0x304>)
 80023c0:	b209      	sxth	r1, r1
 80023c2:	f852 002c 	ldr.w	r0, [r2, ip, lsl #2]
 80023c6:	f005 f811 	bl	80073ec <PID_SetKD>
 80023ca:	e7a3      	b.n	8002314 <RI_SetRegCommandParser+0x19c>
 80023cc:	f5b2 6fba 	cmp.w	r2, #1488	; 0x5d0
 80023d0:	d05f      	beq.n	8002492 <RI_SetRegCommandParser+0x31a>
 80023d2:	d964      	bls.n	800249e <RI_SetRegCommandParser+0x326>
 80023d4:	f5b2 6f0d 	cmp.w	r2, #2256	; 0x8d0
 80023d8:	d05b      	beq.n	8002492 <RI_SetRegCommandParser+0x31a>
 80023da:	d953      	bls.n	8002484 <RI_SetRegCommandParser+0x30c>
 80023dc:	f5b2 6f11 	cmp.w	r2, #2320	; 0x910
 80023e0:	d057      	beq.n	8002492 <RI_SetRegCommandParser+0x31a>
 80023e2:	f5b2 6f15 	cmp.w	r2, #2384	; 0x950
 80023e6:	f040 80b0 	bne.w	800254a <RI_SetRegCommandParser+0x3d2>
 80023ea:	4630      	mov	r0, r6
 80023ec:	9103      	str	r1, [sp, #12]
 80023ee:	f7fe ff6f 	bl	80012d0 <MCI_GetIqdref>
 80023f2:	9903      	ldr	r1, [sp, #12]
 80023f4:	9005      	str	r0, [sp, #20]
 80023f6:	f8ad 1014 	strh.w	r1, [sp, #20]
 80023fa:	9905      	ldr	r1, [sp, #20]
 80023fc:	4630      	mov	r0, r6
 80023fe:	f7fe fec1 	bl	8001184 <MCI_SetCurrentReferences>
 8002402:	e787      	b.n	8002314 <RI_SetRegCommandParser+0x19c>
 8002404:	f5b2 7f06 	cmp.w	r2, #536	; 0x218
 8002408:	f000 810e 	beq.w	8002628 <RI_SetRegCommandParser+0x4b0>
 800240c:	f5b2 7f16 	cmp.w	r2, #600	; 0x258
 8002410:	d128      	bne.n	8002464 <RI_SetRegCommandParser+0x2ec>
 8002412:	4a1b      	ldr	r2, [pc, #108]	; (8002480 <RI_SetRegCommandParser+0x308>)
 8002414:	f852 202c 	ldr.w	r2, [r2, ip, lsl #2]
 8002418:	1fbd      	subs	r5, r7, #6
 800241a:	6151      	str	r1, [r2, #20]
 800241c:	b2ad      	uxth	r5, r5
 800241e:	f104 0806 	add.w	r8, r4, #6
 8002422:	2200      	movs	r2, #0
 8002424:	e6f0      	b.n	8002208 <RI_SetRegCommandParser+0x90>
 8002426:	f241 45d0 	movw	r5, #5328	; 0x14d0
 800242a:	42aa      	cmp	r2, r5
 800242c:	d077      	beq.n	800251e <RI_SetRegCommandParser+0x3a6>
 800242e:	d968      	bls.n	8002502 <RI_SetRegCommandParser+0x38a>
 8002430:	f241 50d0 	movw	r0, #5584	; 0x15d0
 8002434:	4282      	cmp	r2, r0
 8002436:	f000 815f 	beq.w	80026f8 <RI_SetRegCommandParser+0x580>
 800243a:	d957      	bls.n	80024ec <RI_SetRegCommandParser+0x374>
 800243c:	f241 6010 	movw	r0, #5648	; 0x1610
 8002440:	4282      	cmp	r2, r0
 8002442:	f000 8172 	beq.w	800272a <RI_SetRegCommandParser+0x5b2>
 8002446:	f241 6050 	movw	r0, #5712	; 0x1650
 800244a:	4282      	cmp	r2, r0
 800244c:	d17d      	bne.n	800254a <RI_SetRegCommandParser+0x3d2>
 800244e:	4a0a      	ldr	r2, [pc, #40]	; (8002478 <RI_SetRegCommandParser+0x300>)
 8002450:	f852 002c 	ldr.w	r0, [r2, ip, lsl #2]
 8002454:	f004 ffd2 	bl	80073fc <PID_SetKDDivisorPOW2>
 8002458:	e75c      	b.n	8002314 <RI_SetRegCommandParser+0x19c>
 800245a:	f020 0047 	bic.w	r0, r0, #71	; 0x47
 800245e:	2818      	cmp	r0, #24
 8002460:	f43f af33 	beq.w	80022ca <RI_SetRegCommandParser+0x152>
 8002464:	1fbd      	subs	r5, r7, #6
 8002466:	b2ad      	uxth	r5, r5
 8002468:	f104 0806 	add.w	r8, r4, #6
 800246c:	2205      	movs	r2, #5
 800246e:	e6cb      	b.n	8002208 <RI_SetRegCommandParser+0x90>
 8002470:	200009ec 	.word	0x200009ec
 8002474:	2000050c 	.word	0x2000050c
 8002478:	2000048c 	.word	0x2000048c
 800247c:	20000630 	.word	0x20000630
 8002480:	20000480 	.word	0x20000480
 8002484:	f5b2 6ffa 	cmp.w	r2, #2000	; 0x7d0
 8002488:	d003      	beq.n	8002492 <RI_SetRegCommandParser+0x31a>
 800248a:	d91f      	bls.n	80024cc <RI_SetRegCommandParser+0x354>
 800248c:	f5b2 6f09 	cmp.w	r2, #2192	; 0x890
 8002490:	d116      	bne.n	80024c0 <RI_SetRegCommandParser+0x348>
 8002492:	1f3d      	subs	r5, r7, #4
 8002494:	b2ad      	uxth	r5, r5
 8002496:	f104 0804 	add.w	r8, r4, #4
 800249a:	2204      	movs	r2, #4
 800249c:	e6b4      	b.n	8002208 <RI_SetRegCommandParser+0x90>
 800249e:	f5b2 7f44 	cmp.w	r2, #784	; 0x310
 80024a2:	f000 814f 	beq.w	8002744 <RI_SetRegCommandParser+0x5cc>
 80024a6:	f5b2 6fb2 	cmp.w	r2, #1424	; 0x590
 80024aa:	d0f2      	beq.n	8002492 <RI_SetRegCommandParser+0x31a>
 80024ac:	f5b2 7f34 	cmp.w	r2, #720	; 0x2d0
 80024b0:	d14b      	bne.n	800254a <RI_SetRegCommandParser+0x3d2>
 80024b2:	4ab1      	ldr	r2, [pc, #708]	; (8002778 <RI_SetRegCommandParser+0x600>)
 80024b4:	b209      	sxth	r1, r1
 80024b6:	f852 002c 	ldr.w	r0, [r2, ip, lsl #2]
 80024ba:	f004 ff69 	bl	8007390 <PID_SetKI>
 80024be:	e729      	b.n	8002314 <RI_SetRegCommandParser+0x19c>
 80024c0:	f020 0047 	bic.w	r0, r0, #71	; 0x47
 80024c4:	f5b0 6f01 	cmp.w	r0, #2064	; 0x810
 80024c8:	d0e3      	beq.n	8002492 <RI_SetRegCommandParser+0x31a>
 80024ca:	e03e      	b.n	800254a <RI_SetRegCommandParser+0x3d2>
 80024cc:	f5b2 6fc2 	cmp.w	r2, #1552	; 0x610
 80024d0:	d0df      	beq.n	8002492 <RI_SetRegCommandParser+0x31a>
 80024d2:	f5b2 6ff2 	cmp.w	r2, #1936	; 0x790
 80024d6:	d0dc      	beq.n	8002492 <RI_SetRegCommandParser+0x31a>
 80024d8:	e037      	b.n	800254a <RI_SetRegCommandParser+0x3d2>
 80024da:	2a90      	cmp	r2, #144	; 0x90
 80024dc:	d135      	bne.n	800254a <RI_SetRegCommandParser+0x3d2>
 80024de:	4aa7      	ldr	r2, [pc, #668]	; (800277c <RI_SetRegCommandParser+0x604>)
 80024e0:	b209      	sxth	r1, r1
 80024e2:	f852 002c 	ldr.w	r0, [r2, ip, lsl #2]
 80024e6:	f004 ff51 	bl	800738c <PID_SetKP>
 80024ea:	e713      	b.n	8002314 <RI_SetRegCommandParser+0x19c>
 80024ec:	f241 5050 	movw	r0, #5456	; 0x1550
 80024f0:	4282      	cmp	r2, r0
 80024f2:	f000 810e 	beq.w	8002712 <RI_SetRegCommandParser+0x59a>
 80024f6:	f241 5090 	movw	r0, #5520	; 0x1590
 80024fa:	4282      	cmp	r2, r0
 80024fc:	d115      	bne.n	800252a <RI_SetRegCommandParser+0x3b2>
 80024fe:	4a9e      	ldr	r2, [pc, #632]	; (8002778 <RI_SetRegCommandParser+0x600>)
 8002500:	e7a6      	b.n	8002450 <RI_SetRegCommandParser+0x2d8>
 8002502:	f5b2 6f7d 	cmp.w	r2, #4048	; 0xfd0
 8002506:	d0c4      	beq.n	8002492 <RI_SetRegCommandParser+0x31a>
 8002508:	d925      	bls.n	8002556 <RI_SetRegCommandParser+0x3de>
 800250a:	f241 4550 	movw	r5, #5200	; 0x1450
 800250e:	42aa      	cmp	r2, r5
 8002510:	f000 8105 	beq.w	800271e <RI_SetRegCommandParser+0x5a6>
 8002514:	d913      	bls.n	800253e <RI_SetRegCommandParser+0x3c6>
 8002516:	f241 4090 	movw	r0, #5264	; 0x1490
 800251a:	4282      	cmp	r2, r0
 800251c:	d115      	bne.n	800254a <RI_SetRegCommandParser+0x3d2>
 800251e:	4a97      	ldr	r2, [pc, #604]	; (800277c <RI_SetRegCommandParser+0x604>)
 8002520:	f852 002c 	ldr.w	r0, [r2, ip, lsl #2]
 8002524:	f004 ff6a 	bl	80073fc <PID_SetKDDivisorPOW2>
 8002528:	e6f4      	b.n	8002314 <RI_SetRegCommandParser+0x19c>
 800252a:	f241 5010 	movw	r0, #5392	; 0x1510
 800252e:	4282      	cmp	r2, r0
 8002530:	d10b      	bne.n	800254a <RI_SetRegCommandParser+0x3d2>
 8002532:	4a91      	ldr	r2, [pc, #580]	; (8002778 <RI_SetRegCommandParser+0x600>)
 8002534:	f852 002c 	ldr.w	r0, [r2, ip, lsl #2]
 8002538:	f004 ff38 	bl	80073ac <PID_SetKPDivisorPOW2>
 800253c:	e6ea      	b.n	8002314 <RI_SetRegCommandParser+0x19c>
 800253e:	f020 0047 	bic.w	r0, r0, #71	; 0x47
 8002542:	f241 0210 	movw	r2, #4112	; 0x1010
 8002546:	4290      	cmp	r0, r2
 8002548:	d0a3      	beq.n	8002492 <RI_SetRegCommandParser+0x31a>
 800254a:	1f3d      	subs	r5, r7, #4
 800254c:	b2ad      	uxth	r5, r5
 800254e:	f104 0804 	add.w	r8, r4, #4
 8002552:	2205      	movs	r2, #5
 8002554:	e658      	b.n	8002208 <RI_SetRegCommandParser+0x90>
 8002556:	f5b2 6f65 	cmp.w	r2, #3664	; 0xe50
 800255a:	d019      	beq.n	8002590 <RI_SetRegCommandParser+0x418>
 800255c:	d90a      	bls.n	8002574 <RI_SetRegCommandParser+0x3fc>
 800255e:	f5b2 6f6d 	cmp.w	r2, #3792	; 0xed0
 8002562:	d096      	beq.n	8002492 <RI_SetRegCommandParser+0x31a>
 8002564:	d911      	bls.n	800258a <RI_SetRegCommandParser+0x412>
 8002566:	f5b2 6f71 	cmp.w	r2, #3856	; 0xf10
 800256a:	d092      	beq.n	8002492 <RI_SetRegCommandParser+0x31a>
 800256c:	f5b2 6f79 	cmp.w	r2, #3984	; 0xf90
 8002570:	d08f      	beq.n	8002492 <RI_SetRegCommandParser+0x31a>
 8002572:	e7ea      	b.n	800254a <RI_SetRegCommandParser+0x3d2>
 8002574:	f5b2 6f29 	cmp.w	r2, #2704	; 0xa90
 8002578:	d08b      	beq.n	8002492 <RI_SetRegCommandParser+0x31a>
 800257a:	d90f      	bls.n	800259c <RI_SetRegCommandParser+0x424>
 800257c:	f5b2 6f2d 	cmp.w	r2, #2768	; 0xad0
 8002580:	d087      	beq.n	8002492 <RI_SetRegCommandParser+0x31a>
 8002582:	f5b2 6f31 	cmp.w	r2, #2832	; 0xb10
 8002586:	d084      	beq.n	8002492 <RI_SetRegCommandParser+0x31a>
 8002588:	e7df      	b.n	800254a <RI_SetRegCommandParser+0x3d2>
 800258a:	f5b2 6f69 	cmp.w	r2, #3728	; 0xe90
 800258e:	d1dc      	bne.n	800254a <RI_SetRegCommandParser+0x3d2>
 8002590:	1f3d      	subs	r5, r7, #4
 8002592:	b2ad      	uxth	r5, r5
 8002594:	f104 0804 	add.w	r8, r4, #4
 8002598:	2200      	movs	r2, #0
 800259a:	e635      	b.n	8002208 <RI_SetRegCommandParser+0x90>
 800259c:	f020 0047 	bic.w	r0, r0, #71	; 0x47
 80025a0:	f5b0 6f21 	cmp.w	r0, #2576	; 0xa10
 80025a4:	f43f af75 	beq.w	8002492 <RI_SetRegCommandParser+0x31a>
 80025a8:	f5b2 6f1d 	cmp.w	r2, #2512	; 0x9d0
 80025ac:	f43f af71 	beq.w	8002492 <RI_SetRegCommandParser+0x31a>
 80025b0:	e7cb      	b.n	800254a <RI_SetRegCommandParser+0x3d2>
 80025b2:	2a0a      	cmp	r2, #10
 80025b4:	f04f 0201 	mov.w	r2, #1
 80025b8:	f43f aedc 	beq.w	8002374 <RI_SetRegCommandParser+0x1fc>
 80025bc:	9202      	str	r2, [sp, #8]
 80025be:	e63c      	b.n	800223a <RI_SetRegCommandParser+0xc2>
 80025c0:	f020 0047 	bic.w	r0, r0, #71	; 0x47
 80025c4:	2828      	cmp	r0, #40	; 0x28
 80025c6:	f43f ae66 	beq.w	8002296 <RI_SetRegCommandParser+0x11e>
 80025ca:	e65c      	b.n	8002286 <RI_SetRegCommandParser+0x10e>
 80025cc:	9a00      	ldr	r2, [sp, #0]
 80025ce:	444a      	add	r2, r9
 80025d0:	b2d2      	uxtb	r2, r2
 80025d2:	2a01      	cmp	r2, #1
 80025d4:	44a8      	add	r8, r5
 80025d6:	f04f 0204 	mov.w	r2, #4
 80025da:	f43f aecb 	beq.w	8002374 <RI_SetRegCommandParser+0x1fc>
 80025de:	2700      	movs	r7, #0
 80025e0:	e619      	b.n	8002216 <RI_SetRegCommandParser+0x9e>
 80025e2:	1efd      	subs	r5, r7, #3
 80025e4:	b2ad      	uxth	r5, r5
 80025e6:	f104 0803 	add.w	r8, r4, #3
 80025ea:	2204      	movs	r2, #4
 80025ec:	e60c      	b.n	8002208 <RI_SetRegCommandParser+0x90>
 80025ee:	220a      	movs	r2, #10
 80025f0:	e60a      	b.n	8002208 <RI_SetRegCommandParser+0x90>
 80025f2:	78a2      	ldrb	r2, [r4, #2]
 80025f4:	b362      	cbz	r2, 8002650 <RI_SetRegCommandParser+0x4d8>
 80025f6:	2a01      	cmp	r2, #1
 80025f8:	d05d      	beq.n	80026b6 <RI_SetRegCommandParser+0x53e>
 80025fa:	1efd      	subs	r5, r7, #3
 80025fc:	b2ad      	uxth	r5, r5
 80025fe:	f104 0803 	add.w	r8, r4, #3
 8002602:	2200      	movs	r2, #0
 8002604:	e600      	b.n	8002208 <RI_SetRegCommandParser+0x90>
 8002606:	4b5e      	ldr	r3, [pc, #376]	; (8002780 <RI_SetRegCommandParser+0x608>)
 8002608:	fb83 3201 	smull	r3, r2, r3, r1
 800260c:	eba2 71e1 	sub.w	r1, r2, r1, asr #31
 8002610:	4630      	mov	r0, r6
 8002612:	2200      	movs	r2, #0
 8002614:	b209      	sxth	r1, r1
 8002616:	1fbd      	subs	r5, r7, #6
 8002618:	f7fe fd9e 	bl	8001158 <MCI_ExecSpeedRamp>
 800261c:	f104 0806 	add.w	r8, r4, #6
 8002620:	4b58      	ldr	r3, [pc, #352]	; (8002784 <RI_SetRegCommandParser+0x60c>)
 8002622:	b2ad      	uxth	r5, r5
 8002624:	2200      	movs	r2, #0
 8002626:	e5ef      	b.n	8002208 <RI_SetRegCommandParser+0x90>
 8002628:	4a57      	ldr	r2, [pc, #348]	; (8002788 <RI_SetRegCommandParser+0x610>)
 800262a:	f852 202c 	ldr.w	r2, [r2, ip, lsl #2]
 800262e:	1fbd      	subs	r5, r7, #6
 8002630:	60d1      	str	r1, [r2, #12]
 8002632:	b2ad      	uxth	r5, r5
 8002634:	f104 0806 	add.w	r8, r4, #6
 8002638:	2200      	movs	r2, #0
 800263a:	e5e5      	b.n	8002208 <RI_SetRegCommandParser+0x90>
 800263c:	4a52      	ldr	r2, [pc, #328]	; (8002788 <RI_SetRegCommandParser+0x610>)
 800263e:	f852 202c 	ldr.w	r2, [r2, ip, lsl #2]
 8002642:	1fbd      	subs	r5, r7, #6
 8002644:	6111      	str	r1, [r2, #16]
 8002646:	b2ad      	uxth	r5, r5
 8002648:	f104 0806 	add.w	r8, r4, #6
 800264c:	2200      	movs	r2, #0
 800264e:	e5db      	b.n	8002208 <RI_SetRegCommandParser+0x90>
 8002650:	4630      	mov	r0, r6
 8002652:	9203      	str	r2, [sp, #12]
 8002654:	f7fe fe66 	bl	8001324 <MCI_GetTeref>
 8002658:	1efd      	subs	r5, r7, #3
 800265a:	9a03      	ldr	r2, [sp, #12]
 800265c:	4601      	mov	r1, r0
 800265e:	4630      	mov	r0, r6
 8002660:	f7fe fd86 	bl	8001170 <MCI_ExecTorqueRamp>
 8002664:	f104 0803 	add.w	r8, r4, #3
 8002668:	9a03      	ldr	r2, [sp, #12]
 800266a:	4b46      	ldr	r3, [pc, #280]	; (8002784 <RI_SetRegCommandParser+0x60c>)
 800266c:	b2ad      	uxth	r5, r5
 800266e:	e5cb      	b.n	8002208 <RI_SetRegCommandParser+0x90>
 8002670:	8922      	ldrh	r2, [r4, #8]
 8002672:	f9b4 1004 	ldrsh.w	r1, [r4, #4]
 8002676:	4630      	mov	r0, r6
 8002678:	f7fe fd7a 	bl	8001170 <MCI_ExecTorqueRamp>
 800267c:	1bed      	subs	r5, r5, r7
 800267e:	4b41      	ldr	r3, [pc, #260]	; (8002784 <RI_SetRegCommandParser+0x60c>)
 8002680:	44b8      	add	r8, r7
 8002682:	b2ad      	uxth	r5, r5
 8002684:	2200      	movs	r2, #0
 8002686:	e5bf      	b.n	8002208 <RI_SetRegCommandParser+0x90>
 8002688:	6861      	ldr	r1, [r4, #4]
 800268a:	9105      	str	r1, [sp, #20]
 800268c:	4630      	mov	r0, r6
 800268e:	1bed      	subs	r5, r5, r7
 8002690:	f7fe fd78 	bl	8001184 <MCI_SetCurrentReferences>
 8002694:	b2ad      	uxth	r5, r5
 8002696:	4b3b      	ldr	r3, [pc, #236]	; (8002784 <RI_SetRegCommandParser+0x60c>)
 8002698:	44b8      	add	r8, r7
 800269a:	2200      	movs	r2, #0
 800269c:	e5b4      	b.n	8002208 <RI_SetRegCommandParser+0x90>
 800269e:	6860      	ldr	r0, [r4, #4]
 80026a0:	4b37      	ldr	r3, [pc, #220]	; (8002780 <RI_SetRegCommandParser+0x608>)
 80026a2:	8922      	ldrh	r2, [r4, #8]
 80026a4:	fb83 3100 	smull	r3, r1, r3, r0
 80026a8:	eba1 71e0 	sub.w	r1, r1, r0, asr #31
 80026ac:	b209      	sxth	r1, r1
 80026ae:	4630      	mov	r0, r6
 80026b0:	f7fe fd52 	bl	8001158 <MCI_ExecSpeedRamp>
 80026b4:	e7e2      	b.n	800267c <RI_SetRegCommandParser+0x504>
 80026b6:	4630      	mov	r0, r6
 80026b8:	f7fe fddc 	bl	8001274 <MCI_GetMecSpeedRefUnit>
 80026bc:	1efd      	subs	r5, r7, #3
 80026be:	4601      	mov	r1, r0
 80026c0:	2200      	movs	r2, #0
 80026c2:	4630      	mov	r0, r6
 80026c4:	f7fe fd48 	bl	8001158 <MCI_ExecSpeedRamp>
 80026c8:	f104 0803 	add.w	r8, r4, #3
 80026cc:	4b2d      	ldr	r3, [pc, #180]	; (8002784 <RI_SetRegCommandParser+0x60c>)
 80026ce:	b2ad      	uxth	r5, r5
 80026d0:	2200      	movs	r2, #0
 80026d2:	e599      	b.n	8002208 <RI_SetRegCommandParser+0x90>
 80026d4:	2001      	movs	r0, #1
 80026d6:	4602      	mov	r2, r0
 80026d8:	4641      	mov	r1, r8
 80026da:	e643      	b.n	8002364 <RI_SetRegCommandParser+0x1ec>
 80026dc:	4a26      	ldr	r2, [pc, #152]	; (8002778 <RI_SetRegCommandParser+0x600>)
 80026de:	b209      	sxth	r1, r1
 80026e0:	f852 002c 	ldr.w	r0, [r2, ip, lsl #2]
 80026e4:	f004 fe52 	bl	800738c <PID_SetKP>
 80026e8:	e614      	b.n	8002314 <RI_SetRegCommandParser+0x19c>
 80026ea:	4a28      	ldr	r2, [pc, #160]	; (800278c <RI_SetRegCommandParser+0x614>)
 80026ec:	b209      	sxth	r1, r1
 80026ee:	f852 002c 	ldr.w	r0, [r2, ip, lsl #2]
 80026f2:	f004 fe4b 	bl	800738c <PID_SetKP>
 80026f6:	e60d      	b.n	8002314 <RI_SetRegCommandParser+0x19c>
 80026f8:	4a24      	ldr	r2, [pc, #144]	; (800278c <RI_SetRegCommandParser+0x614>)
 80026fa:	f852 002c 	ldr.w	r0, [r2, ip, lsl #2]
 80026fe:	f004 fe55 	bl	80073ac <PID_SetKPDivisorPOW2>
 8002702:	e607      	b.n	8002314 <RI_SetRegCommandParser+0x19c>
 8002704:	4a1d      	ldr	r2, [pc, #116]	; (800277c <RI_SetRegCommandParser+0x604>)
 8002706:	b209      	sxth	r1, r1
 8002708:	f852 002c 	ldr.w	r0, [r2, ip, lsl #2]
 800270c:	f004 fe40 	bl	8007390 <PID_SetKI>
 8002710:	e600      	b.n	8002314 <RI_SetRegCommandParser+0x19c>
 8002712:	4a19      	ldr	r2, [pc, #100]	; (8002778 <RI_SetRegCommandParser+0x600>)
 8002714:	f852 002c 	ldr.w	r0, [r2, ip, lsl #2]
 8002718:	f004 fe54 	bl	80073c4 <PID_SetKIDivisorPOW2>
 800271c:	e5fa      	b.n	8002314 <RI_SetRegCommandParser+0x19c>
 800271e:	4a17      	ldr	r2, [pc, #92]	; (800277c <RI_SetRegCommandParser+0x604>)
 8002720:	f852 002c 	ldr.w	r0, [r2, ip, lsl #2]
 8002724:	f004 fe42 	bl	80073ac <PID_SetKPDivisorPOW2>
 8002728:	e5f4      	b.n	8002314 <RI_SetRegCommandParser+0x19c>
 800272a:	4a18      	ldr	r2, [pc, #96]	; (800278c <RI_SetRegCommandParser+0x614>)
 800272c:	f852 002c 	ldr.w	r0, [r2, ip, lsl #2]
 8002730:	f004 fe48 	bl	80073c4 <PID_SetKIDivisorPOW2>
 8002734:	e5ee      	b.n	8002314 <RI_SetRegCommandParser+0x19c>
 8002736:	4a15      	ldr	r2, [pc, #84]	; (800278c <RI_SetRegCommandParser+0x614>)
 8002738:	b209      	sxth	r1, r1
 800273a:	f852 002c 	ldr.w	r0, [r2, ip, lsl #2]
 800273e:	f004 fe27 	bl	8007390 <PID_SetKI>
 8002742:	e5e7      	b.n	8002314 <RI_SetRegCommandParser+0x19c>
 8002744:	4a0c      	ldr	r2, [pc, #48]	; (8002778 <RI_SetRegCommandParser+0x600>)
 8002746:	b209      	sxth	r1, r1
 8002748:	f852 002c 	ldr.w	r0, [r2, ip, lsl #2]
 800274c:	f004 fe4e 	bl	80073ec <PID_SetKD>
 8002750:	e5e0      	b.n	8002314 <RI_SetRegCommandParser+0x19c>
 8002752:	4630      	mov	r0, r6
 8002754:	9103      	str	r1, [sp, #12]
 8002756:	f7fe fdbb 	bl	80012d0 <MCI_GetIqdref>
 800275a:	9903      	ldr	r1, [sp, #12]
 800275c:	9005      	str	r0, [sp, #20]
 800275e:	f8ad 1016 	strh.w	r1, [sp, #22]
 8002762:	9905      	ldr	r1, [sp, #20]
 8002764:	4630      	mov	r0, r6
 8002766:	f7fe fd0d 	bl	8001184 <MCI_SetCurrentReferences>
 800276a:	e5d3      	b.n	8002314 <RI_SetRegCommandParser+0x19c>
 800276c:	9a02      	ldr	r2, [sp, #8]
 800276e:	2a00      	cmp	r2, #0
 8002770:	f43f ae09 	beq.w	8002386 <RI_SetRegCommandParser+0x20e>
 8002774:	e5fe      	b.n	8002374 <RI_SetRegCommandParser+0x1fc>
 8002776:	bf00      	nop
 8002778:	20000488 	.word	0x20000488
 800277c:	20000630 	.word	0x20000630
 8002780:	2aaaaaab 	.word	0x2aaaaaab
 8002784:	200009ec 	.word	0x200009ec
 8002788:	20000480 	.word	0x20000480
 800278c:	2000048c 	.word	0x2000048c

08002790 <RI_GetRegCommandParser>:
 8002790:	e92d 4ff0 	stmdb	sp!, {r4, r5, r6, r7, r8, r9, sl, fp, lr}
 8002794:	f8b0 a00c 	ldrh.w	sl, [r0, #12]
 8002798:	6803      	ldr	r3, [r0, #0]
 800279a:	f1aa 0a02 	sub.w	sl, sl, #2
 800279e:	f04f 0e00 	mov.w	lr, #0
 80027a2:	fa1f fa8a 	uxth.w	sl, sl
 80027a6:	899c      	ldrh	r4, [r3, #12]
 80027a8:	f8a0 e00e 	strh.w	lr, [r0, #14]
 80027ac:	e9d0 1701 	ldrd	r1, r7, [r0, #4]
 80027b0:	b093      	sub	sp, #76	; 0x4c
 80027b2:	f1ba 0f00 	cmp.w	sl, #0
 80027b6:	f000 82eb 	beq.w	8002d90 <RI_GetRegCommandParser+0x600>
 80027ba:	3c01      	subs	r4, #1
 80027bc:	f101 0902 	add.w	r9, r1, #2
 80027c0:	f8df b404 	ldr.w	fp, [pc, #1028]	; 8002bc8 <RI_GetRegCommandParser+0x438>
 80027c4:	4680      	mov	r8, r0
 80027c6:	b2a4      	uxth	r4, r4
 80027c8:	464e      	mov	r6, r9
 80027ca:	f836 3b02 	ldrh.w	r3, [r6], #2
 80027ce:	f003 0207 	and.w	r2, r3, #7
 80027d2:	3a01      	subs	r2, #1
 80027d4:	b2d0      	uxtb	r0, r2
 80027d6:	f003 0c38 	and.w	ip, r3, #56	; 0x38
 80027da:	ebc0 05c0 	rsb	r5, r0, r0, lsl #3
 80027de:	f023 0307 	bic.w	r3, r3, #7
 80027e2:	f1ac 0c08 	sub.w	ip, ip, #8
 80027e6:	4602      	mov	r2, r0
 80027e8:	eb0b 0585 	add.w	r5, fp, r5, lsl #2
 80027ec:	b29b      	uxth	r3, r3
 80027ee:	f1bc 0f20 	cmp.w	ip, #32
 80027f2:	d812      	bhi.n	800281a <RI_GetRegCommandParser+0x8a>
 80027f4:	e8df f00c 	tbb	[pc, ip]
 80027f8:	111111a8 	.word	0x111111a8
 80027fc:	11111111 	.word	0x11111111
 8002800:	1111116a 	.word	0x1111116a
 8002804:	11111111 	.word	0x11111111
 8002808:	111111b3 	.word	0x111111b3
 800280c:	11111111 	.word	0x11111111
 8002810:	1111112c 	.word	0x1111112c
 8002814:	11111111 	.word	0x11111111
 8002818:	15          	.byte	0x15
 8002819:	00          	.byte	0x00
 800281a:	2007      	movs	r0, #7
 800281c:	b013      	add	sp, #76	; 0x4c
 800281e:	e8bd 8ff0 	ldmia.w	sp!, {r4, r5, r6, r7, r8, r9, sl, fp, pc}
 8002822:	f5b3 7fb4 	cmp.w	r3, #360	; 0x168
 8002826:	f107 0002 	add.w	r0, r7, #2
 800282a:	f000 8287 	beq.w	8002d3c <RI_GetRegCommandParser+0x5ac>
 800282e:	f200 80be 	bhi.w	80029ae <RI_GetRegCommandParser+0x21e>
 8002832:	2b68      	cmp	r3, #104	; 0x68
 8002834:	f000 827b 	beq.w	8002d2e <RI_GetRegCommandParser+0x59e>
 8002838:	2ba8      	cmp	r3, #168	; 0xa8
 800283a:	f040 80a9 	bne.w	8002990 <RI_GetRegCommandParser+0x200>
 800283e:	230e      	movs	r3, #14
 8002840:	2c0f      	cmp	r4, #15
 8002842:	803b      	strh	r3, [r7, #0]
 8002844:	f200 8263 	bhi.w	8002d0e <RI_GetRegCommandParser+0x57e>
 8002848:	2008      	movs	r0, #8
 800284a:	b013      	add	sp, #76	; 0x4c
 800284c:	e8bd 8ff0 	ldmia.w	sp!, {r4, r5, r6, r7, r8, r9, sl, fp, pc}
 8002850:	2ba0      	cmp	r3, #160	; 0xa0
 8002852:	f000 823c 	beq.w	8002cce <RI_GetRegCommandParser+0x53e>
 8002856:	f200 80c8 	bhi.w	80029ea <RI_GetRegCommandParser+0x25a>
 800285a:	2b20      	cmp	r3, #32
 800285c:	f000 8228 	beq.w	8002cb0 <RI_GetRegCommandParser+0x520>
 8002860:	2b60      	cmp	r3, #96	; 0x60
 8002862:	d17a      	bne.n	800295a <RI_GetRegCommandParser+0x1ca>
 8002864:	4dd1      	ldr	r5, [pc, #836]	; (8002bac <RI_GetRegCommandParser+0x41c>)
 8002866:	7828      	ldrb	r0, [r5, #0]
 8002868:	2800      	cmp	r0, #0
 800286a:	f000 828c 	beq.w	8002d86 <RI_GetRegCommandParser+0x5f6>
 800286e:	2c01      	cmp	r4, #1
 8002870:	f240 8220 	bls.w	8002cb4 <RI_GetRegCommandParser+0x524>
 8002874:	f1a4 0c02 	sub.w	ip, r4, #2
 8002878:	fa1f fc8c 	uxth.w	ip, ip
 800287c:	f10c 0c01 	add.w	ip, ip, #1
 8002880:	44bc      	add	ip, r7
 8002882:	463b      	mov	r3, r7
 8002884:	f1c7 0201 	rsb	r2, r7, #1
 8002888:	e002      	b.n	8002890 <RI_GetRegCommandParser+0x100>
 800288a:	4563      	cmp	r3, ip
 800288c:	f000 8212 	beq.w	8002cb4 <RI_GetRegCommandParser+0x524>
 8002890:	f803 0b01 	strb.w	r0, [r3], #1
 8002894:	f815 0f01 	ldrb.w	r0, [r5, #1]!
 8002898:	eb03 0e02 	add.w	lr, r3, r2
 800289c:	fa1f fe8e 	uxth.w	lr, lr
 80028a0:	2800      	cmp	r0, #0
 80028a2:	d1f2      	bne.n	800288a <RI_GetRegCommandParser+0xfa>
 80028a4:	4675      	mov	r5, lr
 80028a6:	2200      	movs	r2, #0
 80028a8:	701a      	strb	r2, [r3, #0]
 80028aa:	f8b8 000e 	ldrh.w	r0, [r8, #14]
 80028ae:	eb09 030a 	add.w	r3, r9, sl
 80028b2:	b29b      	uxth	r3, r3
 80028b4:	b2b2      	uxth	r2, r6
 80028b6:	eba4 040e 	sub.w	r4, r4, lr
 80028ba:	4470      	add	r0, lr
 80028bc:	429a      	cmp	r2, r3
 80028be:	b2a4      	uxth	r4, r4
 80028c0:	442f      	add	r7, r5
 80028c2:	f8a8 000e 	strh.w	r0, [r8, #14]
 80028c6:	d180      	bne.n	80027ca <RI_GetRegCommandParser+0x3a>
 80028c8:	2000      	movs	r0, #0
 80028ca:	e7a7      	b.n	800281c <RI_GetRegCommandParser+0x8c>
 80028cc:	2c01      	cmp	r4, #1
 80028ce:	d9bb      	bls.n	8002848 <RI_GetRegCommandParser+0xb8>
 80028d0:	f5b3 6f1d 	cmp.w	r3, #2512	; 0x9d0
 80028d4:	f000 8286 	beq.w	8002de4 <RI_GetRegCommandParser+0x654>
 80028d8:	f200 80ac 	bhi.w	8002a34 <RI_GetRegCommandParser+0x2a4>
 80028dc:	f5b3 6fba 	cmp.w	r3, #1488	; 0x5d0
 80028e0:	f000 82cf 	beq.w	8002e82 <RI_GetRegCommandParser+0x6f2>
 80028e4:	d817      	bhi.n	8002916 <RI_GetRegCommandParser+0x186>
 80028e6:	f5b3 7f04 	cmp.w	r3, #528	; 0x210
 80028ea:	f000 8287 	beq.w	8002dfc <RI_GetRegCommandParser+0x66c>
 80028ee:	f240 80e4 	bls.w	8002aba <RI_GetRegCommandParser+0x32a>
 80028f2:	f5b3 7f44 	cmp.w	r3, #784	; 0x310
 80028f6:	f000 82b8 	beq.w	8002e6a <RI_GetRegCommandParser+0x6da>
 80028fa:	f240 80cd 	bls.w	8002a98 <RI_GetRegCommandParser+0x308>
 80028fe:	f5b3 6fb2 	cmp.w	r3, #1424	; 0x590
 8002902:	d12a      	bne.n	800295a <RI_GetRegCommandParser+0x1ca>
 8002904:	4baa      	ldr	r3, [pc, #680]	; (8002bb0 <RI_GetRegCommandParser+0x420>)
 8002906:	f853 0020 	ldr.w	r0, [r3, r0, lsl #2]
 800290a:	f004 f8b9 	bl	8006a80 <VBS_GetAvBusVoltage_V>
 800290e:	2502      	movs	r5, #2
 8002910:	8038      	strh	r0, [r7, #0]
 8002912:	46ae      	mov	lr, r5
 8002914:	e7c9      	b.n	80028aa <RI_GetRegCommandParser+0x11a>
 8002916:	f5b3 6f09 	cmp.w	r3, #2192	; 0x890
 800291a:	f000 82a8 	beq.w	8002e6e <RI_GetRegCommandParser+0x6de>
 800291e:	f240 80dc 	bls.w	8002ada <RI_GetRegCommandParser+0x34a>
 8002922:	f5b3 6f15 	cmp.w	r3, #2384	; 0x950
 8002926:	f000 826b 	beq.w	8002e00 <RI_GetRegCommandParser+0x670>
 800292a:	f240 80a3 	bls.w	8002a74 <RI_GetRegCommandParser+0x2e4>
 800292e:	f5b3 6f19 	cmp.w	r3, #2448	; 0x990
 8002932:	d112      	bne.n	800295a <RI_GetRegCommandParser+0x1ca>
 8002934:	4628      	mov	r0, r5
 8002936:	f7fe fccb 	bl	80012d0 <MCI_GetIqdref>
 800293a:	2502      	movs	r5, #2
 800293c:	f3c0 430f 	ubfx	r3, r0, #16, #16
 8002940:	900a      	str	r0, [sp, #40]	; 0x28
 8002942:	46ae      	mov	lr, r5
 8002944:	803b      	strh	r3, [r7, #0]
 8002946:	e7b0      	b.n	80028aa <RI_GetRegCommandParser+0x11a>
 8002948:	2c00      	cmp	r4, #0
 800294a:	f43f af7d 	beq.w	8002848 <RI_GetRegCommandParser+0xb8>
 800294e:	2b48      	cmp	r3, #72	; 0x48
 8002950:	f000 81b2 	beq.w	8002cb8 <RI_GetRegCommandParser+0x528>
 8002954:	2b88      	cmp	r3, #136	; 0x88
 8002956:	f000 8194 	beq.w	8002c82 <RI_GetRegCommandParser+0x4f2>
 800295a:	2005      	movs	r0, #5
 800295c:	e75e      	b.n	800281c <RI_GetRegCommandParser+0x8c>
 800295e:	2c03      	cmp	r4, #3
 8002960:	f67f af72 	bls.w	8002848 <RI_GetRegCommandParser+0xb8>
 8002964:	f5b3 7fec 	cmp.w	r3, #472	; 0x1d8
 8002968:	f000 81f9 	beq.w	8002d5e <RI_GetRegCommandParser+0x5ce>
 800296c:	f200 8179 	bhi.w	8002c62 <RI_GetRegCommandParser+0x4d2>
 8002970:	2b58      	cmp	r3, #88	; 0x58
 8002972:	f000 81fc 	beq.w	8002d6e <RI_GetRegCommandParser+0x5de>
 8002976:	2b98      	cmp	r3, #152	; 0x98
 8002978:	f040 8165 	bne.w	8002c46 <RI_GetRegCommandParser+0x4b6>
 800297c:	4628      	mov	r0, r5
 800297e:	f7fe fc79 	bl	8001274 <MCI_GetMecSpeedRefUnit>
 8002982:	eb00 0040 	add.w	r0, r0, r0, lsl #1
 8002986:	0040      	lsls	r0, r0, #1
 8002988:	2504      	movs	r5, #4
 800298a:	6038      	str	r0, [r7, #0]
 800298c:	46ae      	mov	lr, r5
 800298e:	e78c      	b.n	80028aa <RI_GetRegCommandParser+0x11a>
 8002990:	2b28      	cmp	r3, #40	; 0x28
 8002992:	d1e2      	bne.n	800295a <RI_GetRegCommandParser+0x1ca>
 8002994:	2306      	movs	r3, #6
 8002996:	2c07      	cmp	r4, #7
 8002998:	803b      	strh	r3, [r7, #0]
 800299a:	f67f af55 	bls.w	8002848 <RI_GetRegCommandParser+0xb8>
 800299e:	4b85      	ldr	r3, [pc, #532]	; (8002bb4 <RI_GetRegCommandParser+0x424>)
 80029a0:	681a      	ldr	r2, [r3, #0]
 80029a2:	6002      	str	r2, [r0, #0]
 80029a4:	889b      	ldrh	r3, [r3, #4]
 80029a6:	8083      	strh	r3, [r0, #4]
 80029a8:	2508      	movs	r5, #8
 80029aa:	46ae      	mov	lr, r5
 80029ac:	e77d      	b.n	80028aa <RI_GetRegCommandParser+0x11a>
 80029ae:	f5b3 7fd4 	cmp.w	r3, #424	; 0x1a8
 80029b2:	f000 816d 	beq.w	8002c90 <RI_GetRegCommandParser+0x500>
 80029b6:	f5b3 7f5a 	cmp.w	r3, #872	; 0x368
 80029ba:	d1ce      	bne.n	800295a <RI_GetRegCommandParser+0x1ca>
 80029bc:	2304      	movs	r3, #4
 80029be:	803b      	strh	r3, [r7, #0]
 80029c0:	4628      	mov	r0, r5
 80029c2:	f7fe fc85 	bl	80012d0 <MCI_GetIqdref>
 80029c6:	4603      	mov	r3, r0
 80029c8:	8078      	strh	r0, [r7, #2]
 80029ca:	4628      	mov	r0, r5
 80029cc:	9301      	str	r3, [sp, #4]
 80029ce:	f7fe fc7f 	bl	80012d0 <MCI_GetIqdref>
 80029d2:	f8b7 e000 	ldrh.w	lr, [r7]
 80029d6:	9000      	str	r0, [sp, #0]
 80029d8:	f10e 0e02 	add.w	lr, lr, #2
 80029dc:	fa1f fe8e 	uxth.w	lr, lr
 80029e0:	f3c0 430f 	ubfx	r3, r0, #16, #16
 80029e4:	80bb      	strh	r3, [r7, #4]
 80029e6:	4675      	mov	r5, lr
 80029e8:	e75f      	b.n	80028aa <RI_GetRegCommandParser+0x11a>
 80029ea:	2be0      	cmp	r3, #224	; 0xe0
 80029ec:	d1b5      	bne.n	800295a <RI_GetRegCommandParser+0x1ca>
 80029ee:	4b72      	ldr	r3, [pc, #456]	; (8002bb8 <RI_GetRegCommandParser+0x428>)
 80029f0:	f853 5020 	ldr.w	r5, [r3, r0, lsl #2]
 80029f4:	7828      	ldrb	r0, [r5, #0]
 80029f6:	2800      	cmp	r0, #0
 80029f8:	f000 81c5 	beq.w	8002d86 <RI_GetRegCommandParser+0x5f6>
 80029fc:	2c01      	cmp	r4, #1
 80029fe:	f240 8159 	bls.w	8002cb4 <RI_GetRegCommandParser+0x524>
 8002a02:	f1a4 0c02 	sub.w	ip, r4, #2
 8002a06:	fa1f fc8c 	uxth.w	ip, ip
 8002a0a:	f10c 0c01 	add.w	ip, ip, #1
 8002a0e:	44bc      	add	ip, r7
 8002a10:	463b      	mov	r3, r7
 8002a12:	f1c7 0201 	rsb	r2, r7, #1
 8002a16:	e002      	b.n	8002a1e <RI_GetRegCommandParser+0x28e>
 8002a18:	4563      	cmp	r3, ip
 8002a1a:	f000 814b 	beq.w	8002cb4 <RI_GetRegCommandParser+0x524>
 8002a1e:	f803 0b01 	strb.w	r0, [r3], #1
 8002a22:	f815 0f01 	ldrb.w	r0, [r5, #1]!
 8002a26:	eb03 0e02 	add.w	lr, r3, r2
 8002a2a:	fa1f fe8e 	uxth.w	lr, lr
 8002a2e:	2800      	cmp	r0, #0
 8002a30:	d1f2      	bne.n	8002a18 <RI_GetRegCommandParser+0x288>
 8002a32:	e737      	b.n	80028a4 <RI_GetRegCommandParser+0x114>
 8002a34:	f241 0050 	movw	r0, #4176	; 0x1050
 8002a38:	4283      	cmp	r3, r0
 8002a3a:	f000 820a 	beq.w	8002e52 <RI_GetRegCommandParser+0x6c2>
 8002a3e:	d97d      	bls.n	8002b3c <RI_GetRegCommandParser+0x3ac>
 8002a40:	f241 5050 	movw	r0, #5456	; 0x1550
 8002a44:	4283      	cmp	r3, r0
 8002a46:	f000 81d7 	beq.w	8002df8 <RI_GetRegCommandParser+0x668>
 8002a4a:	d957      	bls.n	8002afc <RI_GetRegCommandParser+0x36c>
 8002a4c:	f241 6010 	movw	r0, #5648	; 0x1610
 8002a50:	4283      	cmp	r3, r0
 8002a52:	f000 81cf 	beq.w	8002df4 <RI_GetRegCommandParser+0x664>
 8002a56:	d965      	bls.n	8002b24 <RI_GetRegCommandParser+0x394>
 8002a58:	f241 6050 	movw	r0, #5712	; 0x1650
 8002a5c:	4283      	cmp	r3, r0
 8002a5e:	f47f af7c 	bne.w	800295a <RI_GetRegCommandParser+0x1ca>
 8002a62:	4b56      	ldr	r3, [pc, #344]	; (8002bbc <RI_GetRegCommandParser+0x42c>)
 8002a64:	f853 0022 	ldr.w	r0, [r3, r2, lsl #2]
 8002a68:	f004 fcc6 	bl	80073f8 <PID_GetKDDivisor>
 8002a6c:	2502      	movs	r5, #2
 8002a6e:	8038      	strh	r0, [r7, #0]
 8002a70:	46ae      	mov	lr, r5
 8002a72:	e71a      	b.n	80028aa <RI_GetRegCommandParser+0x11a>
 8002a74:	f5b3 6f0d 	cmp.w	r3, #2256	; 0x8d0
 8002a78:	f000 820e 	beq.w	8002e98 <RI_GetRegCommandParser+0x708>
 8002a7c:	f5b3 6f11 	cmp.w	r3, #2320	; 0x910
 8002a80:	f47f af6b 	bne.w	800295a <RI_GetRegCommandParser+0x1ca>
 8002a84:	4628      	mov	r0, r5
 8002a86:	f7fe fc15 	bl	80012b4 <MCI_GetIqd>
 8002a8a:	2502      	movs	r5, #2
 8002a8c:	f3c0 430f 	ubfx	r3, r0, #16, #16
 8002a90:	900c      	str	r0, [sp, #48]	; 0x30
 8002a92:	46ae      	mov	lr, r5
 8002a94:	803b      	strh	r3, [r7, #0]
 8002a96:	e708      	b.n	80028aa <RI_GetRegCommandParser+0x11a>
 8002a98:	f5b3 7f24 	cmp.w	r3, #656	; 0x290
 8002a9c:	f000 81fa 	beq.w	8002e94 <RI_GetRegCommandParser+0x704>
 8002aa0:	f5b3 7f34 	cmp.w	r3, #720	; 0x2d0
 8002aa4:	f47f af59 	bne.w	800295a <RI_GetRegCommandParser+0x1ca>
 8002aa8:	4b45      	ldr	r3, [pc, #276]	; (8002bc0 <RI_GetRegCommandParser+0x430>)
 8002aaa:	f853 0022 	ldr.w	r0, [r3, r2, lsl #2]
 8002aae:	f004 fc75 	bl	800739c <PID_GetKI>
 8002ab2:	2502      	movs	r5, #2
 8002ab4:	8038      	strh	r0, [r7, #0]
 8002ab6:	46ae      	mov	lr, r5
 8002ab8:	e6f7      	b.n	80028aa <RI_GetRegCommandParser+0x11a>
 8002aba:	f5b3 7f88 	cmp.w	r3, #272	; 0x110
 8002abe:	f000 817e 	beq.w	8002dbe <RI_GetRegCommandParser+0x62e>
 8002ac2:	f240 8095 	bls.w	8002bf0 <RI_GetRegCommandParser+0x460>
 8002ac6:	f5b3 7fc8 	cmp.w	r3, #400	; 0x190
 8002aca:	f000 816f 	beq.w	8002dac <RI_GetRegCommandParser+0x61c>
 8002ace:	f5b3 7fe8 	cmp.w	r3, #464	; 0x1d0
 8002ad2:	f47f af42 	bne.w	800295a <RI_GetRegCommandParser+0x1ca>
 8002ad6:	4b39      	ldr	r3, [pc, #228]	; (8002bbc <RI_GetRegCommandParser+0x42c>)
 8002ad8:	e7e7      	b.n	8002aaa <RI_GetRegCommandParser+0x31a>
 8002ada:	f5b3 6f01 	cmp.w	r3, #2064	; 0x810
 8002ade:	f000 815b 	beq.w	8002d98 <RI_GetRegCommandParser+0x608>
 8002ae2:	d948      	bls.n	8002b76 <RI_GetRegCommandParser+0x3e6>
 8002ae4:	f5b3 6f05 	cmp.w	r3, #2128	; 0x850
 8002ae8:	f47f af37 	bne.w	800295a <RI_GetRegCommandParser+0x1ca>
 8002aec:	4628      	mov	r0, r5
 8002aee:	f7fe fbd3 	bl	8001298 <MCI_GetIalphabeta>
 8002af2:	2502      	movs	r5, #2
 8002af4:	900f      	str	r0, [sp, #60]	; 0x3c
 8002af6:	46ae      	mov	lr, r5
 8002af8:	8038      	strh	r0, [r7, #0]
 8002afa:	e6d6      	b.n	80028aa <RI_GetRegCommandParser+0x11a>
 8002afc:	f241 40d0 	movw	r0, #5328	; 0x14d0
 8002b00:	4283      	cmp	r3, r0
 8002b02:	f000 8147 	beq.w	8002d94 <RI_GetRegCommandParser+0x604>
 8002b06:	d97b      	bls.n	8002c00 <RI_GetRegCommandParser+0x470>
 8002b08:	f241 5010 	movw	r0, #5392	; 0x1510
 8002b0c:	4283      	cmp	r3, r0
 8002b0e:	f47f af24 	bne.w	800295a <RI_GetRegCommandParser+0x1ca>
 8002b12:	4b2b      	ldr	r3, [pc, #172]	; (8002bc0 <RI_GetRegCommandParser+0x430>)
 8002b14:	f853 0022 	ldr.w	r0, [r3, r2, lsl #2]
 8002b18:	f004 fc46 	bl	80073a8 <PID_GetKPDivisor>
 8002b1c:	2502      	movs	r5, #2
 8002b1e:	8038      	strh	r0, [r7, #0]
 8002b20:	46ae      	mov	lr, r5
 8002b22:	e6c2      	b.n	80028aa <RI_GetRegCommandParser+0x11a>
 8002b24:	f241 5090 	movw	r0, #5520	; 0x1590
 8002b28:	4283      	cmp	r3, r0
 8002b2a:	f000 81bf 	beq.w	8002eac <RI_GetRegCommandParser+0x71c>
 8002b2e:	f241 50d0 	movw	r0, #5584	; 0x15d0
 8002b32:	4283      	cmp	r3, r0
 8002b34:	f47f af11 	bne.w	800295a <RI_GetRegCommandParser+0x1ca>
 8002b38:	4b20      	ldr	r3, [pc, #128]	; (8002bbc <RI_GetRegCommandParser+0x42c>)
 8002b3a:	e7eb      	b.n	8002b14 <RI_GetRegCommandParser+0x384>
 8002b3c:	f5b3 6f31 	cmp.w	r3, #2832	; 0xb10
 8002b40:	f000 81c0 	beq.w	8002ec4 <RI_GetRegCommandParser+0x734>
 8002b44:	d942      	bls.n	8002bcc <RI_GetRegCommandParser+0x43c>
 8002b46:	f5b3 6f79 	cmp.w	r3, #3984	; 0xf90
 8002b4a:	f000 81b1 	beq.w	8002eb0 <RI_GetRegCommandParser+0x720>
 8002b4e:	d922      	bls.n	8002b96 <RI_GetRegCommandParser+0x406>
 8002b50:	f5b3 6f7d 	cmp.w	r3, #4048	; 0xfd0
 8002b54:	f000 8165 	beq.w	8002e22 <RI_GetRegCommandParser+0x692>
 8002b58:	f241 0010 	movw	r0, #4112	; 0x1010
 8002b5c:	4283      	cmp	r3, r0
 8002b5e:	f47f aefc 	bne.w	800295a <RI_GetRegCommandParser+0x1ca>
 8002b62:	4b18      	ldr	r3, [pc, #96]	; (8002bc4 <RI_GetRegCommandParser+0x434>)
 8002b64:	f853 0022 	ldr.w	r0, [r3, r2, lsl #2]
 8002b68:	f005 ff4e 	bl	8008a08 <FF_GetVqdAvPIout>
 8002b6c:	2502      	movs	r5, #2
 8002b6e:	9003      	str	r0, [sp, #12]
 8002b70:	46ae      	mov	lr, r5
 8002b72:	8038      	strh	r0, [r7, #0]
 8002b74:	e699      	b.n	80028aa <RI_GetRegCommandParser+0x11a>
 8002b76:	f5b3 6fc2 	cmp.w	r3, #1552	; 0x610
 8002b7a:	f000 8149 	beq.w	8002e10 <RI_GetRegCommandParser+0x680>
 8002b7e:	f5b3 6ffa 	cmp.w	r3, #2000	; 0x7d0
 8002b82:	f47f aeea 	bne.w	800295a <RI_GetRegCommandParser+0x1ca>
 8002b86:	4628      	mov	r0, r5
 8002b88:	f7fe fb78 	bl	800127c <MCI_GetIab>
 8002b8c:	2502      	movs	r5, #2
 8002b8e:	9011      	str	r0, [sp, #68]	; 0x44
 8002b90:	46ae      	mov	lr, r5
 8002b92:	8038      	strh	r0, [r7, #0]
 8002b94:	e689      	b.n	80028aa <RI_GetRegCommandParser+0x11a>
 8002b96:	f5b3 6f65 	cmp.w	r3, #3664	; 0xe50
 8002b9a:	d003      	beq.n	8002ba4 <RI_GetRegCommandParser+0x414>
 8002b9c:	f5b3 6f69 	cmp.w	r3, #3728	; 0xe90
 8002ba0:	f47f aedb 	bne.w	800295a <RI_GetRegCommandParser+0x1ca>
 8002ba4:	2502      	movs	r5, #2
 8002ba6:	46ae      	mov	lr, r5
 8002ba8:	e67f      	b.n	80028aa <RI_GetRegCommandParser+0x11a>
 8002baa:	bf00      	nop
 8002bac:	20000498 	.word	0x20000498
 8002bb0:	20000628 	.word	0x20000628
 8002bb4:	20000504 	.word	0x20000504
 8002bb8:	200004f8 	.word	0x200004f8
 8002bbc:	2000048c 	.word	0x2000048c
 8002bc0:	20000488 	.word	0x20000488
 8002bc4:	20000480 	.word	0x20000480
 8002bc8:	200009ec 	.word	0x200009ec
 8002bcc:	f5b3 6f29 	cmp.w	r3, #2704	; 0xa90
 8002bd0:	f000 8135 	beq.w	8002e3e <RI_GetRegCommandParser+0x6ae>
 8002bd4:	d927      	bls.n	8002c26 <RI_GetRegCommandParser+0x496>
 8002bd6:	f5b3 6f2d 	cmp.w	r3, #2768	; 0xad0
 8002bda:	f47f aebe 	bne.w	800295a <RI_GetRegCommandParser+0x1ca>
 8002bde:	4bbe      	ldr	r3, [pc, #760]	; (8002ed8 <RI_GetRegCommandParser+0x748>)
 8002be0:	f853 0022 	ldr.w	r0, [r3, r2, lsl #2]
 8002be4:	f005 fc38 	bl	8008458 <SPD_GetElAngle>
 8002be8:	2502      	movs	r5, #2
 8002bea:	8038      	strh	r0, [r7, #0]
 8002bec:	46ae      	mov	lr, r5
 8002bee:	e65c      	b.n	80028aa <RI_GetRegCommandParser+0x11a>
 8002bf0:	2b90      	cmp	r3, #144	; 0x90
 8002bf2:	f000 8122 	beq.w	8002e3a <RI_GetRegCommandParser+0x6aa>
 8002bf6:	2bd0      	cmp	r3, #208	; 0xd0
 8002bf8:	f47f aeaf 	bne.w	800295a <RI_GetRegCommandParser+0x1ca>
 8002bfc:	4bb7      	ldr	r3, [pc, #732]	; (8002edc <RI_GetRegCommandParser+0x74c>)
 8002bfe:	e754      	b.n	8002aaa <RI_GetRegCommandParser+0x31a>
 8002c00:	f241 4050 	movw	r0, #5200	; 0x1450
 8002c04:	4283      	cmp	r3, r0
 8002c06:	f000 814f 	beq.w	8002ea8 <RI_GetRegCommandParser+0x718>
 8002c0a:	f241 4090 	movw	r0, #5264	; 0x1490
 8002c0e:	4283      	cmp	r3, r0
 8002c10:	f47f aea3 	bne.w	800295a <RI_GetRegCommandParser+0x1ca>
 8002c14:	4bb1      	ldr	r3, [pc, #708]	; (8002edc <RI_GetRegCommandParser+0x74c>)
 8002c16:	f853 0022 	ldr.w	r0, [r3, r2, lsl #2]
 8002c1a:	f004 fbcd 	bl	80073b8 <PID_GetKIDivisor>
 8002c1e:	2502      	movs	r5, #2
 8002c20:	8038      	strh	r0, [r7, #0]
 8002c22:	46ae      	mov	lr, r5
 8002c24:	e641      	b.n	80028aa <RI_GetRegCommandParser+0x11a>
 8002c26:	f5b3 6f21 	cmp.w	r3, #2576	; 0xa10
 8002c2a:	f000 80d1 	beq.w	8002dd0 <RI_GetRegCommandParser+0x640>
 8002c2e:	f5b3 6f25 	cmp.w	r3, #2640	; 0xa50
 8002c32:	f47f ae92 	bne.w	800295a <RI_GetRegCommandParser+0x1ca>
 8002c36:	4628      	mov	r0, r5
 8002c38:	f7fe fb66 	bl	8001308 <MCI_GetValphabeta>
 8002c3c:	2502      	movs	r5, #2
 8002c3e:	9007      	str	r0, [sp, #28]
 8002c40:	46ae      	mov	lr, r5
 8002c42:	8038      	strh	r0, [r7, #0]
 8002c44:	e631      	b.n	80028aa <RI_GetRegCommandParser+0x11a>
 8002c46:	2b18      	cmp	r3, #24
 8002c48:	f47f ae87 	bne.w	800295a <RI_GetRegCommandParser+0x1ca>
 8002c4c:	4ba4      	ldr	r3, [pc, #656]	; (8002ee0 <RI_GetRegCommandParser+0x750>)
 8002c4e:	eb00 0040 	add.w	r0, r0, r0, lsl #1
 8002c52:	eb03 0040 	add.w	r0, r3, r0, lsl #1
 8002c56:	f005 fdb7 	bl	80087c8 <STM_GetFaultState>
 8002c5a:	2504      	movs	r5, #4
 8002c5c:	6038      	str	r0, [r7, #0]
 8002c5e:	46ae      	mov	lr, r5
 8002c60:	e623      	b.n	80028aa <RI_GetRegCommandParser+0x11a>
 8002c62:	f5b3 7f06 	cmp.w	r3, #536	; 0x218
 8002c66:	f000 8086 	beq.w	8002d76 <RI_GetRegCommandParser+0x5e6>
 8002c6a:	f5b3 7f16 	cmp.w	r3, #600	; 0x258
 8002c6e:	f47f ae74 	bne.w	800295a <RI_GetRegCommandParser+0x1ca>
 8002c72:	4b9c      	ldr	r3, [pc, #624]	; (8002ee4 <RI_GetRegCommandParser+0x754>)
 8002c74:	f853 3020 	ldr.w	r3, [r3, r0, lsl #2]
 8002c78:	2504      	movs	r5, #4
 8002c7a:	695b      	ldr	r3, [r3, #20]
 8002c7c:	603b      	str	r3, [r7, #0]
 8002c7e:	46ae      	mov	lr, r5
 8002c80:	e613      	b.n	80028aa <RI_GetRegCommandParser+0x11a>
 8002c82:	4628      	mov	r0, r5
 8002c84:	f7fe fade 	bl	8001244 <MCI_GetControlMode>
 8002c88:	2501      	movs	r5, #1
 8002c8a:	7038      	strb	r0, [r7, #0]
 8002c8c:	46ae      	mov	lr, r5
 8002c8e:	e60c      	b.n	80028aa <RI_GetRegCommandParser+0x11a>
 8002c90:	2304      	movs	r3, #4
 8002c92:	803b      	strh	r3, [r7, #0]
 8002c94:	4628      	mov	r0, r5
 8002c96:	f7fe fadb 	bl	8001250 <MCI_GetLastRampFinalTorque>
 8002c9a:	8078      	strh	r0, [r7, #2]
 8002c9c:	4628      	mov	r0, r5
 8002c9e:	f7fe fadb 	bl	8001258 <MCI_GetLastRampFinalDuration>
 8002ca2:	f8b7 e000 	ldrh.w	lr, [r7]
 8002ca6:	80b8      	strh	r0, [r7, #4]
 8002ca8:	f10e 0e02 	add.w	lr, lr, #2
 8002cac:	fa1f fe8e 	uxth.w	lr, lr
 8002cb0:	4675      	mov	r5, lr
 8002cb2:	e5fa      	b.n	80028aa <RI_GetRegCommandParser+0x11a>
 8002cb4:	2006      	movs	r0, #6
 8002cb6:	e5b1      	b.n	800281c <RI_GetRegCommandParser+0x8c>
 8002cb8:	4b89      	ldr	r3, [pc, #548]	; (8002ee0 <RI_GetRegCommandParser+0x750>)
 8002cba:	eb00 0040 	add.w	r0, r0, r0, lsl #1
 8002cbe:	eb03 0040 	add.w	r0, r3, r0, lsl #1
 8002cc2:	f005 fd73 	bl	80087ac <STM_GetState>
 8002cc6:	2501      	movs	r5, #1
 8002cc8:	7038      	strb	r0, [r7, #0]
 8002cca:	46ae      	mov	lr, r5
 8002ccc:	e5ed      	b.n	80028aa <RI_GetRegCommandParser+0x11a>
 8002cce:	4b86      	ldr	r3, [pc, #536]	; (8002ee8 <RI_GetRegCommandParser+0x758>)
 8002cd0:	f853 5020 	ldr.w	r5, [r3, r0, lsl #2]
 8002cd4:	7828      	ldrb	r0, [r5, #0]
 8002cd6:	2800      	cmp	r0, #0
 8002cd8:	d055      	beq.n	8002d86 <RI_GetRegCommandParser+0x5f6>
 8002cda:	2c01      	cmp	r4, #1
 8002cdc:	d9ea      	bls.n	8002cb4 <RI_GetRegCommandParser+0x524>
 8002cde:	f1a4 0c02 	sub.w	ip, r4, #2
 8002ce2:	fa1f fc8c 	uxth.w	ip, ip
 8002ce6:	f10c 0c01 	add.w	ip, ip, #1
 8002cea:	44bc      	add	ip, r7
 8002cec:	463b      	mov	r3, r7
 8002cee:	f1c7 0201 	rsb	r2, r7, #1
 8002cf2:	e001      	b.n	8002cf8 <RI_GetRegCommandParser+0x568>
 8002cf4:	4563      	cmp	r3, ip
 8002cf6:	d0dd      	beq.n	8002cb4 <RI_GetRegCommandParser+0x524>
 8002cf8:	f803 0b01 	strb.w	r0, [r3], #1
 8002cfc:	f815 0f01 	ldrb.w	r0, [r5, #1]!
 8002d00:	eb03 0e02 	add.w	lr, r3, r2
 8002d04:	fa1f fe8e 	uxth.w	lr, lr
 8002d08:	2800      	cmp	r0, #0
 8002d0a:	d1f3      	bne.n	8002cf4 <RI_GetRegCommandParser+0x564>
 8002d0c:	e5ca      	b.n	80028a4 <RI_GetRegCommandParser+0x114>
 8002d0e:	4b77      	ldr	r3, [pc, #476]	; (8002eec <RI_GetRegCommandParser+0x75c>)
 8002d10:	f853 3022 	ldr.w	r3, [r3, r2, lsl #2]
 8002d14:	681d      	ldr	r5, [r3, #0]
 8002d16:	685a      	ldr	r2, [r3, #4]
 8002d18:	f8d3 c008 	ldr.w	ip, [r3, #8]
 8002d1c:	f8c0 c008 	str.w	ip, [r0, #8]
 8002d20:	6005      	str	r5, [r0, #0]
 8002d22:	6042      	str	r2, [r0, #4]
 8002d24:	899b      	ldrh	r3, [r3, #12]
 8002d26:	8183      	strh	r3, [r0, #12]
 8002d28:	2510      	movs	r5, #16
 8002d2a:	46ae      	mov	lr, r5
 8002d2c:	e5bd      	b.n	80028aa <RI_GetRegCommandParser+0x11a>
 8002d2e:	230e      	movs	r3, #14
 8002d30:	2c0f      	cmp	r4, #15
 8002d32:	803b      	strh	r3, [r7, #0]
 8002d34:	f67f ad88 	bls.w	8002848 <RI_GetRegCommandParser+0xb8>
 8002d38:	4b6d      	ldr	r3, [pc, #436]	; (8002ef0 <RI_GetRegCommandParser+0x760>)
 8002d3a:	e7e9      	b.n	8002d10 <RI_GetRegCommandParser+0x580>
 8002d3c:	4628      	mov	r0, r5
 8002d3e:	f7fe fa83 	bl	8001248 <MCI_GetLastRampFinalSpeed>
 8002d42:	eb00 0040 	add.w	r0, r0, r0, lsl #1
 8002d46:	0040      	lsls	r0, r0, #1
 8002d48:	f8c7 0002 	str.w	r0, [r7, #2]
 8002d4c:	4628      	mov	r0, r5
 8002d4e:	f7fe fa83 	bl	8001258 <MCI_GetLastRampFinalDuration>
 8002d52:	2508      	movs	r5, #8
 8002d54:	2306      	movs	r3, #6
 8002d56:	80f8      	strh	r0, [r7, #6]
 8002d58:	803b      	strh	r3, [r7, #0]
 8002d5a:	46ae      	mov	lr, r5
 8002d5c:	e5a5      	b.n	80028aa <RI_GetRegCommandParser+0x11a>
 8002d5e:	4b61      	ldr	r3, [pc, #388]	; (8002ee4 <RI_GetRegCommandParser+0x754>)
 8002d60:	f853 3020 	ldr.w	r3, [r3, r0, lsl #2]
 8002d64:	2504      	movs	r5, #4
 8002d66:	691b      	ldr	r3, [r3, #16]
 8002d68:	603b      	str	r3, [r7, #0]
 8002d6a:	46ae      	mov	lr, r5
 8002d6c:	e59d      	b.n	80028aa <RI_GetRegCommandParser+0x11a>
 8002d6e:	4628      	mov	r0, r5
 8002d70:	f7fe fa78 	bl	8001264 <MCI_GetAvrgMecSpeedUnit>
 8002d74:	e605      	b.n	8002982 <RI_GetRegCommandParser+0x1f2>
 8002d76:	4b5b      	ldr	r3, [pc, #364]	; (8002ee4 <RI_GetRegCommandParser+0x754>)
 8002d78:	f853 3020 	ldr.w	r3, [r3, r0, lsl #2]
 8002d7c:	2504      	movs	r5, #4
 8002d7e:	68db      	ldr	r3, [r3, #12]
 8002d80:	603b      	str	r3, [r7, #0]
 8002d82:	46ae      	mov	lr, r5
 8002d84:	e591      	b.n	80028aa <RI_GetRegCommandParser+0x11a>
 8002d86:	f04f 0e01 	mov.w	lr, #1
 8002d8a:	4675      	mov	r5, lr
 8002d8c:	463b      	mov	r3, r7
 8002d8e:	e58a      	b.n	80028a6 <RI_GetRegCommandParser+0x116>
 8002d90:	2001      	movs	r0, #1
 8002d92:	e543      	b.n	800281c <RI_GetRegCommandParser+0x8c>
 8002d94:	4b51      	ldr	r3, [pc, #324]	; (8002edc <RI_GetRegCommandParser+0x74c>)
 8002d96:	e665      	b.n	8002a64 <RI_GetRegCommandParser+0x2d4>
 8002d98:	4628      	mov	r0, r5
 8002d9a:	f7fe fa6f 	bl	800127c <MCI_GetIab>
 8002d9e:	2502      	movs	r5, #2
 8002da0:	f3c0 430f 	ubfx	r3, r0, #16, #16
 8002da4:	9010      	str	r0, [sp, #64]	; 0x40
 8002da6:	46ae      	mov	lr, r5
 8002da8:	803b      	strh	r3, [r7, #0]
 8002daa:	e57e      	b.n	80028aa <RI_GetRegCommandParser+0x11a>
 8002dac:	4b51      	ldr	r3, [pc, #324]	; (8002ef4 <RI_GetRegCommandParser+0x764>)
 8002dae:	f853 0022 	ldr.w	r0, [r3, r2, lsl #2]
 8002db2:	f004 faef 	bl	8007394 <PID_GetKP>
 8002db6:	2502      	movs	r5, #2
 8002db8:	8038      	strh	r0, [r7, #0]
 8002dba:	46ae      	mov	lr, r5
 8002dbc:	e575      	b.n	80028aa <RI_GetRegCommandParser+0x11a>
 8002dbe:	4b47      	ldr	r3, [pc, #284]	; (8002edc <RI_GetRegCommandParser+0x74c>)
 8002dc0:	f853 0022 	ldr.w	r0, [r3, r2, lsl #2]
 8002dc4:	f004 fb14 	bl	80073f0 <PID_GetKD>
 8002dc8:	2502      	movs	r5, #2
 8002dca:	8038      	strh	r0, [r7, #0]
 8002dcc:	46ae      	mov	lr, r5
 8002dce:	e56c      	b.n	80028aa <RI_GetRegCommandParser+0x11a>
 8002dd0:	4628      	mov	r0, r5
 8002dd2:	f7fe fa8b 	bl	80012ec <MCI_GetVqd>
 8002dd6:	2502      	movs	r5, #2
 8002dd8:	f3c0 430f 	ubfx	r3, r0, #16, #16
 8002ddc:	9008      	str	r0, [sp, #32]
 8002dde:	46ae      	mov	lr, r5
 8002de0:	803b      	strh	r3, [r7, #0]
 8002de2:	e562      	b.n	80028aa <RI_GetRegCommandParser+0x11a>
 8002de4:	4628      	mov	r0, r5
 8002de6:	f7fe fa81 	bl	80012ec <MCI_GetVqd>
 8002dea:	2502      	movs	r5, #2
 8002dec:	9009      	str	r0, [sp, #36]	; 0x24
 8002dee:	46ae      	mov	lr, r5
 8002df0:	8038      	strh	r0, [r7, #0]
 8002df2:	e55a      	b.n	80028aa <RI_GetRegCommandParser+0x11a>
 8002df4:	4b3f      	ldr	r3, [pc, #252]	; (8002ef4 <RI_GetRegCommandParser+0x764>)
 8002df6:	e70e      	b.n	8002c16 <RI_GetRegCommandParser+0x486>
 8002df8:	4b3f      	ldr	r3, [pc, #252]	; (8002ef8 <RI_GetRegCommandParser+0x768>)
 8002dfa:	e70c      	b.n	8002c16 <RI_GetRegCommandParser+0x486>
 8002dfc:	4b3d      	ldr	r3, [pc, #244]	; (8002ef4 <RI_GetRegCommandParser+0x764>)
 8002dfe:	e7df      	b.n	8002dc0 <RI_GetRegCommandParser+0x630>
 8002e00:	4628      	mov	r0, r5
 8002e02:	f7fe fa65 	bl	80012d0 <MCI_GetIqdref>
 8002e06:	2502      	movs	r5, #2
 8002e08:	900b      	str	r0, [sp, #44]	; 0x2c
 8002e0a:	46ae      	mov	lr, r5
 8002e0c:	8038      	strh	r0, [r7, #0]
 8002e0e:	e54c      	b.n	80028aa <RI_GetRegCommandParser+0x11a>
 8002e10:	4b3a      	ldr	r3, [pc, #232]	; (8002efc <RI_GetRegCommandParser+0x76c>)
 8002e12:	f853 0020 	ldr.w	r0, [r3, r0, lsl #2]
 8002e16:	f004 fa57 	bl	80072c8 <MPM_GetAvrgElMotorPowerW>
 8002e1a:	2502      	movs	r5, #2
 8002e1c:	8038      	strh	r0, [r7, #0]
 8002e1e:	46ae      	mov	lr, r5
 8002e20:	e543      	b.n	80028aa <RI_GetRegCommandParser+0x11a>
 8002e22:	4b30      	ldr	r3, [pc, #192]	; (8002ee4 <RI_GetRegCommandParser+0x754>)
 8002e24:	f853 0022 	ldr.w	r0, [r3, r2, lsl #2]
 8002e28:	f005 fde2 	bl	80089f0 <FF_GetVqdff>
 8002e2c:	2502      	movs	r5, #2
 8002e2e:	f3c0 430f 	ubfx	r3, r0, #16, #16
 8002e32:	9004      	str	r0, [sp, #16]
 8002e34:	46ae      	mov	lr, r5
 8002e36:	803b      	strh	r3, [r7, #0]
 8002e38:	e537      	b.n	80028aa <RI_GetRegCommandParser+0x11a>
 8002e3a:	4b28      	ldr	r3, [pc, #160]	; (8002edc <RI_GetRegCommandParser+0x74c>)
 8002e3c:	e7b7      	b.n	8002dae <RI_GetRegCommandParser+0x61e>
 8002e3e:	4628      	mov	r0, r5
 8002e40:	f7fe fa62 	bl	8001308 <MCI_GetValphabeta>
 8002e44:	2502      	movs	r5, #2
 8002e46:	f3c0 430f 	ubfx	r3, r0, #16, #16
 8002e4a:	9006      	str	r0, [sp, #24]
 8002e4c:	46ae      	mov	lr, r5
 8002e4e:	803b      	strh	r3, [r7, #0]
 8002e50:	e52b      	b.n	80028aa <RI_GetRegCommandParser+0x11a>
 8002e52:	4b24      	ldr	r3, [pc, #144]	; (8002ee4 <RI_GetRegCommandParser+0x754>)
 8002e54:	f853 0022 	ldr.w	r0, [r3, r2, lsl #2]
 8002e58:	f005 fdd6 	bl	8008a08 <FF_GetVqdAvPIout>
 8002e5c:	2502      	movs	r5, #2
 8002e5e:	f3c0 430f 	ubfx	r3, r0, #16, #16
 8002e62:	9002      	str	r0, [sp, #8]
 8002e64:	46ae      	mov	lr, r5
 8002e66:	803b      	strh	r3, [r7, #0]
 8002e68:	e51f      	b.n	80028aa <RI_GetRegCommandParser+0x11a>
 8002e6a:	4b23      	ldr	r3, [pc, #140]	; (8002ef8 <RI_GetRegCommandParser+0x768>)
 8002e6c:	e7a8      	b.n	8002dc0 <RI_GetRegCommandParser+0x630>
 8002e6e:	4628      	mov	r0, r5
 8002e70:	f7fe fa12 	bl	8001298 <MCI_GetIalphabeta>
 8002e74:	2502      	movs	r5, #2
 8002e76:	f3c0 430f 	ubfx	r3, r0, #16, #16
 8002e7a:	900e      	str	r0, [sp, #56]	; 0x38
 8002e7c:	46ae      	mov	lr, r5
 8002e7e:	803b      	strh	r3, [r7, #0]
 8002e80:	e513      	b.n	80028aa <RI_GetRegCommandParser+0x11a>
 8002e82:	4b1f      	ldr	r3, [pc, #124]	; (8002f00 <RI_GetRegCommandParser+0x770>)
 8002e84:	f853 0020 	ldr.w	r0, [r3, r0, lsl #2]
 8002e88:	f004 fa62 	bl	8007350 <NTC_GetAvTemp_C>
 8002e8c:	2502      	movs	r5, #2
 8002e8e:	8038      	strh	r0, [r7, #0]
 8002e90:	46ae      	mov	lr, r5
 8002e92:	e50a      	b.n	80028aa <RI_GetRegCommandParser+0x11a>
 8002e94:	4b18      	ldr	r3, [pc, #96]	; (8002ef8 <RI_GetRegCommandParser+0x768>)
 8002e96:	e78a      	b.n	8002dae <RI_GetRegCommandParser+0x61e>
 8002e98:	4628      	mov	r0, r5
 8002e9a:	f7fe fa0b 	bl	80012b4 <MCI_GetIqd>
 8002e9e:	2502      	movs	r5, #2
 8002ea0:	900d      	str	r0, [sp, #52]	; 0x34
 8002ea2:	46ae      	mov	lr, r5
 8002ea4:	8038      	strh	r0, [r7, #0]
 8002ea6:	e500      	b.n	80028aa <RI_GetRegCommandParser+0x11a>
 8002ea8:	4b0c      	ldr	r3, [pc, #48]	; (8002edc <RI_GetRegCommandParser+0x74c>)
 8002eaa:	e633      	b.n	8002b14 <RI_GetRegCommandParser+0x384>
 8002eac:	4b12      	ldr	r3, [pc, #72]	; (8002ef8 <RI_GetRegCommandParser+0x768>)
 8002eae:	e5d9      	b.n	8002a64 <RI_GetRegCommandParser+0x2d4>
 8002eb0:	4b0c      	ldr	r3, [pc, #48]	; (8002ee4 <RI_GetRegCommandParser+0x754>)
 8002eb2:	f853 0022 	ldr.w	r0, [r3, r2, lsl #2]
 8002eb6:	f005 fd9b 	bl	80089f0 <FF_GetVqdff>
 8002eba:	2502      	movs	r5, #2
 8002ebc:	9005      	str	r0, [sp, #20]
 8002ebe:	46ae      	mov	lr, r5
 8002ec0:	8038      	strh	r0, [r7, #0]
 8002ec2:	e4f2      	b.n	80028aa <RI_GetRegCommandParser+0x11a>
 8002ec4:	4b04      	ldr	r3, [pc, #16]	; (8002ed8 <RI_GetRegCommandParser+0x748>)
 8002ec6:	f853 0022 	ldr.w	r0, [r3, r2, lsl #2]
 8002eca:	f005 fb01 	bl	80084d0 <SPD_GetS16Speed>
 8002ece:	2502      	movs	r5, #2
 8002ed0:	8038      	strh	r0, [r7, #0]
 8002ed2:	46ae      	mov	lr, r5
 8002ed4:	e4e9      	b.n	80028aa <RI_GetRegCommandParser+0x11a>
 8002ed6:	bf00      	nop
 8002ed8:	2000062c 	.word	0x2000062c
 8002edc:	20000630 	.word	0x20000630
 8002ee0:	20000a08 	.word	0x20000a08
 8002ee4:	20000480 	.word	0x20000480
 8002ee8:	20000500 	.word	0x20000500
 8002eec:	200004a8 	.word	0x200004a8
 8002ef0:	200004fc 	.word	0x200004fc
 8002ef4:	2000048c 	.word	0x2000048c
 8002ef8:	20000488 	.word	0x20000488
 8002efc:	20000484 	.word	0x20000484
 8002f00:	20000494 	.word	0x20000494

08002f04 <RI_GetIDSize>:
 8002f04:	f000 0038 	and.w	r0, r0, #56	; 0x38
 8002f08:	3808      	subs	r0, #8
 8002f0a:	b2c0      	uxtb	r0, r0
 8002f0c:	2810      	cmp	r0, #16
 8002f0e:	bf9a      	itte	ls
 8002f10:	4b01      	ldrls	r3, [pc, #4]	; (8002f18 <RI_GetIDSize+0x14>)
 8002f12:	5c18      	ldrbls	r0, [r3, r0]
 8002f14:	2000      	movhi	r0, #0
 8002f16:	4770      	bx	lr
 8002f18:	08008cf4 	.word	0x08008cf4

08002f1c <RI_GetPtrReg>:
 8002f1c:	f000 0238 	and.w	r2, r0, #56	; 0x38
 8002f20:	2a10      	cmp	r2, #16
 8002f22:	b2c3      	uxtb	r3, r0
 8002f24:	d001      	beq.n	8002f2a <RI_GetPtrReg+0xe>
 8002f26:	2000      	movs	r0, #0
 8002f28:	4770      	bx	lr
 8002f2a:	f003 0207 	and.w	r2, r3, #7
 8002f2e:	f020 0007 	bic.w	r0, r0, #7
 8002f32:	3a01      	subs	r2, #1
 8002f34:	f5b0 6f15 	cmp.w	r0, #2384	; 0x950
 8002f38:	b2d2      	uxtb	r2, r2
 8002f3a:	b283      	uxth	r3, r0
 8002f3c:	d06a      	beq.n	8003014 <RI_GetPtrReg+0xf8>
 8002f3e:	d821      	bhi.n	8002f84 <RI_GetPtrReg+0x68>
 8002f40:	f5b3 6f09 	cmp.w	r3, #2192	; 0x890
 8002f44:	d06f      	beq.n	8003026 <RI_GetPtrReg+0x10a>
 8002f46:	d80e      	bhi.n	8002f66 <RI_GetPtrReg+0x4a>
 8002f48:	f5b3 6f01 	cmp.w	r3, #2064	; 0x810
 8002f4c:	d074      	beq.n	8003038 <RI_GetPtrReg+0x11c>
 8002f4e:	f5b3 6f05 	cmp.w	r3, #2128	; 0x850
 8002f52:	d139      	bne.n	8002fc8 <RI_GetPtrReg+0xac>
 8002f54:	4b41      	ldr	r3, [pc, #260]	; (800305c <RI_GetPtrReg+0x140>)
 8002f56:	ebc2 02c2 	rsb	r2, r2, r2, lsl #3
 8002f5a:	eb03 0282 	add.w	r2, r3, r2, lsl #2
 8002f5e:	6893      	ldr	r3, [r2, #8]
 8002f60:	3304      	adds	r3, #4
 8002f62:	600b      	str	r3, [r1, #0]
 8002f64:	e7df      	b.n	8002f26 <RI_GetPtrReg+0xa>
 8002f66:	f5b3 6f0d 	cmp.w	r3, #2256	; 0x8d0
 8002f6a:	d041      	beq.n	8002ff0 <RI_GetPtrReg+0xd4>
 8002f6c:	f5b3 6f11 	cmp.w	r3, #2320	; 0x910
 8002f70:	d1d9      	bne.n	8002f26 <RI_GetPtrReg+0xa>
 8002f72:	4b3a      	ldr	r3, [pc, #232]	; (800305c <RI_GetPtrReg+0x140>)
 8002f74:	ebc2 02c2 	rsb	r2, r2, r2, lsl #3
 8002f78:	eb03 0282 	add.w	r2, r3, r2, lsl #2
 8002f7c:	6893      	ldr	r3, [r2, #8]
 8002f7e:	330e      	adds	r3, #14
 8002f80:	600b      	str	r3, [r1, #0]
 8002f82:	e7d0      	b.n	8002f26 <RI_GetPtrReg+0xa>
 8002f84:	f5b3 6f21 	cmp.w	r3, #2576	; 0xa10
 8002f88:	d05f      	beq.n	800304a <RI_GetPtrReg+0x12e>
 8002f8a:	d90e      	bls.n	8002faa <RI_GetPtrReg+0x8e>
 8002f8c:	f5b3 6f25 	cmp.w	r3, #2640	; 0xa50
 8002f90:	d037      	beq.n	8003002 <RI_GetPtrReg+0xe6>
 8002f92:	f5b3 6f29 	cmp.w	r3, #2704	; 0xa90
 8002f96:	d1c6      	bne.n	8002f26 <RI_GetPtrReg+0xa>
 8002f98:	4b30      	ldr	r3, [pc, #192]	; (800305c <RI_GetPtrReg+0x140>)
 8002f9a:	ebc2 02c2 	rsb	r2, r2, r2, lsl #3
 8002f9e:	eb03 0282 	add.w	r2, r3, r2, lsl #2
 8002fa2:	6893      	ldr	r3, [r2, #8]
 8002fa4:	331c      	adds	r3, #28
 8002fa6:	600b      	str	r3, [r1, #0]
 8002fa8:	e7bd      	b.n	8002f26 <RI_GetPtrReg+0xa>
 8002faa:	f5b3 6f19 	cmp.w	r3, #2448	; 0x990
 8002fae:	d016      	beq.n	8002fde <RI_GetPtrReg+0xc2>
 8002fb0:	f5b3 6f1d 	cmp.w	r3, #2512	; 0x9d0
 8002fb4:	d1b7      	bne.n	8002f26 <RI_GetPtrReg+0xa>
 8002fb6:	4b29      	ldr	r3, [pc, #164]	; (800305c <RI_GetPtrReg+0x140>)
 8002fb8:	ebc2 02c2 	rsb	r2, r2, r2, lsl #3
 8002fbc:	eb03 0282 	add.w	r2, r3, r2, lsl #2
 8002fc0:	6893      	ldr	r3, [r2, #8]
 8002fc2:	3316      	adds	r3, #22
 8002fc4:	600b      	str	r3, [r1, #0]
 8002fc6:	e7ae      	b.n	8002f26 <RI_GetPtrReg+0xa>
 8002fc8:	f5b3 6ffa 	cmp.w	r3, #2000	; 0x7d0
 8002fcc:	d1ab      	bne.n	8002f26 <RI_GetPtrReg+0xa>
 8002fce:	4b23      	ldr	r3, [pc, #140]	; (800305c <RI_GetPtrReg+0x140>)
 8002fd0:	ebc2 02c2 	rsb	r2, r2, r2, lsl #3
 8002fd4:	eb03 0282 	add.w	r2, r3, r2, lsl #2
 8002fd8:	6893      	ldr	r3, [r2, #8]
 8002fda:	600b      	str	r3, [r1, #0]
 8002fdc:	e7a3      	b.n	8002f26 <RI_GetPtrReg+0xa>
 8002fde:	4b1f      	ldr	r3, [pc, #124]	; (800305c <RI_GetPtrReg+0x140>)
 8002fe0:	ebc2 02c2 	rsb	r2, r2, r2, lsl #3
 8002fe4:	eb03 0282 	add.w	r2, r3, r2, lsl #2
 8002fe8:	6893      	ldr	r3, [r2, #8]
 8002fea:	3312      	adds	r3, #18
 8002fec:	600b      	str	r3, [r1, #0]
 8002fee:	e79a      	b.n	8002f26 <RI_GetPtrReg+0xa>
 8002ff0:	4b1a      	ldr	r3, [pc, #104]	; (800305c <RI_GetPtrReg+0x140>)
 8002ff2:	ebc2 02c2 	rsb	r2, r2, r2, lsl #3
 8002ff6:	eb03 0282 	add.w	r2, r3, r2, lsl #2
 8002ffa:	6893      	ldr	r3, [r2, #8]
 8002ffc:	330c      	adds	r3, #12
 8002ffe:	600b      	str	r3, [r1, #0]
 8003000:	e791      	b.n	8002f26 <RI_GetPtrReg+0xa>
 8003002:	4b16      	ldr	r3, [pc, #88]	; (800305c <RI_GetPtrReg+0x140>)
 8003004:	ebc2 02c2 	rsb	r2, r2, r2, lsl #3
 8003008:	eb03 0282 	add.w	r2, r3, r2, lsl #2
 800300c:	6893      	ldr	r3, [r2, #8]
 800300e:	331a      	adds	r3, #26
 8003010:	600b      	str	r3, [r1, #0]
 8003012:	e788      	b.n	8002f26 <RI_GetPtrReg+0xa>
 8003014:	4b11      	ldr	r3, [pc, #68]	; (800305c <RI_GetPtrReg+0x140>)
 8003016:	ebc2 02c2 	rsb	r2, r2, r2, lsl #3
 800301a:	eb03 0282 	add.w	r2, r3, r2, lsl #2
 800301e:	6893      	ldr	r3, [r2, #8]
 8003020:	3310      	adds	r3, #16
 8003022:	600b      	str	r3, [r1, #0]
 8003024:	e77f      	b.n	8002f26 <RI_GetPtrReg+0xa>
 8003026:	4b0d      	ldr	r3, [pc, #52]	; (800305c <RI_GetPtrReg+0x140>)
 8003028:	ebc2 02c2 	rsb	r2, r2, r2, lsl #3
 800302c:	eb03 0282 	add.w	r2, r3, r2, lsl #2
 8003030:	6893      	ldr	r3, [r2, #8]
 8003032:	3306      	adds	r3, #6
 8003034:	600b      	str	r3, [r1, #0]
 8003036:	e776      	b.n	8002f26 <RI_GetPtrReg+0xa>
 8003038:	4b08      	ldr	r3, [pc, #32]	; (800305c <RI_GetPtrReg+0x140>)
 800303a:	ebc2 02c2 	rsb	r2, r2, r2, lsl #3
 800303e:	eb03 0282 	add.w	r2, r3, r2, lsl #2
 8003042:	6893      	ldr	r3, [r2, #8]
 8003044:	3302      	adds	r3, #2
 8003046:	600b      	str	r3, [r1, #0]
 8003048:	e76d      	b.n	8002f26 <RI_GetPtrReg+0xa>
 800304a:	4b04      	ldr	r3, [pc, #16]	; (800305c <RI_GetPtrReg+0x140>)
 800304c:	ebc2 02c2 	rsb	r2, r2, r2, lsl #3
 8003050:	eb03 0282 	add.w	r2, r3, r2, lsl #2
 8003054:	6893      	ldr	r3, [r2, #8]
 8003056:	3318      	adds	r3, #24
 8003058:	600b      	str	r3, [r1, #0]
 800305a:	e764      	b.n	8002f26 <RI_GetPtrReg+0xa>
 800305c:	200009ec 	.word	0x200009ec

08003060 <RCM_RegisterRegConv>:
 8003060:	4a65      	ldr	r2, [pc, #404]	; (80031f8 <RCM_RegisterRegConv+0x198>)
 8003062:	6813      	ldr	r3, [r2, #0]
 8003064:	b470      	push	{r4, r5, r6}
 8003066:	4601      	mov	r1, r0
 8003068:	2b00      	cmp	r3, #0
 800306a:	d07e      	beq.n	800316a <RCM_RegisterRegConv+0x10a>
 800306c:	7904      	ldrb	r4, [r0, #4]
 800306e:	7918      	ldrb	r0, [r3, #4]
 8003070:	4284      	cmp	r4, r0
 8003072:	d01e      	beq.n	80030b2 <RCM_RegisterRegConv+0x52>
 8003074:	6855      	ldr	r5, [r2, #4]
 8003076:	2d00      	cmp	r5, #0
 8003078:	f000 808b 	beq.w	8003192 <RCM_RegisterRegConv+0x132>
 800307c:	792b      	ldrb	r3, [r5, #4]
 800307e:	42a3      	cmp	r3, r4
 8003080:	f04f 00ff 	mov.w	r0, #255	; 0xff
 8003084:	d079      	beq.n	800317a <RCM_RegisterRegConv+0x11a>
 8003086:	6893      	ldr	r3, [r2, #8]
 8003088:	2b00      	cmp	r3, #0
 800308a:	f000 80a2 	beq.w	80031d2 <RCM_RegisterRegConv+0x172>
 800308e:	791d      	ldrb	r5, [r3, #4]
 8003090:	42a5      	cmp	r5, r4
 8003092:	d078      	beq.n	8003186 <RCM_RegisterRegConv+0x126>
 8003094:	68d3      	ldr	r3, [r2, #12]
 8003096:	2b00      	cmp	r3, #0
 8003098:	f000 80a0 	beq.w	80031dc <RCM_RegisterRegConv+0x17c>
 800309c:	791d      	ldrb	r5, [r3, #4]
 800309e:	42a5      	cmp	r5, r4
 80030a0:	f000 8082 	beq.w	80031a8 <RCM_RegisterRegConv+0x148>
 80030a4:	2803      	cmp	r0, #3
 80030a6:	bf88      	it	hi
 80030a8:	20ff      	movhi	r0, #255	; 0xff
 80030aa:	f240 80a0 	bls.w	80031ee <RCM_RegisterRegConv+0x18e>
 80030ae:	bc70      	pop	{r4, r5, r6}
 80030b0:	4770      	bx	lr
 80030b2:	6818      	ldr	r0, [r3, #0]
 80030b4:	680b      	ldr	r3, [r1, #0]
 80030b6:	4283      	cmp	r3, r0
 80030b8:	d1dc      	bne.n	8003074 <RCM_RegisterRegConv+0x14>
 80030ba:	2000      	movs	r0, #0
 80030bc:	689c      	ldr	r4, [r3, #8]
 80030be:	4d4f      	ldr	r5, [pc, #316]	; (80031fc <RCM_RegisterRegConv+0x19c>)
 80030c0:	f842 1020 	str.w	r1, [r2, r0, lsl #2]
 80030c4:	2200      	movs	r2, #0
 80030c6:	f845 2030 	str.w	r2, [r5, r0, lsl #3]
 80030ca:	07e5      	lsls	r5, r4, #31
 80030cc:	d422      	bmi.n	8003114 <RCM_RegisterRegConv+0xb4>
 80030ce:	685a      	ldr	r2, [r3, #4]
 80030d0:	2404      	movs	r4, #4
 80030d2:	f022 0204 	bic.w	r2, r2, #4
 80030d6:	605a      	str	r2, [r3, #4]
 80030d8:	601c      	str	r4, [r3, #0]
 80030da:	685a      	ldr	r2, [r3, #4]
 80030dc:	2420      	movs	r4, #32
 80030de:	f022 0220 	bic.w	r2, r2, #32
 80030e2:	605a      	str	r2, [r3, #4]
 80030e4:	601c      	str	r4, [r3, #0]
 80030e6:	689a      	ldr	r2, [r3, #8]
 80030e8:	f022 4240 	bic.w	r2, r2, #3221225472	; 0xc0000000
 80030ec:	f022 023f 	bic.w	r2, r2, #63	; 0x3f
 80030f0:	f042 4200 	orr.w	r2, r2, #2147483648	; 0x80000000
 80030f4:	609a      	str	r2, [r3, #8]
 80030f6:	689a      	ldr	r2, [r3, #8]
 80030f8:	2a00      	cmp	r2, #0
 80030fa:	dbfc      	blt.n	80030f6 <RCM_RegisterRegConv+0x96>
 80030fc:	681a      	ldr	r2, [r3, #0]
 80030fe:	07d4      	lsls	r4, r2, #31
 8003100:	d408      	bmi.n	8003114 <RCM_RegisterRegConv+0xb4>
 8003102:	4c3f      	ldr	r4, [pc, #252]	; (8003200 <RCM_RegisterRegConv+0x1a0>)
 8003104:	689a      	ldr	r2, [r3, #8]
 8003106:	4022      	ands	r2, r4
 8003108:	f042 0201 	orr.w	r2, r2, #1
 800310c:	609a      	str	r2, [r3, #8]
 800310e:	681a      	ldr	r2, [r3, #0]
 8003110:	07d2      	lsls	r2, r2, #31
 8003112:	d5f7      	bpl.n	8003104 <RCM_RegisterRegConv+0xa4>
 8003114:	4d3b      	ldr	r5, [pc, #236]	; (8003204 <RCM_RegisterRegConv+0x1a4>)
 8003116:	6b1c      	ldr	r4, [r3, #48]	; 0x30
 8003118:	eb00 0240 	add.w	r2, r0, r0, lsl #1
 800311c:	0056      	lsls	r6, r2, #1
 800311e:	eb05 0242 	add.w	r2, r5, r2, lsl #1
 8003122:	f024 040f 	bic.w	r4, r4, #15
 8003126:	7150      	strb	r0, [r2, #5]
 8003128:	7110      	strb	r0, [r2, #4]
 800312a:	2200      	movs	r2, #0
 800312c:	55aa      	strb	r2, [r5, r6]
 800312e:	631c      	str	r4, [r3, #48]	; 0x30
 8003130:	790c      	ldrb	r4, [r1, #4]
 8003132:	2c09      	cmp	r4, #9
 8003134:	d83f      	bhi.n	80031b6 <RCM_RegisterRegConv+0x156>
 8003136:	eb04 0644 	add.w	r6, r4, r4, lsl #1
 800313a:	06a2      	lsls	r2, r4, #26
 800313c:	2501      	movs	r5, #1
 800313e:	ea42 5206 	orr.w	r2, r2, r6, lsl #20
 8003142:	fa05 f404 	lsl.w	r4, r5, r4
 8003146:	4322      	orrs	r2, r4
 8003148:	0dd4      	lsrs	r4, r2, #23
 800314a:	f004 0404 	and.w	r4, r4, #4
 800314e:	3314      	adds	r3, #20
 8003150:	688d      	ldr	r5, [r1, #8]
 8003152:	58e1      	ldr	r1, [r4, r3]
 8003154:	f3c2 5204 	ubfx	r2, r2, #20, #5
 8003158:	2607      	movs	r6, #7
 800315a:	4096      	lsls	r6, r2
 800315c:	4095      	lsls	r5, r2
 800315e:	ea21 0206 	bic.w	r2, r1, r6
 8003162:	432a      	orrs	r2, r5
 8003164:	50e2      	str	r2, [r4, r3]
 8003166:	bc70      	pop	{r4, r5, r6}
 8003168:	4770      	bx	lr
 800316a:	6855      	ldr	r5, [r2, #4]
 800316c:	2d00      	cmp	r5, #0
 800316e:	d039      	beq.n	80031e4 <RCM_RegisterRegConv+0x184>
 8003170:	7904      	ldrb	r4, [r0, #4]
 8003172:	4618      	mov	r0, r3
 8003174:	792b      	ldrb	r3, [r5, #4]
 8003176:	42a3      	cmp	r3, r4
 8003178:	d185      	bne.n	8003086 <RCM_RegisterRegConv+0x26>
 800317a:	682d      	ldr	r5, [r5, #0]
 800317c:	680b      	ldr	r3, [r1, #0]
 800317e:	429d      	cmp	r5, r3
 8003180:	d181      	bne.n	8003086 <RCM_RegisterRegConv+0x26>
 8003182:	2001      	movs	r0, #1
 8003184:	e79a      	b.n	80030bc <RCM_RegisterRegConv+0x5c>
 8003186:	681d      	ldr	r5, [r3, #0]
 8003188:	680b      	ldr	r3, [r1, #0]
 800318a:	429d      	cmp	r5, r3
 800318c:	d182      	bne.n	8003094 <RCM_RegisterRegConv+0x34>
 800318e:	2002      	movs	r0, #2
 8003190:	e794      	b.n	80030bc <RCM_RegisterRegConv+0x5c>
 8003192:	6893      	ldr	r3, [r2, #8]
 8003194:	2001      	movs	r0, #1
 8003196:	2b00      	cmp	r3, #0
 8003198:	f47f af79 	bne.w	800308e <RCM_RegisterRegConv+0x2e>
 800319c:	68d3      	ldr	r3, [r2, #12]
 800319e:	b333      	cbz	r3, 80031ee <RCM_RegisterRegConv+0x18e>
 80031a0:	791d      	ldrb	r5, [r3, #4]
 80031a2:	790c      	ldrb	r4, [r1, #4]
 80031a4:	42a5      	cmp	r5, r4
 80031a6:	d122      	bne.n	80031ee <RCM_RegisterRegConv+0x18e>
 80031a8:	681c      	ldr	r4, [r3, #0]
 80031aa:	680b      	ldr	r3, [r1, #0]
 80031ac:	429c      	cmp	r4, r3
 80031ae:	f47f af79 	bne.w	80030a4 <RCM_RegisterRegConv+0x44>
 80031b2:	2003      	movs	r0, #3
 80031b4:	e782      	b.n	80030bc <RCM_RegisterRegConv+0x5c>
 80031b6:	2503      	movs	r5, #3
 80031b8:	f06f 061d 	mvn.w	r6, #29
 80031bc:	2201      	movs	r2, #1
 80031be:	fb15 6504 	smlabb	r5, r5, r4, r6
 80031c2:	40a2      	lsls	r2, r4
 80031c4:	ea42 5205 	orr.w	r2, r2, r5, lsl #20
 80031c8:	ea42 6284 	orr.w	r2, r2, r4, lsl #26
 80031cc:	f042 7200 	orr.w	r2, r2, #33554432	; 0x2000000
 80031d0:	e7ba      	b.n	8003148 <RCM_RegisterRegConv+0xe8>
 80031d2:	2805      	cmp	r0, #5
 80031d4:	bf34      	ite	cc
 80031d6:	2000      	movcc	r0, #0
 80031d8:	2002      	movcs	r0, #2
 80031da:	e7df      	b.n	800319c <RCM_RegisterRegConv+0x13c>
 80031dc:	2804      	cmp	r0, #4
 80031de:	680b      	ldr	r3, [r1, #0]
 80031e0:	d8e7      	bhi.n	80031b2 <RCM_RegisterRegConv+0x152>
 80031e2:	e76b      	b.n	80030bc <RCM_RegisterRegConv+0x5c>
 80031e4:	6893      	ldr	r3, [r2, #8]
 80031e6:	b123      	cbz	r3, 80031f2 <RCM_RegisterRegConv+0x192>
 80031e8:	790c      	ldrb	r4, [r1, #4]
 80031ea:	4628      	mov	r0, r5
 80031ec:	e74f      	b.n	800308e <RCM_RegisterRegConv+0x2e>
 80031ee:	680b      	ldr	r3, [r1, #0]
 80031f0:	e764      	b.n	80030bc <RCM_RegisterRegConv+0x5c>
 80031f2:	4618      	mov	r0, r3
 80031f4:	e7d2      	b.n	800319c <RCM_RegisterRegConv+0x13c>
 80031f6:	bf00      	nop
 80031f8:	20001cbc 	.word	0x20001cbc
 80031fc:	20001c98 	.word	0x20001c98
 8003200:	7fffffc0 	.word	0x7fffffc0
 8003204:	20001c80 	.word	0x20001c80

08003208 <RCM_ExecRegularConv>:
 8003208:	4b5c      	ldr	r3, [pc, #368]	; (800337c <RCM_ExecRegularConv+0x174>)
 800320a:	eb00 0240 	add.w	r2, r0, r0, lsl #1
 800320e:	b4f0      	push	{r4, r5, r6, r7}
 8003210:	f813 2012 	ldrb.w	r2, [r3, r2, lsl #1]
 8003214:	0044      	lsls	r4, r0, #1
 8003216:	2a00      	cmp	r2, #0
 8003218:	d136      	bne.n	8003288 <RCM_ExecRegularConv+0x80>
 800321a:	7819      	ldrb	r1, [r3, #0]
 800321c:	2900      	cmp	r1, #0
 800321e:	d179      	bne.n	8003314 <RCM_ExecRegularConv+0x10c>
 8003220:	7999      	ldrb	r1, [r3, #6]
 8003222:	2204      	movs	r2, #4
 8003224:	2900      	cmp	r1, #0
 8003226:	d07b      	beq.n	8003320 <RCM_ExecRegularConv+0x118>
 8003228:	7ade      	ldrb	r6, [r3, #11]
 800322a:	42b0      	cmp	r0, r6
 800322c:	f0c0 8098 	bcc.w	8003360 <RCM_ExecRegularConv+0x158>
 8003230:	7b1a      	ldrb	r2, [r3, #12]
 8003232:	2a00      	cmp	r2, #0
 8003234:	f000 8097 	beq.w	8003366 <RCM_ExecRegularConv+0x15e>
 8003238:	7c5e      	ldrb	r6, [r3, #17]
 800323a:	42b0      	cmp	r0, r6
 800323c:	d305      	bcc.n	800324a <RCM_ExecRegularConv+0x42>
 800323e:	7c9a      	ldrb	r2, [r3, #18]
 8003240:	2a00      	cmp	r2, #0
 8003242:	f040 8094 	bne.w	800336e <RCM_ExecRegularConv+0x166>
 8003246:	2202      	movs	r2, #2
 8003248:	e071      	b.n	800332e <RCM_ExecRegularConv+0x126>
 800324a:	2202      	movs	r2, #2
 800324c:	4611      	mov	r1, r2
 800324e:	eb01 0541 	add.w	r5, r1, r1, lsl #1
 8003252:	1821      	adds	r1, r4, r0
 8003254:	eb03 0141 	add.w	r1, r3, r1, lsl #1
 8003258:	eb06 0746 	add.w	r7, r6, r6, lsl #1
 800325c:	714e      	strb	r6, [r1, #5]
 800325e:	4e48      	ldr	r6, [pc, #288]	; (8003380 <RCM_ExecRegularConv+0x178>)
 8003260:	710a      	strb	r2, [r1, #4]
 8003262:	eb03 0545 	add.w	r5, r3, r5, lsl #1
 8003266:	eb03 0747 	add.w	r7, r3, r7, lsl #1
 800326a:	7832      	ldrb	r2, [r6, #0]
 800326c:	7168      	strb	r0, [r5, #5]
 800326e:	7138      	strb	r0, [r7, #4]
 8003270:	1821      	adds	r1, r4, r0
 8003272:	2501      	movs	r5, #1
 8003274:	eb02 0242 	add.w	r2, r2, r2, lsl #1
 8003278:	f823 5011 	strh.w	r5, [r3, r1, lsl #1]
 800327c:	eb03 0242 	add.w	r2, r3, r2, lsl #1
 8003280:	7852      	ldrb	r2, [r2, #1]
 8003282:	42aa      	cmp	r2, r5
 8003284:	bf18      	it	ne
 8003286:	7030      	strbne	r0, [r6, #0]
 8003288:	4a3e      	ldr	r2, [pc, #248]	; (8003384 <RCM_ExecRegularConv+0x17c>)
 800328a:	f892 208c 	ldrb.w	r2, [r2, #140]	; 0x8c
 800328e:	bb8a      	cbnz	r2, 80032f4 <RCM_ExecRegularConv+0xec>
 8003290:	4a3d      	ldr	r2, [pc, #244]	; (8003388 <RCM_ExecRegularConv+0x180>)
 8003292:	f852 2020 	ldr.w	r2, [r2, r0, lsl #2]
 8003296:	7915      	ldrb	r5, [r2, #4]
 8003298:	6811      	ldr	r1, [r2, #0]
 800329a:	2d09      	cmp	r5, #9
 800329c:	d930      	bls.n	8003300 <RCM_ExecRegularConv+0xf8>
 800329e:	2603      	movs	r6, #3
 80032a0:	f06f 071d 	mvn.w	r7, #29
 80032a4:	2201      	movs	r2, #1
 80032a6:	fb16 7605 	smlabb	r6, r6, r5, r7
 80032aa:	40aa      	lsls	r2, r5
 80032ac:	ea42 5206 	orr.w	r2, r2, r6, lsl #20
 80032b0:	ea42 6285 	orr.w	r2, r2, r5, lsl #26
 80032b4:	f042 7200 	orr.w	r2, r2, #33554432	; 0x2000000
 80032b8:	6b0d      	ldr	r5, [r1, #48]	; 0x30
 80032ba:	0d12      	lsrs	r2, r2, #20
 80032bc:	f402 62f8 	and.w	r2, r2, #1984	; 0x7c0
 80032c0:	f425 65f8 	bic.w	r5, r5, #1984	; 0x7c0
 80032c4:	432a      	orrs	r2, r5
 80032c6:	630a      	str	r2, [r1, #48]	; 0x30
 80032c8:	6c0a      	ldr	r2, [r1, #64]	; 0x40
 80032ca:	688a      	ldr	r2, [r1, #8]
 80032cc:	f022 4200 	bic.w	r2, r2, #2147483648	; 0x80000000
 80032d0:	f022 023f 	bic.w	r2, r2, #63	; 0x3f
 80032d4:	f042 0204 	orr.w	r2, r2, #4
 80032d8:	608a      	str	r2, [r1, #8]
 80032da:	680a      	ldr	r2, [r1, #0]
 80032dc:	0752      	lsls	r2, r2, #29
 80032de:	d5fc      	bpl.n	80032da <RCM_ExecRegularConv+0xd2>
 80032e0:	1822      	adds	r2, r4, r0
 80032e2:	eb03 0242 	add.w	r2, r3, r2, lsl #1
 80032e6:	6c09      	ldr	r1, [r1, #64]	; 0x40
 80032e8:	8051      	strh	r1, [r2, #2]
 80032ea:	4d25      	ldr	r5, [pc, #148]	; (8003380 <RCM_ExecRegularConv+0x178>)
 80032ec:	2102      	movs	r1, #2
 80032ee:	7051      	strb	r1, [r2, #1]
 80032f0:	7952      	ldrb	r2, [r2, #5]
 80032f2:	702a      	strb	r2, [r5, #0]
 80032f4:	4420      	add	r0, r4
 80032f6:	eb03 0340 	add.w	r3, r3, r0, lsl #1
 80032fa:	bcf0      	pop	{r4, r5, r6, r7}
 80032fc:	8858      	ldrh	r0, [r3, #2]
 80032fe:	4770      	bx	lr
 8003300:	eb05 0745 	add.w	r7, r5, r5, lsl #1
 8003304:	06aa      	lsls	r2, r5, #26
 8003306:	2601      	movs	r6, #1
 8003308:	ea42 5207 	orr.w	r2, r2, r7, lsl #20
 800330c:	fa06 f505 	lsl.w	r5, r6, r5
 8003310:	432a      	orrs	r2, r5
 8003312:	e7d1      	b.n	80032b8 <RCM_ExecRegularConv+0xb0>
 8003314:	795e      	ldrb	r6, [r3, #5]
 8003316:	4286      	cmp	r6, r0
 8003318:	d898      	bhi.n	800324c <RCM_ExecRegularConv+0x44>
 800331a:	7999      	ldrb	r1, [r3, #6]
 800331c:	2900      	cmp	r1, #0
 800331e:	d183      	bne.n	8003228 <RCM_ExecRegularConv+0x20>
 8003320:	7b19      	ldrb	r1, [r3, #12]
 8003322:	2900      	cmp	r1, #0
 8003324:	d188      	bne.n	8003238 <RCM_ExecRegularConv+0x30>
 8003326:	7c99      	ldrb	r1, [r3, #18]
 8003328:	bb09      	cbnz	r1, 800336e <RCM_ExecRegularConv+0x166>
 800332a:	2a04      	cmp	r2, #4
 800332c:	d014      	beq.n	8003358 <RCM_ExecRegularConv+0x150>
 800332e:	eb02 0542 	add.w	r5, r2, r2, lsl #1
 8003332:	eb03 0545 	add.w	r5, r3, r5, lsl #1
 8003336:	1821      	adds	r1, r4, r0
 8003338:	f895 c005 	ldrb.w	ip, [r5, #5]
 800333c:	4e10      	ldr	r6, [pc, #64]	; (8003380 <RCM_ExecRegularConv+0x178>)
 800333e:	eb0c 074c 	add.w	r7, ip, ip, lsl #1
 8003342:	eb03 0141 	add.w	r1, r3, r1, lsl #1
 8003346:	eb03 0747 	add.w	r7, r3, r7, lsl #1
 800334a:	710a      	strb	r2, [r1, #4]
 800334c:	f881 c005 	strb.w	ip, [r1, #5]
 8003350:	7832      	ldrb	r2, [r6, #0]
 8003352:	7168      	strb	r0, [r5, #5]
 8003354:	7138      	strb	r0, [r7, #4]
 8003356:	e78b      	b.n	8003270 <RCM_ExecRegularConv+0x68>
 8003358:	4e09      	ldr	r6, [pc, #36]	; (8003380 <RCM_ExecRegularConv+0x178>)
 800335a:	4602      	mov	r2, r0
 800335c:	7030      	strb	r0, [r6, #0]
 800335e:	e787      	b.n	8003270 <RCM_ExecRegularConv+0x68>
 8003360:	2201      	movs	r2, #1
 8003362:	4611      	mov	r1, r2
 8003364:	e773      	b.n	800324e <RCM_ExecRegularConv+0x46>
 8003366:	7c9a      	ldrb	r2, [r3, #18]
 8003368:	b90a      	cbnz	r2, 800336e <RCM_ExecRegularConv+0x166>
 800336a:	2201      	movs	r2, #1
 800336c:	e7df      	b.n	800332e <RCM_ExecRegularConv+0x126>
 800336e:	7dde      	ldrb	r6, [r3, #23]
 8003370:	4286      	cmp	r6, r0
 8003372:	f04f 0203 	mov.w	r2, #3
 8003376:	d9da      	bls.n	800332e <RCM_ExecRegularConv+0x126>
 8003378:	e768      	b.n	800324c <RCM_ExecRegularConv+0x44>
 800337a:	bf00      	nop
 800337c:	20001c80 	.word	0x20001c80
 8003380:	20001c7c 	.word	0x20001c7c
 8003384:	20000344 	.word	0x20000344
 8003388:	20001cbc 	.word	0x20001cbc

0800338c <RCM_RequestUserConv>:
 800338c:	4a05      	ldr	r2, [pc, #20]	; (80033a4 <RCM_RequestUserConv+0x18>)
 800338e:	7813      	ldrb	r3, [r2, #0]
 8003390:	b92b      	cbnz	r3, 800339e <RCM_RequestUserConv+0x12>
 8003392:	4905      	ldr	r1, [pc, #20]	; (80033a8 <RCM_RequestUserConv+0x1c>)
 8003394:	2301      	movs	r3, #1
 8003396:	7008      	strb	r0, [r1, #0]
 8003398:	7013      	strb	r3, [r2, #0]
 800339a:	4618      	mov	r0, r3
 800339c:	4770      	bx	lr
 800339e:	2000      	movs	r0, #0
 80033a0:	4770      	bx	lr
 80033a2:	bf00      	nop
 80033a4:	20001cb8 	.word	0x20001cb8
 80033a8:	20001c7d 	.word	0x20001c7d

080033ac <RCM_GetUserConv>:
 80033ac:	4b05      	ldr	r3, [pc, #20]	; (80033c4 <RCM_GetUserConv+0x18>)
 80033ae:	781a      	ldrb	r2, [r3, #0]
 80033b0:	2a02      	cmp	r2, #2
 80033b2:	d002      	beq.n	80033ba <RCM_GetUserConv+0xe>
 80033b4:	f64f 70ff 	movw	r0, #65535	; 0xffff
 80033b8:	4770      	bx	lr
 80033ba:	4903      	ldr	r1, [pc, #12]	; (80033c8 <RCM_GetUserConv+0x1c>)
 80033bc:	2200      	movs	r2, #0
 80033be:	8808      	ldrh	r0, [r1, #0]
 80033c0:	701a      	strb	r2, [r3, #0]
 80033c2:	4770      	bx	lr
 80033c4:	20001cb8 	.word	0x20001cb8
 80033c8:	20001ccc 	.word	0x20001ccc

080033cc <RCM_ExecUserConv>:
 80033cc:	b570      	push	{r4, r5, r6, lr}
 80033ce:	4c12      	ldr	r4, [pc, #72]	; (8003418 <RCM_ExecUserConv+0x4c>)
 80033d0:	7823      	ldrb	r3, [r4, #0]
 80033d2:	2b01      	cmp	r3, #1
 80033d4:	d000      	beq.n	80033d8 <RCM_ExecUserConv+0xc>
 80033d6:	bd70      	pop	{r4, r5, r6, pc}
 80033d8:	4d10      	ldr	r5, [pc, #64]	; (800341c <RCM_ExecUserConv+0x50>)
 80033da:	7828      	ldrb	r0, [r5, #0]
 80033dc:	f7ff ff14 	bl	8003208 <RCM_ExecRegularConv>
 80033e0:	782b      	ldrb	r3, [r5, #0]
 80033e2:	4a0f      	ldr	r2, [pc, #60]	; (8003420 <RCM_ExecUserConv+0x54>)
 80033e4:	490f      	ldr	r1, [pc, #60]	; (8003424 <RCM_ExecUserConv+0x58>)
 80033e6:	eb03 0543 	add.w	r5, r3, r3, lsl #1
 80033ea:	eb02 0245 	add.w	r2, r2, r5, lsl #1
 80033ee:	8008      	strh	r0, [r1, #0]
 80033f0:	7852      	ldrb	r2, [r2, #1]
 80033f2:	b10a      	cbz	r2, 80033f8 <RCM_ExecUserConv+0x2c>
 80033f4:	2202      	movs	r2, #2
 80033f6:	7022      	strb	r2, [r4, #0]
 80033f8:	4a0b      	ldr	r2, [pc, #44]	; (8003428 <RCM_ExecUserConv+0x5c>)
 80033fa:	f852 5033 	ldr.w	r5, [r2, r3, lsl #3]
 80033fe:	2d00      	cmp	r5, #0
 8003400:	d0e9      	beq.n	80033d6 <RCM_ExecUserConv+0xa>
 8003402:	eb02 02c3 	add.w	r2, r2, r3, lsl #3
 8003406:	2100      	movs	r1, #0
 8003408:	7021      	strb	r1, [r4, #0]
 800340a:	6852      	ldr	r2, [r2, #4]
 800340c:	4601      	mov	r1, r0
 800340e:	4618      	mov	r0, r3
 8003410:	462b      	mov	r3, r5
 8003412:	e8bd 4070 	ldmia.w	sp!, {r4, r5, r6, lr}
 8003416:	4718      	bx	r3
 8003418:	20001cb8 	.word	0x20001cb8
 800341c:	20001c7d 	.word	0x20001c7d
 8003420:	20001c80 	.word	0x20001c80
 8003424:	20001ccc 	.word	0x20001ccc
 8003428:	20001c98 	.word	0x20001c98

0800342c <RCM_GetUserConvState>:
 800342c:	4b01      	ldr	r3, [pc, #4]	; (8003434 <RCM_GetUserConvState+0x8>)
 800342e:	7818      	ldrb	r0, [r3, #0]
 8003430:	4770      	bx	lr
 8003432:	bf00      	nop
 8003434:	20001cb8 	.word	0x20001cb8

08003438 <RCM_ExecNextConv>:
 8003438:	4b21      	ldr	r3, [pc, #132]	; (80034c0 <RCM_ExecNextConv+0x88>)
 800343a:	4822      	ldr	r0, [pc, #136]	; (80034c4 <RCM_ExecNextConv+0x8c>)
 800343c:	781a      	ldrb	r2, [r3, #0]
 800343e:	eb02 0342 	add.w	r3, r2, r2, lsl #1
 8003442:	f810 3013 	ldrb.w	r3, [r0, r3, lsl #1]
 8003446:	b383      	cbz	r3, 80034aa <RCM_ExecNextConv+0x72>
 8003448:	4b1f      	ldr	r3, [pc, #124]	; (80034c8 <RCM_ExecNextConv+0x90>)
 800344a:	b4f0      	push	{r4, r5, r6, r7}
 800344c:	f853 3022 	ldr.w	r3, [r3, r2, lsl #2]
 8003450:	6819      	ldr	r1, [r3, #0]
 8003452:	2504      	movs	r5, #4
 8003454:	600d      	str	r5, [r1, #0]
 8003456:	791d      	ldrb	r5, [r3, #4]
 8003458:	2d09      	cmp	r5, #9
 800345a:	ea4f 0442 	mov.w	r4, r2, lsl #1
 800345e:	d925      	bls.n	80034ac <RCM_ExecNextConv+0x74>
 8003460:	2603      	movs	r6, #3
 8003462:	f06f 071d 	mvn.w	r7, #29
 8003466:	2301      	movs	r3, #1
 8003468:	fb16 7605 	smlabb	r6, r6, r5, r7
 800346c:	40ab      	lsls	r3, r5
 800346e:	ea43 5306 	orr.w	r3, r3, r6, lsl #20
 8003472:	ea43 6385 	orr.w	r3, r3, r5, lsl #26
 8003476:	f043 7300 	orr.w	r3, r3, #33554432	; 0x2000000
 800347a:	6b0d      	ldr	r5, [r1, #48]	; 0x30
 800347c:	0d1b      	lsrs	r3, r3, #20
 800347e:	f425 65f8 	bic.w	r5, r5, #1984	; 0x7c0
 8003482:	f403 63f8 	and.w	r3, r3, #1984	; 0x7c0
 8003486:	432b      	orrs	r3, r5
 8003488:	630b      	str	r3, [r1, #48]	; 0x30
 800348a:	6c0b      	ldr	r3, [r1, #64]	; 0x40
 800348c:	688b      	ldr	r3, [r1, #8]
 800348e:	4422      	add	r2, r4
 8003490:	f023 4300 	bic.w	r3, r3, #2147483648	; 0x80000000
 8003494:	eb00 0042 	add.w	r0, r0, r2, lsl #1
 8003498:	f023 033f 	bic.w	r3, r3, #63	; 0x3f
 800349c:	f043 0304 	orr.w	r3, r3, #4
 80034a0:	2201      	movs	r2, #1
 80034a2:	608b      	str	r3, [r1, #8]
 80034a4:	7042      	strb	r2, [r0, #1]
 80034a6:	bcf0      	pop	{r4, r5, r6, r7}
 80034a8:	4770      	bx	lr
 80034aa:	4770      	bx	lr
 80034ac:	eb05 0745 	add.w	r7, r5, r5, lsl #1
 80034b0:	06ab      	lsls	r3, r5, #26
 80034b2:	2601      	movs	r6, #1
 80034b4:	ea43 5307 	orr.w	r3, r3, r7, lsl #20
 80034b8:	fa06 f505 	lsl.w	r5, r6, r5
 80034bc:	432b      	orrs	r3, r5
 80034be:	e7dc      	b.n	800347a <RCM_ExecNextConv+0x42>
 80034c0:	20001c7c 	.word	0x20001c7c
 80034c4:	20001c80 	.word	0x20001c80
 80034c8:	20001cbc 	.word	0x20001cbc

080034cc <RCM_ReadOngoingConv>:
 80034cc:	b470      	push	{r4, r5, r6}
 80034ce:	4c0f      	ldr	r4, [pc, #60]	; (800350c <RCM_ReadOngoingConv+0x40>)
 80034d0:	4a0f      	ldr	r2, [pc, #60]	; (8003510 <RCM_ReadOngoingConv+0x44>)
 80034d2:	7823      	ldrb	r3, [r4, #0]
 80034d4:	eb03 0143 	add.w	r1, r3, r3, lsl #1
 80034d8:	eb02 0141 	add.w	r1, r2, r1, lsl #1
 80034dc:	0058      	lsls	r0, r3, #1
 80034de:	784d      	ldrb	r5, [r1, #1]
 80034e0:	2d01      	cmp	r5, #1
 80034e2:	d006      	beq.n	80034f2 <RCM_ReadOngoingConv+0x26>
 80034e4:	4403      	add	r3, r0
 80034e6:	eb02 0243 	add.w	r2, r2, r3, lsl #1
 80034ea:	7953      	ldrb	r3, [r2, #5]
 80034ec:	7023      	strb	r3, [r4, #0]
 80034ee:	bc70      	pop	{r4, r5, r6}
 80034f0:	4770      	bx	lr
 80034f2:	4d08      	ldr	r5, [pc, #32]	; (8003514 <RCM_ReadOngoingConv+0x48>)
 80034f4:	f855 5023 	ldr.w	r5, [r5, r3, lsl #2]
 80034f8:	682d      	ldr	r5, [r5, #0]
 80034fa:	682e      	ldr	r6, [r5, #0]
 80034fc:	0776      	lsls	r6, r6, #29
 80034fe:	d5f1      	bpl.n	80034e4 <RCM_ReadOngoingConv+0x18>
 8003500:	6c2d      	ldr	r5, [r5, #64]	; 0x40
 8003502:	804d      	strh	r5, [r1, #2]
 8003504:	2502      	movs	r5, #2
 8003506:	704d      	strb	r5, [r1, #1]
 8003508:	e7ec      	b.n	80034e4 <RCM_ReadOngoingConv+0x18>
 800350a:	bf00      	nop
 800350c:	20001c7c 	.word	0x20001c7c
 8003510:	20001c80 	.word	0x20001c80
 8003514:	20001cbc 	.word	0x20001cbc

08003518 <HAL_MspInit>:
 8003518:	4b0e      	ldr	r3, [pc, #56]	; (8003554 <HAL_MspInit+0x3c>)
 800351a:	b500      	push	{lr}
 800351c:	6e1a      	ldr	r2, [r3, #96]	; 0x60
 800351e:	f042 0201 	orr.w	r2, r2, #1
 8003522:	661a      	str	r2, [r3, #96]	; 0x60
 8003524:	6e1a      	ldr	r2, [r3, #96]	; 0x60
 8003526:	b083      	sub	sp, #12
 8003528:	f002 0201 	and.w	r2, r2, #1
 800352c:	9200      	str	r2, [sp, #0]
 800352e:	9a00      	ldr	r2, [sp, #0]
 8003530:	6d9a      	ldr	r2, [r3, #88]	; 0x58
 8003532:	f042 5280 	orr.w	r2, r2, #268435456	; 0x10000000
 8003536:	659a      	str	r2, [r3, #88]	; 0x58
 8003538:	6d9b      	ldr	r3, [r3, #88]	; 0x58
 800353a:	f003 5380 	and.w	r3, r3, #268435456	; 0x10000000
 800353e:	9301      	str	r3, [sp, #4]
 8003540:	2004      	movs	r0, #4
 8003542:	9b01      	ldr	r3, [sp, #4]
 8003544:	f001 fc14 	bl	8004d70 <HAL_NVIC_SetPriorityGrouping>
 8003548:	b003      	add	sp, #12
 800354a:	f85d eb04 	ldr.w	lr, [sp], #4
 800354e:	f002 b881 	b.w	8005654 <HAL_PWREx_DisableUCPDDeadBattery>
 8003552:	bf00      	nop
 8003554:	40021000 	.word	0x40021000

08003558 <HAL_ADC_MspInit>:
 8003558:	b530      	push	{r4, r5, lr}
 800355a:	6802      	ldr	r2, [r0, #0]
 800355c:	b08d      	sub	sp, #52	; 0x34
 800355e:	2300      	movs	r3, #0
 8003560:	f1b2 4fa0 	cmp.w	r2, #1342177280	; 0x50000000
 8003564:	e9cd 3306 	strd	r3, r3, [sp, #24]
 8003568:	e9cd 3308 	strd	r3, r3, [sp, #32]
 800356c:	930a      	str	r3, [sp, #40]	; 0x28
 800356e:	d021      	beq.n	80035b4 <HAL_ADC_MspInit+0x5c>
 8003570:	4b33      	ldr	r3, [pc, #204]	; (8003640 <HAL_ADC_MspInit+0xe8>)
 8003572:	429a      	cmp	r2, r3
 8003574:	d001      	beq.n	800357a <HAL_ADC_MspInit+0x22>
 8003576:	b00d      	add	sp, #52	; 0x34
 8003578:	bd30      	pop	{r4, r5, pc}
 800357a:	4a32      	ldr	r2, [pc, #200]	; (8003644 <HAL_ADC_MspInit+0xec>)
 800357c:	6813      	ldr	r3, [r2, #0]
 800357e:	3301      	adds	r3, #1
 8003580:	2b01      	cmp	r3, #1
 8003582:	6013      	str	r3, [r2, #0]
 8003584:	d051      	beq.n	800362a <HAL_ADC_MspInit+0xd2>
 8003586:	4b30      	ldr	r3, [pc, #192]	; (8003648 <HAL_ADC_MspInit+0xf0>)
 8003588:	6cda      	ldr	r2, [r3, #76]	; 0x4c
 800358a:	f042 0201 	orr.w	r2, r2, #1
 800358e:	64da      	str	r2, [r3, #76]	; 0x4c
 8003590:	6cdb      	ldr	r3, [r3, #76]	; 0x4c
 8003592:	f003 0301 	and.w	r3, r3, #1
 8003596:	9305      	str	r3, [sp, #20]
 8003598:	2240      	movs	r2, #64	; 0x40
 800359a:	2303      	movs	r3, #3
 800359c:	a906      	add	r1, sp, #24
 800359e:	2400      	movs	r4, #0
 80035a0:	f04f 4090 	mov.w	r0, #1207959552	; 0x48000000
 80035a4:	e9cd 2306 	strd	r2, r3, [sp, #24]
 80035a8:	9d05      	ldr	r5, [sp, #20]
 80035aa:	9408      	str	r4, [sp, #32]
 80035ac:	f001 fe42 	bl	8005234 <HAL_GPIO_Init>
 80035b0:	b00d      	add	sp, #52	; 0x34
 80035b2:	bd30      	pop	{r4, r5, pc}
 80035b4:	4a23      	ldr	r2, [pc, #140]	; (8003644 <HAL_ADC_MspInit+0xec>)
 80035b6:	6813      	ldr	r3, [r2, #0]
 80035b8:	3301      	adds	r3, #1
 80035ba:	2b01      	cmp	r3, #1
 80035bc:	6013      	str	r3, [r2, #0]
 80035be:	d029      	beq.n	8003614 <HAL_ADC_MspInit+0xbc>
 80035c0:	4b21      	ldr	r3, [pc, #132]	; (8003648 <HAL_ADC_MspInit+0xf0>)
 80035c2:	6cda      	ldr	r2, [r3, #76]	; 0x4c
 80035c4:	f042 0201 	orr.w	r2, r2, #1
 80035c8:	64da      	str	r2, [r3, #76]	; 0x4c
 80035ca:	6cda      	ldr	r2, [r3, #76]	; 0x4c
 80035cc:	f002 0201 	and.w	r2, r2, #1
 80035d0:	9202      	str	r2, [sp, #8]
 80035d2:	9a02      	ldr	r2, [sp, #8]
 80035d4:	6cda      	ldr	r2, [r3, #76]	; 0x4c
 80035d6:	f042 0202 	orr.w	r2, r2, #2
 80035da:	64da      	str	r2, [r3, #76]	; 0x4c
 80035dc:	6cdb      	ldr	r3, [r3, #76]	; 0x4c
 80035de:	f003 0302 	and.w	r3, r3, #2
 80035e2:	9303      	str	r3, [sp, #12]
 80035e4:	2205      	movs	r2, #5
 80035e6:	2303      	movs	r3, #3
 80035e8:	2400      	movs	r4, #0
 80035ea:	a906      	add	r1, sp, #24
 80035ec:	f04f 4090 	mov.w	r0, #1207959552	; 0x48000000
 80035f0:	e9cd 2306 	strd	r2, r3, [sp, #24]
 80035f4:	9d03      	ldr	r5, [sp, #12]
 80035f6:	9408      	str	r4, [sp, #32]
 80035f8:	f001 fe1c 	bl	8005234 <HAL_GPIO_Init>
 80035fc:	f245 0202 	movw	r2, #20482	; 0x5002
 8003600:	2303      	movs	r3, #3
 8003602:	4812      	ldr	r0, [pc, #72]	; (800364c <HAL_ADC_MspInit+0xf4>)
 8003604:	9408      	str	r4, [sp, #32]
 8003606:	a906      	add	r1, sp, #24
 8003608:	e9cd 2306 	strd	r2, r3, [sp, #24]
 800360c:	f001 fe12 	bl	8005234 <HAL_GPIO_Init>
 8003610:	b00d      	add	sp, #52	; 0x34
 8003612:	bd30      	pop	{r4, r5, pc}
 8003614:	4b0c      	ldr	r3, [pc, #48]	; (8003648 <HAL_ADC_MspInit+0xf0>)
 8003616:	6cda      	ldr	r2, [r3, #76]	; 0x4c
 8003618:	f442 5200 	orr.w	r2, r2, #8192	; 0x2000
 800361c:	64da      	str	r2, [r3, #76]	; 0x4c
 800361e:	6cdb      	ldr	r3, [r3, #76]	; 0x4c
 8003620:	f403 5300 	and.w	r3, r3, #8192	; 0x2000
 8003624:	9301      	str	r3, [sp, #4]
 8003626:	9b01      	ldr	r3, [sp, #4]
 8003628:	e7ca      	b.n	80035c0 <HAL_ADC_MspInit+0x68>
 800362a:	4b07      	ldr	r3, [pc, #28]	; (8003648 <HAL_ADC_MspInit+0xf0>)
 800362c:	6cda      	ldr	r2, [r3, #76]	; 0x4c
 800362e:	f442 5200 	orr.w	r2, r2, #8192	; 0x2000
 8003632:	64da      	str	r2, [r3, #76]	; 0x4c
 8003634:	6cdb      	ldr	r3, [r3, #76]	; 0x4c
 8003636:	f403 5300 	and.w	r3, r3, #8192	; 0x2000
 800363a:	9304      	str	r3, [sp, #16]
 800363c:	9b04      	ldr	r3, [sp, #16]
 800363e:	e7a2      	b.n	8003586 <HAL_ADC_MspInit+0x2e>
 8003640:	50000100 	.word	0x50000100
 8003644:	20000668 	.word	0x20000668
 8003648:	40021000 	.word	0x40021000
 800364c:	48000400 	.word	0x48000400

08003650 <HAL_COMP_MspInit>:
 8003650:	b510      	push	{r4, lr}
 8003652:	6802      	ldr	r2, [r0, #0]
 8003654:	4929      	ldr	r1, [pc, #164]	; (80036fc <HAL_COMP_MspInit+0xac>)
 8003656:	b08a      	sub	sp, #40	; 0x28
 8003658:	2300      	movs	r3, #0
 800365a:	428a      	cmp	r2, r1
 800365c:	e9cd 3304 	strd	r3, r3, [sp, #16]
 8003660:	e9cd 3306 	strd	r3, r3, [sp, #24]
 8003664:	9308      	str	r3, [sp, #32]
 8003666:	d007      	beq.n	8003678 <HAL_COMP_MspInit+0x28>
 8003668:	4925      	ldr	r1, [pc, #148]	; (8003700 <HAL_COMP_MspInit+0xb0>)
 800366a:	428a      	cmp	r2, r1
 800366c:	d01a      	beq.n	80036a4 <HAL_COMP_MspInit+0x54>
 800366e:	4925      	ldr	r1, [pc, #148]	; (8003704 <HAL_COMP_MspInit+0xb4>)
 8003670:	428a      	cmp	r2, r1
 8003672:	d02d      	beq.n	80036d0 <HAL_COMP_MspInit+0x80>
 8003674:	b00a      	add	sp, #40	; 0x28
 8003676:	bd10      	pop	{r4, pc}
 8003678:	4a23      	ldr	r2, [pc, #140]	; (8003708 <HAL_COMP_MspInit+0xb8>)
 800367a:	6cd1      	ldr	r1, [r2, #76]	; 0x4c
 800367c:	f041 0101 	orr.w	r1, r1, #1
 8003680:	64d1      	str	r1, [r2, #76]	; 0x4c
 8003682:	6cd2      	ldr	r2, [r2, #76]	; 0x4c
 8003684:	9306      	str	r3, [sp, #24]
 8003686:	f002 0201 	and.w	r2, r2, #1
 800368a:	9201      	str	r2, [sp, #4]
 800368c:	2303      	movs	r3, #3
 800368e:	2202      	movs	r2, #2
 8003690:	a904      	add	r1, sp, #16
 8003692:	f04f 4090 	mov.w	r0, #1207959552	; 0x48000000
 8003696:	e9cd 2304 	strd	r2, r3, [sp, #16]
 800369a:	9c01      	ldr	r4, [sp, #4]
 800369c:	f001 fdca 	bl	8005234 <HAL_GPIO_Init>
 80036a0:	b00a      	add	sp, #40	; 0x28
 80036a2:	bd10      	pop	{r4, pc}
 80036a4:	4a18      	ldr	r2, [pc, #96]	; (8003708 <HAL_COMP_MspInit+0xb8>)
 80036a6:	6cd1      	ldr	r1, [r2, #76]	; 0x4c
 80036a8:	f041 0101 	orr.w	r1, r1, #1
 80036ac:	64d1      	str	r1, [r2, #76]	; 0x4c
 80036ae:	6cd2      	ldr	r2, [r2, #76]	; 0x4c
 80036b0:	9306      	str	r3, [sp, #24]
 80036b2:	f002 0201 	and.w	r2, r2, #1
 80036b6:	9202      	str	r2, [sp, #8]
 80036b8:	2303      	movs	r3, #3
 80036ba:	2280      	movs	r2, #128	; 0x80
 80036bc:	a904      	add	r1, sp, #16
 80036be:	f04f 4090 	mov.w	r0, #1207959552	; 0x48000000
 80036c2:	e9cd 2304 	strd	r2, r3, [sp, #16]
 80036c6:	9c02      	ldr	r4, [sp, #8]
 80036c8:	f001 fdb4 	bl	8005234 <HAL_GPIO_Init>
 80036cc:	b00a      	add	sp, #40	; 0x28
 80036ce:	bd10      	pop	{r4, pc}
 80036d0:	4a0d      	ldr	r2, [pc, #52]	; (8003708 <HAL_COMP_MspInit+0xb8>)
 80036d2:	480e      	ldr	r0, [pc, #56]	; (800370c <HAL_COMP_MspInit+0xbc>)
 80036d4:	6cd1      	ldr	r1, [r2, #76]	; 0x4c
 80036d6:	f041 0102 	orr.w	r1, r1, #2
 80036da:	64d1      	str	r1, [r2, #76]	; 0x4c
 80036dc:	6cd2      	ldr	r2, [r2, #76]	; 0x4c
 80036de:	9306      	str	r3, [sp, #24]
 80036e0:	f002 0202 	and.w	r2, r2, #2
 80036e4:	9203      	str	r2, [sp, #12]
 80036e6:	2303      	movs	r3, #3
 80036e8:	2201      	movs	r2, #1
 80036ea:	a904      	add	r1, sp, #16
 80036ec:	e9cd 2304 	strd	r2, r3, [sp, #16]
 80036f0:	9c03      	ldr	r4, [sp, #12]
 80036f2:	f001 fd9f 	bl	8005234 <HAL_GPIO_Init>
 80036f6:	b00a      	add	sp, #40	; 0x28
 80036f8:	bd10      	pop	{r4, pc}
 80036fa:	bf00      	nop
 80036fc:	40010200 	.word	0x40010200
 8003700:	40010204 	.word	0x40010204
 8003704:	4001020c 	.word	0x4001020c
 8003708:	40021000 	.word	0x40021000
 800370c:	48000400 	.word	0x48000400

08003710 <HAL_CORDIC_MspInit>:
 8003710:	4b0a      	ldr	r3, [pc, #40]	; (800373c <HAL_CORDIC_MspInit+0x2c>)
 8003712:	6802      	ldr	r2, [r0, #0]
 8003714:	429a      	cmp	r2, r3
 8003716:	d000      	beq.n	800371a <HAL_CORDIC_MspInit+0xa>
 8003718:	4770      	bx	lr
 800371a:	f8d3 2448 	ldr.w	r2, [r3, #1096]	; 0x448
 800371e:	f042 0208 	orr.w	r2, r2, #8
 8003722:	f8c3 2448 	str.w	r2, [r3, #1096]	; 0x448
 8003726:	f503 6380 	add.w	r3, r3, #1024	; 0x400
 800372a:	b082      	sub	sp, #8
 800372c:	6c9b      	ldr	r3, [r3, #72]	; 0x48
 800372e:	f003 0308 	and.w	r3, r3, #8
 8003732:	9301      	str	r3, [sp, #4]
 8003734:	9b01      	ldr	r3, [sp, #4]
 8003736:	b002      	add	sp, #8
 8003738:	4770      	bx	lr
 800373a:	bf00      	nop
 800373c:	40020c00 	.word	0x40020c00

08003740 <HAL_DAC_MspInit>:
 8003740:	4b0a      	ldr	r3, [pc, #40]	; (800376c <HAL_DAC_MspInit+0x2c>)
 8003742:	6802      	ldr	r2, [r0, #0]
 8003744:	429a      	cmp	r2, r3
 8003746:	d000      	beq.n	800374a <HAL_DAC_MspInit+0xa>
 8003748:	4770      	bx	lr
 800374a:	f103 4370 	add.w	r3, r3, #4026531840	; 0xf0000000
 800374e:	f503 3300 	add.w	r3, r3, #131072	; 0x20000
 8003752:	b082      	sub	sp, #8
 8003754:	6cda      	ldr	r2, [r3, #76]	; 0x4c
 8003756:	f442 2280 	orr.w	r2, r2, #262144	; 0x40000
 800375a:	64da      	str	r2, [r3, #76]	; 0x4c
 800375c:	6cdb      	ldr	r3, [r3, #76]	; 0x4c
 800375e:	f403 2380 	and.w	r3, r3, #262144	; 0x40000
 8003762:	9301      	str	r3, [sp, #4]
 8003764:	9b01      	ldr	r3, [sp, #4]
 8003766:	b002      	add	sp, #8
 8003768:	4770      	bx	lr
 800376a:	bf00      	nop
 800376c:	50001000 	.word	0x50001000

08003770 <HAL_FDCAN_MspInit>:
 8003770:	b570      	push	{r4, r5, r6, lr}
 8003772:	6801      	ldr	r1, [r0, #0]
 8003774:	4a24      	ldr	r2, [pc, #144]	; (8003808 <HAL_FDCAN_MspInit+0x98>)
 8003776:	b08a      	sub	sp, #40	; 0x28
 8003778:	2300      	movs	r3, #0
 800377a:	4291      	cmp	r1, r2
 800377c:	e9cd 3304 	strd	r3, r3, [sp, #16]
 8003780:	e9cd 3306 	strd	r3, r3, [sp, #24]
 8003784:	9308      	str	r3, [sp, #32]
 8003786:	d001      	beq.n	800378c <HAL_FDCAN_MspInit+0x1c>
 8003788:	b00a      	add	sp, #40	; 0x28
 800378a:	bd70      	pop	{r4, r5, r6, pc}
 800378c:	f103 4380 	add.w	r3, r3, #1073741824	; 0x40000000
 8003790:	f503 3304 	add.w	r3, r3, #135168	; 0x21000
 8003794:	2400      	movs	r4, #0
 8003796:	6d9a      	ldr	r2, [r3, #88]	; 0x58
 8003798:	f042 7200 	orr.w	r2, r2, #33554432	; 0x2000000
 800379c:	659a      	str	r2, [r3, #88]	; 0x58
 800379e:	6d9a      	ldr	r2, [r3, #88]	; 0x58
 80037a0:	f002 7200 	and.w	r2, r2, #33554432	; 0x2000000
 80037a4:	9201      	str	r2, [sp, #4]
 80037a6:	9a01      	ldr	r2, [sp, #4]
 80037a8:	6cda      	ldr	r2, [r3, #76]	; 0x4c
 80037aa:	f042 0201 	orr.w	r2, r2, #1
 80037ae:	64da      	str	r2, [r3, #76]	; 0x4c
 80037b0:	6cda      	ldr	r2, [r3, #76]	; 0x4c
 80037b2:	f002 0201 	and.w	r2, r2, #1
 80037b6:	9202      	str	r2, [sp, #8]
 80037b8:	9a02      	ldr	r2, [sp, #8]
 80037ba:	6cda      	ldr	r2, [r3, #76]	; 0x4c
 80037bc:	f042 0202 	orr.w	r2, r2, #2
 80037c0:	64da      	str	r2, [r3, #76]	; 0x4c
 80037c2:	6cdb      	ldr	r3, [r3, #76]	; 0x4c
 80037c4:	f003 0302 	and.w	r3, r3, #2
 80037c8:	9303      	str	r3, [sp, #12]
 80037ca:	9803      	ldr	r0, [sp, #12]
 80037cc:	f44f 6200 	mov.w	r2, #2048	; 0x800
 80037d0:	2302      	movs	r3, #2
 80037d2:	2500      	movs	r5, #0
 80037d4:	2609      	movs	r6, #9
 80037d6:	a904      	add	r1, sp, #16
 80037d8:	f04f 4090 	mov.w	r0, #1207959552	; 0x48000000
 80037dc:	e9cd 2304 	strd	r2, r3, [sp, #16]
 80037e0:	e9cd 4506 	strd	r4, r5, [sp, #24]
 80037e4:	9608      	str	r6, [sp, #32]
 80037e6:	f001 fd25 	bl	8005234 <HAL_GPIO_Init>
 80037ea:	f44f 7200 	mov.w	r2, #512	; 0x200
 80037ee:	2302      	movs	r3, #2
 80037f0:	4806      	ldr	r0, [pc, #24]	; (800380c <HAL_FDCAN_MspInit+0x9c>)
 80037f2:	9608      	str	r6, [sp, #32]
 80037f4:	a904      	add	r1, sp, #16
 80037f6:	e9cd 4506 	strd	r4, r5, [sp, #24]
 80037fa:	e9cd 2304 	strd	r2, r3, [sp, #16]
 80037fe:	f001 fd19 	bl	8005234 <HAL_GPIO_Init>
 8003802:	b00a      	add	sp, #40	; 0x28
 8003804:	bd70      	pop	{r4, r5, r6, pc}
 8003806:	bf00      	nop
 8003808:	40006400 	.word	0x40006400
 800380c:	48000400 	.word	0x48000400

08003810 <HAL_OPAMP_MspInit>:
 8003810:	b510      	push	{r4, lr}
 8003812:	6802      	ldr	r2, [r0, #0]
 8003814:	4929      	ldr	r1, [pc, #164]	; (80038bc <HAL_OPAMP_MspInit+0xac>)
 8003816:	b08a      	sub	sp, #40	; 0x28
 8003818:	2300      	movs	r3, #0
 800381a:	428a      	cmp	r2, r1
 800381c:	e9cd 3304 	strd	r3, r3, [sp, #16]
 8003820:	e9cd 3306 	strd	r3, r3, [sp, #24]
 8003824:	9308      	str	r3, [sp, #32]
 8003826:	d007      	beq.n	8003838 <HAL_OPAMP_MspInit+0x28>
 8003828:	4925      	ldr	r1, [pc, #148]	; (80038c0 <HAL_OPAMP_MspInit+0xb0>)
 800382a:	428a      	cmp	r2, r1
 800382c:	d01a      	beq.n	8003864 <HAL_OPAMP_MspInit+0x54>
 800382e:	4925      	ldr	r1, [pc, #148]	; (80038c4 <HAL_OPAMP_MspInit+0xb4>)
 8003830:	428a      	cmp	r2, r1
 8003832:	d02d      	beq.n	8003890 <HAL_OPAMP_MspInit+0x80>
 8003834:	b00a      	add	sp, #40	; 0x28
 8003836:	bd10      	pop	{r4, pc}
 8003838:	4a23      	ldr	r2, [pc, #140]	; (80038c8 <HAL_OPAMP_MspInit+0xb8>)
 800383a:	6cd1      	ldr	r1, [r2, #76]	; 0x4c
 800383c:	f041 0101 	orr.w	r1, r1, #1
 8003840:	64d1      	str	r1, [r2, #76]	; 0x4c
 8003842:	6cd2      	ldr	r2, [r2, #76]	; 0x4c
 8003844:	9306      	str	r3, [sp, #24]
 8003846:	f002 0201 	and.w	r2, r2, #1
 800384a:	9201      	str	r2, [sp, #4]
 800384c:	2303      	movs	r3, #3
 800384e:	220e      	movs	r2, #14
 8003850:	a904      	add	r1, sp, #16
 8003852:	f04f 4090 	mov.w	r0, #1207959552	; 0x48000000
 8003856:	e9cd 2304 	strd	r2, r3, [sp, #16]
 800385a:	9c01      	ldr	r4, [sp, #4]
 800385c:	f001 fcea 	bl	8005234 <HAL_GPIO_Init>
 8003860:	b00a      	add	sp, #40	; 0x28
 8003862:	bd10      	pop	{r4, pc}
 8003864:	4a18      	ldr	r2, [pc, #96]	; (80038c8 <HAL_OPAMP_MspInit+0xb8>)
 8003866:	6cd1      	ldr	r1, [r2, #76]	; 0x4c
 8003868:	f041 0101 	orr.w	r1, r1, #1
 800386c:	64d1      	str	r1, [r2, #76]	; 0x4c
 800386e:	6cd2      	ldr	r2, [r2, #76]	; 0x4c
 8003870:	9306      	str	r3, [sp, #24]
 8003872:	f002 0201 	and.w	r2, r2, #1
 8003876:	9202      	str	r2, [sp, #8]
 8003878:	2303      	movs	r3, #3
 800387a:	22e0      	movs	r2, #224	; 0xe0
 800387c:	a904      	add	r1, sp, #16
 800387e:	f04f 4090 	mov.w	r0, #1207959552	; 0x48000000
 8003882:	e9cd 2304 	strd	r2, r3, [sp, #16]
 8003886:	9c02      	ldr	r4, [sp, #8]
 8003888:	f001 fcd4 	bl	8005234 <HAL_GPIO_Init>
 800388c:	b00a      	add	sp, #40	; 0x28
 800388e:	bd10      	pop	{r4, pc}
 8003890:	4a0d      	ldr	r2, [pc, #52]	; (80038c8 <HAL_OPAMP_MspInit+0xb8>)
 8003892:	480e      	ldr	r0, [pc, #56]	; (80038cc <HAL_OPAMP_MspInit+0xbc>)
 8003894:	6cd1      	ldr	r1, [r2, #76]	; 0x4c
 8003896:	f041 0102 	orr.w	r1, r1, #2
 800389a:	64d1      	str	r1, [r2, #76]	; 0x4c
 800389c:	6cd2      	ldr	r2, [r2, #76]	; 0x4c
 800389e:	9306      	str	r3, [sp, #24]
 80038a0:	f002 0202 	and.w	r2, r2, #2
 80038a4:	9203      	str	r2, [sp, #12]
 80038a6:	2303      	movs	r3, #3
 80038a8:	2207      	movs	r2, #7
 80038aa:	a904      	add	r1, sp, #16
 80038ac:	e9cd 2304 	strd	r2, r3, [sp, #16]
 80038b0:	9c03      	ldr	r4, [sp, #12]
 80038b2:	f001 fcbf 	bl	8005234 <HAL_GPIO_Init>
 80038b6:	b00a      	add	sp, #40	; 0x28
 80038b8:	bd10      	pop	{r4, pc}
 80038ba:	bf00      	nop
 80038bc:	40010300 	.word	0x40010300
 80038c0:	40010304 	.word	0x40010304
 80038c4:	40010308 	.word	0x40010308
 80038c8:	40021000 	.word	0x40021000
 80038cc:	48000400 	.word	0x48000400

080038d0 <HAL_TIM_Base_MspInit>:
 80038d0:	4b09      	ldr	r3, [pc, #36]	; (80038f8 <HAL_TIM_Base_MspInit+0x28>)
 80038d2:	6802      	ldr	r2, [r0, #0]
 80038d4:	429a      	cmp	r2, r3
 80038d6:	d000      	beq.n	80038da <HAL_TIM_Base_MspInit+0xa>
 80038d8:	4770      	bx	lr
 80038da:	f503 4364 	add.w	r3, r3, #58368	; 0xe400
 80038de:	b082      	sub	sp, #8
 80038e0:	6e1a      	ldr	r2, [r3, #96]	; 0x60
 80038e2:	f442 6200 	orr.w	r2, r2, #2048	; 0x800
 80038e6:	661a      	str	r2, [r3, #96]	; 0x60
 80038e8:	6e1b      	ldr	r3, [r3, #96]	; 0x60
 80038ea:	f403 6300 	and.w	r3, r3, #2048	; 0x800
 80038ee:	9301      	str	r3, [sp, #4]
 80038f0:	9b01      	ldr	r3, [sp, #4]
 80038f2:	b002      	add	sp, #8
 80038f4:	4770      	bx	lr
 80038f6:	bf00      	nop
 80038f8:	40012c00 	.word	0x40012c00

080038fc <HAL_TIM_Encoder_MspInit>:
 80038fc:	b570      	push	{r4, r5, r6, lr}
 80038fe:	6802      	ldr	r2, [r0, #0]
 8003900:	b08c      	sub	sp, #48	; 0x30
 8003902:	2300      	movs	r3, #0
 8003904:	f1b2 4f80 	cmp.w	r2, #1073741824	; 0x40000000
 8003908:	e9cd 3306 	strd	r3, r3, [sp, #24]
 800390c:	e9cd 3308 	strd	r3, r3, [sp, #32]
 8003910:	930a      	str	r3, [sp, #40]	; 0x28
 8003912:	d004      	beq.n	800391e <HAL_TIM_Encoder_MspInit+0x22>
 8003914:	4b32      	ldr	r3, [pc, #200]	; (80039e0 <HAL_TIM_Encoder_MspInit+0xe4>)
 8003916:	429a      	cmp	r2, r3
 8003918:	d03d      	beq.n	8003996 <HAL_TIM_Encoder_MspInit+0x9a>
 800391a:	b00c      	add	sp, #48	; 0x30
 800391c:	bd70      	pop	{r4, r5, r6, pc}
 800391e:	f103 4380 	add.w	r3, r3, #1073741824	; 0x40000000
 8003922:	f503 3304 	add.w	r3, r3, #135168	; 0x21000
 8003926:	2400      	movs	r4, #0
 8003928:	6d9a      	ldr	r2, [r3, #88]	; 0x58
 800392a:	f042 0201 	orr.w	r2, r2, #1
 800392e:	659a      	str	r2, [r3, #88]	; 0x58
 8003930:	6d9a      	ldr	r2, [r3, #88]	; 0x58
 8003932:	f002 0201 	and.w	r2, r2, #1
 8003936:	9201      	str	r2, [sp, #4]
 8003938:	9a01      	ldr	r2, [sp, #4]
 800393a:	6cda      	ldr	r2, [r3, #76]	; 0x4c
 800393c:	f042 0201 	orr.w	r2, r2, #1
 8003940:	64da      	str	r2, [r3, #76]	; 0x4c
 8003942:	6cda      	ldr	r2, [r3, #76]	; 0x4c
 8003944:	f002 0201 	and.w	r2, r2, #1
 8003948:	9202      	str	r2, [sp, #8]
 800394a:	9a02      	ldr	r2, [sp, #8]
 800394c:	6cda      	ldr	r2, [r3, #76]	; 0x4c
 800394e:	f042 0202 	orr.w	r2, r2, #2
 8003952:	64da      	str	r2, [r3, #76]	; 0x4c
 8003954:	6cdb      	ldr	r3, [r3, #76]	; 0x4c
 8003956:	f003 0302 	and.w	r3, r3, #2
 800395a:	9303      	str	r3, [sp, #12]
 800395c:	9803      	ldr	r0, [sp, #12]
 800395e:	f44f 4200 	mov.w	r2, #32768	; 0x8000
 8003962:	2302      	movs	r3, #2
 8003964:	2500      	movs	r5, #0
 8003966:	2601      	movs	r6, #1
 8003968:	a906      	add	r1, sp, #24
 800396a:	f04f 4090 	mov.w	r0, #1207959552	; 0x48000000
 800396e:	e9cd 2306 	strd	r2, r3, [sp, #24]
 8003972:	e9cd 4508 	strd	r4, r5, [sp, #32]
 8003976:	960a      	str	r6, [sp, #40]	; 0x28
 8003978:	f001 fc5c 	bl	8005234 <HAL_GPIO_Init>
 800397c:	2208      	movs	r2, #8
 800397e:	2302      	movs	r3, #2
 8003980:	4818      	ldr	r0, [pc, #96]	; (80039e4 <HAL_TIM_Encoder_MspInit+0xe8>)
 8003982:	960a      	str	r6, [sp, #40]	; 0x28
 8003984:	a906      	add	r1, sp, #24
 8003986:	e9cd 4508 	strd	r4, r5, [sp, #32]
 800398a:	e9cd 2306 	strd	r2, r3, [sp, #24]
 800398e:	f001 fc51 	bl	8005234 <HAL_GPIO_Init>
 8003992:	b00c      	add	sp, #48	; 0x30
 8003994:	bd70      	pop	{r4, r5, r6, pc}
 8003996:	f503 3302 	add.w	r3, r3, #133120	; 0x20800
 800399a:	4812      	ldr	r0, [pc, #72]	; (80039e4 <HAL_TIM_Encoder_MspInit+0xe8>)
 800399c:	6d9a      	ldr	r2, [r3, #88]	; 0x58
 800399e:	f042 0204 	orr.w	r2, r2, #4
 80039a2:	659a      	str	r2, [r3, #88]	; 0x58
 80039a4:	6d9a      	ldr	r2, [r3, #88]	; 0x58
 80039a6:	f002 0204 	and.w	r2, r2, #4
 80039aa:	9204      	str	r2, [sp, #16]
 80039ac:	9a04      	ldr	r2, [sp, #16]
 80039ae:	6cda      	ldr	r2, [r3, #76]	; 0x4c
 80039b0:	f042 0202 	orr.w	r2, r2, #2
 80039b4:	64da      	str	r2, [r3, #76]	; 0x4c
 80039b6:	6cdb      	ldr	r3, [r3, #76]	; 0x4c
 80039b8:	f003 0302 	and.w	r3, r3, #2
 80039bc:	9305      	str	r3, [sp, #20]
 80039be:	2302      	movs	r3, #2
 80039c0:	9a05      	ldr	r2, [sp, #20]
 80039c2:	930a      	str	r3, [sp, #40]	; 0x28
 80039c4:	2200      	movs	r2, #0
 80039c6:	2300      	movs	r3, #0
 80039c8:	a906      	add	r1, sp, #24
 80039ca:	24c0      	movs	r4, #192	; 0xc0
 80039cc:	2502      	movs	r5, #2
 80039ce:	e9cd 4506 	strd	r4, r5, [sp, #24]
 80039d2:	e9cd 2308 	strd	r2, r3, [sp, #32]
 80039d6:	f001 fc2d 	bl	8005234 <HAL_GPIO_Init>
 80039da:	b00c      	add	sp, #48	; 0x30
 80039dc:	bd70      	pop	{r4, r5, r6, pc}
 80039de:	bf00      	nop
 80039e0:	40000800 	.word	0x40000800
 80039e4:	48000400 	.word	0x48000400

080039e8 <HAL_TIM_MspPostInit>:
 80039e8:	b5f0      	push	{r4, r5, r6, r7, lr}
 80039ea:	6801      	ldr	r1, [r0, #0]
 80039ec:	4a2a      	ldr	r2, [pc, #168]	; (8003a98 <HAL_TIM_MspPostInit+0xb0>)
 80039ee:	b08b      	sub	sp, #44	; 0x2c
 80039f0:	2300      	movs	r3, #0
 80039f2:	4291      	cmp	r1, r2
 80039f4:	e9cd 3304 	strd	r3, r3, [sp, #16]
 80039f8:	e9cd 3306 	strd	r3, r3, [sp, #24]
 80039fc:	9308      	str	r3, [sp, #32]
 80039fe:	d001      	beq.n	8003a04 <HAL_TIM_MspPostInit+0x1c>
 8003a00:	b00b      	add	sp, #44	; 0x2c
 8003a02:	bdf0      	pop	{r4, r5, r6, r7, pc}
 8003a04:	f103 4380 	add.w	r3, r3, #1073741824	; 0x40000000
 8003a08:	f503 3304 	add.w	r3, r3, #135168	; 0x21000
 8003a0c:	2402      	movs	r4, #2
 8003a0e:	6cda      	ldr	r2, [r3, #76]	; 0x4c
 8003a10:	4822      	ldr	r0, [pc, #136]	; (8003a9c <HAL_TIM_MspPostInit+0xb4>)
 8003a12:	f042 0204 	orr.w	r2, r2, #4
 8003a16:	64da      	str	r2, [r3, #76]	; 0x4c
 8003a18:	6cda      	ldr	r2, [r3, #76]	; 0x4c
 8003a1a:	f002 0204 	and.w	r2, r2, #4
 8003a1e:	9201      	str	r2, [sp, #4]
 8003a20:	9a01      	ldr	r2, [sp, #4]
 8003a22:	6cda      	ldr	r2, [r3, #76]	; 0x4c
 8003a24:	f042 0202 	orr.w	r2, r2, #2
 8003a28:	64da      	str	r2, [r3, #76]	; 0x4c
 8003a2a:	6cda      	ldr	r2, [r3, #76]	; 0x4c
 8003a2c:	f002 0202 	and.w	r2, r2, #2
 8003a30:	9202      	str	r2, [sp, #8]
 8003a32:	9a02      	ldr	r2, [sp, #8]
 8003a34:	6cda      	ldr	r2, [r3, #76]	; 0x4c
 8003a36:	f042 0201 	orr.w	r2, r2, #1
 8003a3a:	64da      	str	r2, [r3, #76]	; 0x4c
 8003a3c:	6cdb      	ldr	r3, [r3, #76]	; 0x4c
 8003a3e:	f003 0301 	and.w	r3, r3, #1
 8003a42:	9303      	str	r3, [sp, #12]
 8003a44:	2502      	movs	r5, #2
 8003a46:	9903      	ldr	r1, [sp, #12]
 8003a48:	f44f 5200 	mov.w	r2, #8192	; 0x2000
 8003a4c:	2302      	movs	r3, #2
 8003a4e:	2604      	movs	r6, #4
 8003a50:	a904      	add	r1, sp, #16
 8003a52:	e9cd 2304 	strd	r2, r3, [sp, #16]
 8003a56:	9608      	str	r6, [sp, #32]
 8003a58:	e9cd 4506 	strd	r4, r5, [sp, #24]
 8003a5c:	f001 fbea 	bl	8005234 <HAL_GPIO_Init>
 8003a60:	f44f 4200 	mov.w	r2, #32768	; 0x8000
 8003a64:	2302      	movs	r3, #2
 8003a66:	a904      	add	r1, sp, #16
 8003a68:	480d      	ldr	r0, [pc, #52]	; (8003aa0 <HAL_TIM_MspPostInit+0xb8>)
 8003a6a:	9608      	str	r6, [sp, #32]
 8003a6c:	e9cd 2304 	strd	r2, r3, [sp, #16]
 8003a70:	e9cd 4506 	strd	r4, r5, [sp, #24]
 8003a74:	f44f 56b8 	mov.w	r6, #5888	; 0x1700
 8003a78:	f001 fbdc 	bl	8005234 <HAL_GPIO_Init>
 8003a7c:	2702      	movs	r7, #2
 8003a7e:	2306      	movs	r3, #6
 8003a80:	a904      	add	r1, sp, #16
 8003a82:	f04f 4090 	mov.w	r0, #1207959552	; 0x48000000
 8003a86:	e9cd 4506 	strd	r4, r5, [sp, #24]
 8003a8a:	e9cd 6704 	strd	r6, r7, [sp, #16]
 8003a8e:	9308      	str	r3, [sp, #32]
 8003a90:	f001 fbd0 	bl	8005234 <HAL_GPIO_Init>
 8003a94:	b00b      	add	sp, #44	; 0x2c
 8003a96:	bdf0      	pop	{r4, r5, r6, r7, pc}
 8003a98:	40012c00 	.word	0x40012c00
 8003a9c:	48000800 	.word	0x48000800
 8003aa0:	48000400 	.word	0x48000400

08003aa4 <EXTI15_10_IRQHandler>:
 8003aa4:	f44f 6080 	mov.w	r0, #1024	; 0x400
 8003aa8:	f001 bcc4 	b.w	8005434 <HAL_GPIO_EXTI_IRQHandler>

08003aac <ADC1_2_IRQHandler>:
 8003aac:	f04f 43a0 	mov.w	r3, #1342177280	; 0x50000000
 8003ab0:	2240      	movs	r2, #64	; 0x40
 8003ab2:	601a      	str	r2, [r3, #0]
 8003ab4:	f7fd bfc6 	b.w	8001a44 <TSK_HighFrequencyTask>

08003ab8 <TIM1_UP_TIM16_IRQHandler>:
 8003ab8:	4b03      	ldr	r3, [pc, #12]	; (8003ac8 <TIM1_UP_TIM16_IRQHandler+0x10>)
 8003aba:	4804      	ldr	r0, [pc, #16]	; (8003acc <TIM1_UP_TIM16_IRQHandler+0x14>)
 8003abc:	f06f 0201 	mvn.w	r2, #1
 8003ac0:	611a      	str	r2, [r3, #16]
 8003ac2:	f004 baaf 	b.w	8008024 <R3_2_TIMx_UP_IRQHandler>
 8003ac6:	bf00      	nop
 8003ac8:	40012c00 	.word	0x40012c00
 8003acc:	20000344 	.word	0x20000344

08003ad0 <TIM1_BRK_TIM15_IRQHandler>:
 8003ad0:	b508      	push	{r3, lr}
 8003ad2:	4b0c      	ldr	r3, [pc, #48]	; (8003b04 <TIM1_BRK_TIM15_IRQHandler+0x34>)
 8003ad4:	691a      	ldr	r2, [r3, #16]
 8003ad6:	0611      	lsls	r1, r2, #24
 8003ad8:	d505      	bpl.n	8003ae6 <TIM1_BRK_TIM15_IRQHandler+0x16>
 8003ada:	f06f 0280 	mvn.w	r2, #128	; 0x80
 8003ade:	480a      	ldr	r0, [pc, #40]	; (8003b08 <TIM1_BRK_TIM15_IRQHandler+0x38>)
 8003ae0:	611a      	str	r2, [r3, #16]
 8003ae2:	f004 fb03 	bl	80080ec <R3_2_BRK_IRQHandler>
 8003ae6:	4b07      	ldr	r3, [pc, #28]	; (8003b04 <TIM1_BRK_TIM15_IRQHandler+0x34>)
 8003ae8:	691a      	ldr	r2, [r3, #16]
 8003aea:	05d2      	lsls	r2, r2, #23
 8003aec:	d505      	bpl.n	8003afa <TIM1_BRK_TIM15_IRQHandler+0x2a>
 8003aee:	f46f 7280 	mvn.w	r2, #256	; 0x100
 8003af2:	4805      	ldr	r0, [pc, #20]	; (8003b08 <TIM1_BRK_TIM15_IRQHandler+0x38>)
 8003af4:	611a      	str	r2, [r3, #16]
 8003af6:	f004 fad7 	bl	80080a8 <R3_2_BRK2_IRQHandler>
 8003afa:	e8bd 4008 	ldmia.w	sp!, {r3, lr}
 8003afe:	f7fd bf59 	b.w	80019b4 <MC_Scheduler>
 8003b02:	bf00      	nop
 8003b04:	40012c00 	.word	0x40012c00
 8003b08:	20000344 	.word	0x20000344

08003b0c <TIM4_IRQHandler>:
 8003b0c:	4806      	ldr	r0, [pc, #24]	; (8003b28 <TIM4_IRQHandler+0x1c>)
 8003b0e:	6a03      	ldr	r3, [r0, #32]
 8003b10:	68da      	ldr	r2, [r3, #12]
 8003b12:	07d1      	lsls	r1, r2, #31
 8003b14:	d502      	bpl.n	8003b1c <TIM4_IRQHandler+0x10>
 8003b16:	691a      	ldr	r2, [r3, #16]
 8003b18:	07d2      	lsls	r2, r2, #31
 8003b1a:	d400      	bmi.n	8003b1e <TIM4_IRQHandler+0x12>
 8003b1c:	4770      	bx	lr
 8003b1e:	f06f 0201 	mvn.w	r2, #1
 8003b22:	611a      	str	r2, [r3, #16]
 8003b24:	f003 b988 	b.w	8006e38 <ENC_IRQHandler>
 8003b28:	200000dc 	.word	0x200000dc

08003b2c <DMA2_Channel2_IRQHandler>:
 8003b2c:	4b04      	ldr	r3, [pc, #16]	; (8003b40 <DMA2_Channel2_IRQHandler+0x14>)
 8003b2e:	681a      	ldr	r2, [r3, #0]
 8003b30:	0692      	lsls	r2, r2, #26
 8003b32:	d400      	bmi.n	8003b36 <DMA2_Channel2_IRQHandler+0xa>
 8003b34:	4770      	bx	lr
 8003b36:	2220      	movs	r2, #32
 8003b38:	4802      	ldr	r0, [pc, #8]	; (8003b44 <DMA2_Channel2_IRQHandler+0x18>)
 8003b3a:	605a      	str	r2, [r3, #4]
 8003b3c:	f7fc be60 	b.w	8000800 <ASPEP_HWDataReceivedIT>
 8003b40:	40020400 	.word	0x40020400
 8003b44:	200005bc 	.word	0x200005bc

08003b48 <USART2_IRQHandler>:
 8003b48:	4b25      	ldr	r3, [pc, #148]	; (8003be0 <USART2_IRQHandler+0x98>)
 8003b4a:	69da      	ldr	r2, [r3, #28]
 8003b4c:	0650      	lsls	r0, r2, #25
 8003b4e:	b510      	push	{r4, lr}
 8003b50:	d509      	bpl.n	8003b66 <USART2_IRQHandler+0x1e>
 8003b52:	4924      	ldr	r1, [pc, #144]	; (8003be4 <USART2_IRQHandler+0x9c>)
 8003b54:	4824      	ldr	r0, [pc, #144]	; (8003be8 <USART2_IRQHandler+0xa0>)
 8003b56:	680a      	ldr	r2, [r1, #0]
 8003b58:	2440      	movs	r4, #64	; 0x40
 8003b5a:	f022 0201 	bic.w	r2, r2, #1
 8003b5e:	600a      	str	r2, [r1, #0]
 8003b60:	621c      	str	r4, [r3, #32]
 8003b62:	f7fc fce1 	bl	8000528 <ASPEP_HWDataTransmittedIT>
 8003b66:	4b1e      	ldr	r3, [pc, #120]	; (8003be0 <USART2_IRQHandler+0x98>)
 8003b68:	69da      	ldr	r2, [r3, #28]
 8003b6a:	0711      	lsls	r1, r2, #28
 8003b6c:	d402      	bmi.n	8003b74 <USART2_IRQHandler+0x2c>
 8003b6e:	69da      	ldr	r2, [r3, #28]
 8003b70:	0792      	lsls	r2, r2, #30
 8003b72:	d52c      	bpl.n	8003bce <USART2_IRQHandler+0x86>
 8003b74:	4b1a      	ldr	r3, [pc, #104]	; (8003be0 <USART2_IRQHandler+0x98>)
 8003b76:	689a      	ldr	r2, [r3, #8]
 8003b78:	07d0      	lsls	r0, r2, #31
 8003b7a:	d41d      	bmi.n	8003bb8 <USART2_IRQHandler+0x70>
 8003b7c:	4b18      	ldr	r3, [pc, #96]	; (8003be0 <USART2_IRQHandler+0x98>)
 8003b7e:	69da      	ldr	r2, [r3, #28]
 8003b80:	06d1      	lsls	r1, r2, #27
 8003b82:	d518      	bpl.n	8003bb6 <USART2_IRQHandler+0x6e>
 8003b84:	681a      	ldr	r2, [r3, #0]
 8003b86:	06d2      	lsls	r2, r2, #27
 8003b88:	d515      	bpl.n	8003bb6 <USART2_IRQHandler+0x6e>
 8003b8a:	681a      	ldr	r2, [r3, #0]
 8003b8c:	4816      	ldr	r0, [pc, #88]	; (8003be8 <USART2_IRQHandler+0xa0>)
 8003b8e:	f022 0210 	bic.w	r2, r2, #16
 8003b92:	601a      	str	r2, [r3, #0]
 8003b94:	689a      	ldr	r2, [r3, #8]
 8003b96:	f042 0201 	orr.w	r2, r2, #1
 8003b9a:	609a      	str	r2, [r3, #8]
 8003b9c:	689a      	ldr	r2, [r3, #8]
 8003b9e:	f022 0240 	bic.w	r2, r2, #64	; 0x40
 8003ba2:	609a      	str	r2, [r3, #8]
 8003ba4:	6a5a      	ldr	r2, [r3, #36]	; 0x24
 8003ba6:	689a      	ldr	r2, [r3, #8]
 8003ba8:	f042 0240 	orr.w	r2, r2, #64	; 0x40
 8003bac:	e8bd 4010 	ldmia.w	sp!, {r4, lr}
 8003bb0:	609a      	str	r2, [r3, #8]
 8003bb2:	f7fc be75 	b.w	80008a0 <ASPEP_HWDMAReset>
 8003bb6:	bd10      	pop	{r4, pc}
 8003bb8:	220e      	movs	r2, #14
 8003bba:	621a      	str	r2, [r3, #32]
 8003bbc:	689a      	ldr	r2, [r3, #8]
 8003bbe:	f022 0201 	bic.w	r2, r2, #1
 8003bc2:	609a      	str	r2, [r3, #8]
 8003bc4:	681a      	ldr	r2, [r3, #0]
 8003bc6:	f042 0210 	orr.w	r2, r2, #16
 8003bca:	601a      	str	r2, [r3, #0]
 8003bcc:	e7d6      	b.n	8003b7c <USART2_IRQHandler+0x34>
 8003bce:	69db      	ldr	r3, [r3, #28]
 8003bd0:	075c      	lsls	r4, r3, #29
 8003bd2:	d5d3      	bpl.n	8003b7c <USART2_IRQHandler+0x34>
 8003bd4:	4b02      	ldr	r3, [pc, #8]	; (8003be0 <USART2_IRQHandler+0x98>)
 8003bd6:	689a      	ldr	r2, [r3, #8]
 8003bd8:	07d0      	lsls	r0, r2, #31
 8003bda:	d5cf      	bpl.n	8003b7c <USART2_IRQHandler+0x34>
 8003bdc:	e7ec      	b.n	8003bb8 <USART2_IRQHandler+0x70>
 8003bde:	bf00      	nop
 8003be0:	40004400 	.word	0x40004400
 8003be4:	40020430 	.word	0x40020430
 8003be8:	200005bc 	.word	0x200005bc

08003bec <HardFault_Handler>:
 8003bec:	b508      	push	{r3, lr}
 8003bee:	f7fe f82f 	bl	8001c50 <TSK_HardwareFaultTask>
 8003bf2:	e7fe      	b.n	8003bf2 <HardFault_Handler+0x6>

08003bf4 <SysTick_Handler>:
 8003bf4:	b510      	push	{r4, lr}
 8003bf6:	4c0a      	ldr	r4, [pc, #40]	; (8003c20 <SysTick_Handler+0x2c>)
 8003bf8:	7823      	ldrb	r3, [r4, #0]
 8003bfa:	2b02      	cmp	r3, #2
 8003bfc:	d006      	beq.n	8003c0c <SysTick_Handler+0x18>
 8003bfe:	3301      	adds	r3, #1
 8003c00:	b2db      	uxtb	r3, r3
 8003c02:	7023      	strb	r3, [r4, #0]
 8003c04:	e8bd 4010 	ldmia.w	sp!, {r4, lr}
 8003c08:	f7fe b816 	b.w	8001c38 <MC_RunMotorControlTasks>
 8003c0c:	f000 f8f4 	bl	8003df8 <HAL_IncTick>
 8003c10:	f001 f924 	bl	8004e5c <HAL_SYSTICK_IRQHandler>
 8003c14:	2301      	movs	r3, #1
 8003c16:	7023      	strb	r3, [r4, #0]
 8003c18:	e8bd 4010 	ldmia.w	sp!, {r4, lr}
 8003c1c:	f7fe b80c 	b.w	8001c38 <MC_RunMotorControlTasks>
 8003c20:	20000634 	.word	0x20000634

08003c24 <UASPEP_INIT>:
 8003c24:	6803      	ldr	r3, [r0, #0]
 8003c26:	f8d0 c00c 	ldr.w	ip, [r0, #12]
 8003c2a:	2140      	movs	r1, #64	; 0x40
 8003c2c:	b4f0      	push	{r4, r5, r6, r7}
 8003c2e:	6906      	ldr	r6, [r0, #16]
 8003c30:	6219      	str	r1, [r3, #32]
 8003c32:	681a      	ldr	r2, [r3, #0]
 8003c34:	4c11      	ldr	r4, [pc, #68]	; (8003c7c <UASPEP_INIT+0x58>)
 8003c36:	6885      	ldr	r5, [r0, #8]
 8003c38:	5da7      	ldrb	r7, [r4, r6]
 8003c3a:	f814 400c 	ldrb.w	r4, [r4, ip]
 8003c3e:	430a      	orrs	r2, r1
 8003c40:	601a      	str	r2, [r3, #0]
 8003c42:	689e      	ldr	r6, [r3, #8]
 8003c44:	6842      	ldr	r2, [r0, #4]
 8003c46:	19e8      	adds	r0, r5, r7
 8003c48:	f046 0580 	orr.w	r5, r6, #128	; 0x80
 8003c4c:	f103 0628 	add.w	r6, r3, #40	; 0x28
 8003c50:	609d      	str	r5, [r3, #8]
 8003c52:	6086      	str	r6, [r0, #8]
 8003c54:	6219      	str	r1, [r3, #32]
 8003c56:	5910      	ldr	r0, [r2, r4]
 8003c58:	f040 0002 	orr.w	r0, r0, #2
 8003c5c:	5110      	str	r0, [r2, r4]
 8003c5e:	6898      	ldr	r0, [r3, #8]
 8003c60:	4422      	add	r2, r4
 8003c62:	f040 0001 	orr.w	r0, r0, #1
 8003c66:	f103 0424 	add.w	r4, r3, #36	; 0x24
 8003c6a:	6098      	str	r0, [r3, #8]
 8003c6c:	6094      	str	r4, [r2, #8]
 8003c6e:	6219      	str	r1, [r3, #32]
 8003c70:	689a      	ldr	r2, [r3, #8]
 8003c72:	430a      	orrs	r2, r1
 8003c74:	bcf0      	pop	{r4, r5, r6, r7}
 8003c76:	609a      	str	r2, [r3, #8]
 8003c78:	4770      	bx	lr
 8003c7a:	bf00      	nop
 8003c7c:	08008d08 	.word	0x08008d08

08003c80 <UASPEP_SEND_PACKET>:
 8003c80:	b430      	push	{r4, r5}
 8003c82:	6903      	ldr	r3, [r0, #16]
 8003c84:	4c0b      	ldr	r4, [pc, #44]	; (8003cb4 <UASPEP_SEND_PACKET+0x34>)
 8003c86:	6880      	ldr	r0, [r0, #8]
 8003c88:	5ce3      	ldrb	r3, [r4, r3]
 8003c8a:	58c4      	ldr	r4, [r0, r3]
 8003c8c:	07e4      	lsls	r4, r4, #31
 8003c8e:	eb00 0503 	add.w	r5, r0, r3
 8003c92:	d40c      	bmi.n	8003cae <UASPEP_SEND_PACKET+0x2e>
 8003c94:	60e9      	str	r1, [r5, #12]
 8003c96:	6869      	ldr	r1, [r5, #4]
 8003c98:	0c09      	lsrs	r1, r1, #16
 8003c9a:	0409      	lsls	r1, r1, #16
 8003c9c:	430a      	orrs	r2, r1
 8003c9e:	606a      	str	r2, [r5, #4]
 8003ca0:	58c2      	ldr	r2, [r0, r3]
 8003ca2:	f042 0201 	orr.w	r2, r2, #1
 8003ca6:	50c2      	str	r2, [r0, r3]
 8003ca8:	bc30      	pop	{r4, r5}
 8003caa:	2001      	movs	r0, #1
 8003cac:	4770      	bx	lr
 8003cae:	2000      	movs	r0, #0
 8003cb0:	bc30      	pop	{r4, r5}
 8003cb2:	4770      	bx	lr
 8003cb4:	08008d08 	.word	0x08008d08

08003cb8 <UASPEP_RECEIVE_BUFFER>:
 8003cb8:	b430      	push	{r4, r5}
 8003cba:	68c3      	ldr	r3, [r0, #12]
 8003cbc:	4d09      	ldr	r5, [pc, #36]	; (8003ce4 <UASPEP_RECEIVE_BUFFER+0x2c>)
 8003cbe:	6844      	ldr	r4, [r0, #4]
 8003cc0:	5ce8      	ldrb	r0, [r5, r3]
 8003cc2:	5823      	ldr	r3, [r4, r0]
 8003cc4:	1825      	adds	r5, r4, r0
 8003cc6:	f023 0301 	bic.w	r3, r3, #1
 8003cca:	5023      	str	r3, [r4, r0]
 8003ccc:	60e9      	str	r1, [r5, #12]
 8003cce:	686b      	ldr	r3, [r5, #4]
 8003cd0:	0c1b      	lsrs	r3, r3, #16
 8003cd2:	041b      	lsls	r3, r3, #16
 8003cd4:	431a      	orrs	r2, r3
 8003cd6:	606a      	str	r2, [r5, #4]
 8003cd8:	5823      	ldr	r3, [r4, r0]
 8003cda:	f043 0301 	orr.w	r3, r3, #1
 8003cde:	5023      	str	r3, [r4, r0]
 8003ce0:	bc30      	pop	{r4, r5}
 8003ce2:	4770      	bx	lr
 8003ce4:	08008d08 	.word	0x08008d08

08003ce8 <UASPEP_IDLE_ENABLE>:
 8003ce8:	6803      	ldr	r3, [r0, #0]
 8003cea:	2210      	movs	r2, #16
 8003cec:	621a      	str	r2, [r3, #32]
 8003cee:	681a      	ldr	r2, [r3, #0]
 8003cf0:	f042 0210 	orr.w	r2, r2, #16
 8003cf4:	601a      	str	r2, [r3, #0]
 8003cf6:	4770      	bx	lr

08003cf8 <HAL_GPIO_EXTI_Callback>:
 8003cf8:	f5b0 6f80 	cmp.w	r0, #1024	; 0x400
 8003cfc:	d003      	beq.n	8003d06 <HAL_GPIO_EXTI_Callback+0xe>
 8003cfe:	f5b0 4f00 	cmp.w	r0, #32768	; 0x8000
 8003d02:	d000      	beq.n	8003d06 <HAL_GPIO_EXTI_Callback+0xe>
 8003d04:	4770      	bx	lr
 8003d06:	4802      	ldr	r0, [pc, #8]	; (8003d10 <HAL_GPIO_EXTI_Callback+0x18>)
 8003d08:	2108      	movs	r1, #8
 8003d0a:	f001 bb87 	b.w	800541c <HAL_GPIO_ReadPin>
 8003d0e:	bf00      	nop
 8003d10:	48000400 	.word	0x48000400

08003d14 <POT_Init>:
 8003d14:	b508      	push	{r3, lr}
 8003d16:	f7ff f9a3 	bl	8003060 <RCM_RegisterRegConv>
 8003d1a:	4b01      	ldr	r3, [pc, #4]	; (8003d20 <POT_Init+0xc>)
 8003d1c:	7018      	strb	r0, [r3, #0]
 8003d1e:	bd08      	pop	{r3, pc}
 8003d20:	20001cd8 	.word	0x20001cd8

08003d24 <POT_ReadValue>:
 8003d24:	b538      	push	{r3, r4, r5, lr}
 8003d26:	4604      	mov	r4, r0
 8003d28:	f7ff fb80 	bl	800342c <RCM_GetUserConvState>
 8003d2c:	b948      	cbnz	r0, 8003d42 <POT_ReadValue+0x1e>
 8003d2e:	4b0f      	ldr	r3, [pc, #60]	; (8003d6c <POT_ReadValue+0x48>)
 8003d30:	4d0f      	ldr	r5, [pc, #60]	; (8003d70 <POT_ReadValue+0x4c>)
 8003d32:	7818      	ldrb	r0, [r3, #0]
 8003d34:	f7ff fb2a 	bl	800338c <RCM_RequestUserConv>
 8003d38:	4b0e      	ldr	r3, [pc, #56]	; (8003d74 <POT_ReadValue+0x50>)
 8003d3a:	6818      	ldr	r0, [r3, #0]
 8003d3c:	882b      	ldrh	r3, [r5, #0]
 8003d3e:	8023      	strh	r3, [r4, #0]
 8003d40:	bd38      	pop	{r3, r4, r5, pc}
 8003d42:	f7ff fb73 	bl	800342c <RCM_GetUserConvState>
 8003d46:	2802      	cmp	r0, #2
 8003d48:	d005      	beq.n	8003d56 <POT_ReadValue+0x32>
 8003d4a:	4b0a      	ldr	r3, [pc, #40]	; (8003d74 <POT_ReadValue+0x50>)
 8003d4c:	4d08      	ldr	r5, [pc, #32]	; (8003d70 <POT_ReadValue+0x4c>)
 8003d4e:	6818      	ldr	r0, [r3, #0]
 8003d50:	882b      	ldrh	r3, [r5, #0]
 8003d52:	8023      	strh	r3, [r4, #0]
 8003d54:	bd38      	pop	{r3, r4, r5, pc}
 8003d56:	f7ff fb29 	bl	80033ac <RCM_GetUserConv>
 8003d5a:	4d05      	ldr	r5, [pc, #20]	; (8003d70 <POT_ReadValue+0x4c>)
 8003d5c:	8028      	strh	r0, [r5, #0]
 8003d5e:	f000 f857 	bl	8003e10 <HAL_GetTick>
 8003d62:	4b04      	ldr	r3, [pc, #16]	; (8003d74 <POT_ReadValue+0x50>)
 8003d64:	6018      	str	r0, [r3, #0]
 8003d66:	882b      	ldrh	r3, [r5, #0]
 8003d68:	8023      	strh	r3, [r4, #0]
 8003d6a:	bd38      	pop	{r3, r4, r5, pc}
 8003d6c:	20001cd8 	.word	0x20001cd8
 8003d70:	20001cd0 	.word	0x20001cd0
 8003d74:	20001cd4 	.word	0x20001cd4

08003d78 <SystemInit>:
 8003d78:	4a03      	ldr	r2, [pc, #12]	; (8003d88 <SystemInit+0x10>)
 8003d7a:	f8d2 3088 	ldr.w	r3, [r2, #136]	; 0x88
 8003d7e:	f443 0370 	orr.w	r3, r3, #15728640	; 0xf00000
 8003d82:	f8c2 3088 	str.w	r3, [r2, #136]	; 0x88
 8003d86:	4770      	bx	lr
 8003d88:	e000ed00 	.word	0xe000ed00

08003d8c <HAL_InitTick>:
 8003d8c:	b538      	push	{r3, r4, r5, lr}
 8003d8e:	4b0f      	ldr	r3, [pc, #60]	; (8003dcc <HAL_InitTick+0x40>)
 8003d90:	681b      	ldr	r3, [r3, #0]
 8003d92:	b90b      	cbnz	r3, 8003d98 <HAL_InitTick+0xc>
 8003d94:	2001      	movs	r0, #1
 8003d96:	bd38      	pop	{r3, r4, r5, pc}
 8003d98:	490d      	ldr	r1, [pc, #52]	; (8003dd0 <HAL_InitTick+0x44>)
 8003d9a:	f44f 727a 	mov.w	r2, #1000	; 0x3e8
 8003d9e:	4605      	mov	r5, r0
 8003da0:	fbb2 f3f3 	udiv	r3, r2, r3
 8003da4:	6808      	ldr	r0, [r1, #0]
 8003da6:	fbb0 f0f3 	udiv	r0, r0, r3
 8003daa:	f001 f83b 	bl	8004e24 <HAL_SYSTICK_Config>
 8003dae:	4604      	mov	r4, r0
 8003db0:	2800      	cmp	r0, #0
 8003db2:	d1ef      	bne.n	8003d94 <HAL_InitTick+0x8>
 8003db4:	2d0f      	cmp	r5, #15
 8003db6:	d8ed      	bhi.n	8003d94 <HAL_InitTick+0x8>
 8003db8:	4602      	mov	r2, r0
 8003dba:	4629      	mov	r1, r5
 8003dbc:	f04f 30ff 	mov.w	r0, #4294967295
 8003dc0:	f000 ffea 	bl	8004d98 <HAL_NVIC_SetPriority>
 8003dc4:	4b03      	ldr	r3, [pc, #12]	; (8003dd4 <HAL_InitTick+0x48>)
 8003dc6:	4620      	mov	r0, r4
 8003dc8:	601d      	str	r5, [r3, #0]
 8003dca:	bd38      	pop	{r3, r4, r5, pc}
 8003dcc:	2000063c 	.word	0x2000063c
 8003dd0:	20000638 	.word	0x20000638
 8003dd4:	20000640 	.word	0x20000640

08003dd8 <HAL_Init>:
 8003dd8:	b510      	push	{r4, lr}
 8003dda:	2003      	movs	r0, #3
 8003ddc:	f000 ffc8 	bl	8004d70 <HAL_NVIC_SetPriorityGrouping>
 8003de0:	2004      	movs	r0, #4
 8003de2:	f7ff ffd3 	bl	8003d8c <HAL_InitTick>
 8003de6:	b110      	cbz	r0, 8003dee <HAL_Init+0x16>
 8003de8:	2401      	movs	r4, #1
 8003dea:	4620      	mov	r0, r4
 8003dec:	bd10      	pop	{r4, pc}
 8003dee:	4604      	mov	r4, r0
 8003df0:	f7ff fb92 	bl	8003518 <HAL_MspInit>
 8003df4:	4620      	mov	r0, r4
 8003df6:	bd10      	pop	{r4, pc}

08003df8 <HAL_IncTick>:
 8003df8:	4a03      	ldr	r2, [pc, #12]	; (8003e08 <HAL_IncTick+0x10>)
 8003dfa:	4904      	ldr	r1, [pc, #16]	; (8003e0c <HAL_IncTick+0x14>)
 8003dfc:	6813      	ldr	r3, [r2, #0]
 8003dfe:	6809      	ldr	r1, [r1, #0]
 8003e00:	440b      	add	r3, r1
 8003e02:	6013      	str	r3, [r2, #0]
 8003e04:	4770      	bx	lr
 8003e06:	bf00      	nop
 8003e08:	20001cdc 	.word	0x20001cdc
 8003e0c:	2000063c 	.word	0x2000063c

08003e10 <HAL_GetTick>:
 8003e10:	4b01      	ldr	r3, [pc, #4]	; (8003e18 <HAL_GetTick+0x8>)
 8003e12:	6818      	ldr	r0, [r3, #0]
 8003e14:	4770      	bx	lr
 8003e16:	bf00      	nop
 8003e18:	20001cdc 	.word	0x20001cdc

08003e1c <HAL_Delay>:
 8003e1c:	b538      	push	{r3, r4, r5, lr}
 8003e1e:	4604      	mov	r4, r0
 8003e20:	f7ff fff6 	bl	8003e10 <HAL_GetTick>
 8003e24:	1c63      	adds	r3, r4, #1
 8003e26:	4605      	mov	r5, r0
 8003e28:	d002      	beq.n	8003e30 <HAL_Delay+0x14>
 8003e2a:	4b04      	ldr	r3, [pc, #16]	; (8003e3c <HAL_Delay+0x20>)
 8003e2c:	681b      	ldr	r3, [r3, #0]
 8003e2e:	441c      	add	r4, r3
 8003e30:	f7ff ffee 	bl	8003e10 <HAL_GetTick>
 8003e34:	1b43      	subs	r3, r0, r5
 8003e36:	42a3      	cmp	r3, r4
 8003e38:	d3fa      	bcc.n	8003e30 <HAL_Delay+0x14>
 8003e3a:	bd38      	pop	{r3, r4, r5, pc}
 8003e3c:	2000063c 	.word	0x2000063c

08003e40 <HAL_ADC_Init>:
 8003e40:	b570      	push	{r4, r5, r6, lr}
 8003e42:	b082      	sub	sp, #8
 8003e44:	2300      	movs	r3, #0
 8003e46:	9301      	str	r3, [sp, #4]
 8003e48:	2800      	cmp	r0, #0
 8003e4a:	f000 80cb 	beq.w	8003fe4 <HAL_ADC_Init+0x1a4>
 8003e4e:	6dc5      	ldr	r5, [r0, #92]	; 0x5c
 8003e50:	4604      	mov	r4, r0
 8003e52:	2d00      	cmp	r5, #0
 8003e54:	f000 8094 	beq.w	8003f80 <HAL_ADC_Init+0x140>
 8003e58:	6822      	ldr	r2, [r4, #0]
 8003e5a:	6893      	ldr	r3, [r2, #8]
 8003e5c:	009d      	lsls	r5, r3, #2
 8003e5e:	d505      	bpl.n	8003e6c <HAL_ADC_Init+0x2c>
 8003e60:	6893      	ldr	r3, [r2, #8]
 8003e62:	f023 4320 	bic.w	r3, r3, #2684354560	; 0xa0000000
 8003e66:	f023 033f 	bic.w	r3, r3, #63	; 0x3f
 8003e6a:	6093      	str	r3, [r2, #8]
 8003e6c:	6893      	ldr	r3, [r2, #8]
 8003e6e:	00d8      	lsls	r0, r3, #3
 8003e70:	d419      	bmi.n	8003ea6 <HAL_ADC_Init+0x66>
 8003e72:	4b71      	ldr	r3, [pc, #452]	; (8004038 <HAL_ADC_Init+0x1f8>)
 8003e74:	4871      	ldr	r0, [pc, #452]	; (800403c <HAL_ADC_Init+0x1fc>)
 8003e76:	681b      	ldr	r3, [r3, #0]
 8003e78:	6891      	ldr	r1, [r2, #8]
 8003e7a:	099b      	lsrs	r3, r3, #6
 8003e7c:	fba0 0303 	umull	r0, r3, r0, r3
 8003e80:	099b      	lsrs	r3, r3, #6
 8003e82:	f021 4110 	bic.w	r1, r1, #2415919104	; 0x90000000
 8003e86:	3301      	adds	r3, #1
 8003e88:	f021 013f 	bic.w	r1, r1, #63	; 0x3f
 8003e8c:	005b      	lsls	r3, r3, #1
 8003e8e:	f041 5180 	orr.w	r1, r1, #268435456	; 0x10000000
 8003e92:	6091      	str	r1, [r2, #8]
 8003e94:	9301      	str	r3, [sp, #4]
 8003e96:	9b01      	ldr	r3, [sp, #4]
 8003e98:	b12b      	cbz	r3, 8003ea6 <HAL_ADC_Init+0x66>
 8003e9a:	9b01      	ldr	r3, [sp, #4]
 8003e9c:	3b01      	subs	r3, #1
 8003e9e:	9301      	str	r3, [sp, #4]
 8003ea0:	9b01      	ldr	r3, [sp, #4]
 8003ea2:	2b00      	cmp	r3, #0
 8003ea4:	d1f9      	bne.n	8003e9a <HAL_ADC_Init+0x5a>
 8003ea6:	6893      	ldr	r3, [r2, #8]
 8003ea8:	00d9      	lsls	r1, r3, #3
 8003eaa:	d45b      	bmi.n	8003f64 <HAL_ADC_Init+0x124>
 8003eac:	6de3      	ldr	r3, [r4, #92]	; 0x5c
 8003eae:	f043 0310 	orr.w	r3, r3, #16
 8003eb2:	65e3      	str	r3, [r4, #92]	; 0x5c
 8003eb4:	6e23      	ldr	r3, [r4, #96]	; 0x60
 8003eb6:	f043 0301 	orr.w	r3, r3, #1
 8003eba:	6623      	str	r3, [r4, #96]	; 0x60
 8003ebc:	6893      	ldr	r3, [r2, #8]
 8003ebe:	f013 0f04 	tst.w	r3, #4
 8003ec2:	f04f 0001 	mov.w	r0, #1
 8003ec6:	6de3      	ldr	r3, [r4, #92]	; 0x5c
 8003ec8:	d153      	bne.n	8003f72 <HAL_ADC_Init+0x132>
 8003eca:	06db      	lsls	r3, r3, #27
 8003ecc:	d451      	bmi.n	8003f72 <HAL_ADC_Init+0x132>
 8003ece:	6de3      	ldr	r3, [r4, #92]	; 0x5c
 8003ed0:	f423 7381 	bic.w	r3, r3, #258	; 0x102
 8003ed4:	f043 0302 	orr.w	r3, r3, #2
 8003ed8:	65e3      	str	r3, [r4, #92]	; 0x5c
 8003eda:	6893      	ldr	r3, [r2, #8]
 8003edc:	07de      	lsls	r6, r3, #31
 8003ede:	d40e      	bmi.n	8003efe <HAL_ADC_Init+0xbe>
 8003ee0:	4b57      	ldr	r3, [pc, #348]	; (8004040 <HAL_ADC_Init+0x200>)
 8003ee2:	f04f 41a0 	mov.w	r1, #1342177280	; 0x50000000
 8003ee6:	6889      	ldr	r1, [r1, #8]
 8003ee8:	689b      	ldr	r3, [r3, #8]
 8003eea:	430b      	orrs	r3, r1
 8003eec:	07dd      	lsls	r5, r3, #31
 8003eee:	d406      	bmi.n	8003efe <HAL_ADC_Init+0xbe>
 8003ef0:	4954      	ldr	r1, [pc, #336]	; (8004044 <HAL_ADC_Init+0x204>)
 8003ef2:	6865      	ldr	r5, [r4, #4]
 8003ef4:	688b      	ldr	r3, [r1, #8]
 8003ef6:	f423 137c 	bic.w	r3, r3, #4128768	; 0x3f0000
 8003efa:	432b      	orrs	r3, r5
 8003efc:	608b      	str	r3, [r1, #8]
 8003efe:	e9d4 1502 	ldrd	r1, r5, [r4, #8]
 8003f02:	6be3      	ldr	r3, [r4, #60]	; 0x3c
 8003f04:	432b      	orrs	r3, r5
 8003f06:	430b      	orrs	r3, r1
 8003f08:	7f65      	ldrb	r5, [r4, #29]
 8003f0a:	f894 1024 	ldrb.w	r1, [r4, #36]	; 0x24
 8003f0e:	ea43 3345 	orr.w	r3, r3, r5, lsl #13
 8003f12:	2901      	cmp	r1, #1
 8003f14:	ea43 4301 	orr.w	r3, r3, r1, lsl #16
 8003f18:	d05f      	beq.n	8003fda <HAL_ADC_Init+0x19a>
 8003f1a:	6ae1      	ldr	r1, [r4, #44]	; 0x2c
 8003f1c:	b121      	cbz	r1, 8003f28 <HAL_ADC_Init+0xe8>
 8003f1e:	6b25      	ldr	r5, [r4, #48]	; 0x30
 8003f20:	f401 7178 	and.w	r1, r1, #992	; 0x3e0
 8003f24:	4329      	orrs	r1, r5
 8003f26:	430b      	orrs	r3, r1
 8003f28:	68d6      	ldr	r6, [r2, #12]
 8003f2a:	4947      	ldr	r1, [pc, #284]	; (8004048 <HAL_ADC_Init+0x208>)
 8003f2c:	6b65      	ldr	r5, [r4, #52]	; 0x34
 8003f2e:	4031      	ands	r1, r6
 8003f30:	430b      	orrs	r3, r1
 8003f32:	60d3      	str	r3, [r2, #12]
 8003f34:	6913      	ldr	r3, [r2, #16]
 8003f36:	f023 6340 	bic.w	r3, r3, #201326592	; 0xc000000
 8003f3a:	432b      	orrs	r3, r5
 8003f3c:	6113      	str	r3, [r2, #16]
 8003f3e:	6893      	ldr	r3, [r2, #8]
 8003f40:	0759      	lsls	r1, r3, #29
 8003f42:	d523      	bpl.n	8003f8c <HAL_ADC_Init+0x14c>
 8003f44:	6893      	ldr	r3, [r2, #8]
 8003f46:	6963      	ldr	r3, [r4, #20]
 8003f48:	2b01      	cmp	r3, #1
 8003f4a:	d04e      	beq.n	8003fea <HAL_ADC_Init+0x1aa>
 8003f4c:	6b13      	ldr	r3, [r2, #48]	; 0x30
 8003f4e:	f023 030f 	bic.w	r3, r3, #15
 8003f52:	6313      	str	r3, [r2, #48]	; 0x30
 8003f54:	6de3      	ldr	r3, [r4, #92]	; 0x5c
 8003f56:	f023 0303 	bic.w	r3, r3, #3
 8003f5a:	f043 0301 	orr.w	r3, r3, #1
 8003f5e:	65e3      	str	r3, [r4, #92]	; 0x5c
 8003f60:	b002      	add	sp, #8
 8003f62:	bd70      	pop	{r4, r5, r6, pc}
 8003f64:	6893      	ldr	r3, [r2, #8]
 8003f66:	f013 0f04 	tst.w	r3, #4
 8003f6a:	f04f 0000 	mov.w	r0, #0
 8003f6e:	6de3      	ldr	r3, [r4, #92]	; 0x5c
 8003f70:	d0ab      	beq.n	8003eca <HAL_ADC_Init+0x8a>
 8003f72:	6de3      	ldr	r3, [r4, #92]	; 0x5c
 8003f74:	2001      	movs	r0, #1
 8003f76:	f043 0310 	orr.w	r3, r3, #16
 8003f7a:	65e3      	str	r3, [r4, #92]	; 0x5c
 8003f7c:	b002      	add	sp, #8
 8003f7e:	bd70      	pop	{r4, r5, r6, pc}
 8003f80:	f7ff faea 	bl	8003558 <HAL_ADC_MspInit>
 8003f84:	6625      	str	r5, [r4, #96]	; 0x60
 8003f86:	f884 5058 	strb.w	r5, [r4, #88]	; 0x58
 8003f8a:	e765      	b.n	8003e58 <HAL_ADC_Init+0x18>
 8003f8c:	6893      	ldr	r3, [r2, #8]
 8003f8e:	071b      	lsls	r3, r3, #28
 8003f90:	d4d9      	bmi.n	8003f46 <HAL_ADC_Init+0x106>
 8003f92:	68d1      	ldr	r1, [r2, #12]
 8003f94:	f894 3038 	ldrb.w	r3, [r4, #56]	; 0x38
 8003f98:	7f26      	ldrb	r6, [r4, #28]
 8003f9a:	6925      	ldr	r5, [r4, #16]
 8003f9c:	f421 4180 	bic.w	r1, r1, #16384	; 0x4000
 8003fa0:	005b      	lsls	r3, r3, #1
 8003fa2:	f021 0102 	bic.w	r1, r1, #2
 8003fa6:	ea43 3386 	orr.w	r3, r3, r6, lsl #14
 8003faa:	430b      	orrs	r3, r1
 8003fac:	60d3      	str	r3, [r2, #12]
 8003fae:	6913      	ldr	r3, [r2, #16]
 8003fb0:	bb1d      	cbnz	r5, 8003ffa <HAL_ADC_Init+0x1ba>
 8003fb2:	f423 3380 	bic.w	r3, r3, #65536	; 0x10000
 8003fb6:	6113      	str	r3, [r2, #16]
 8003fb8:	f8d2 30c0 	ldr.w	r3, [r2, #192]	; 0xc0
 8003fbc:	f423 537f 	bic.w	r3, r3, #16320	; 0x3fc0
 8003fc0:	f023 033f 	bic.w	r3, r3, #63	; 0x3f
 8003fc4:	f8c2 30c0 	str.w	r3, [r2, #192]	; 0xc0
 8003fc8:	f894 3040 	ldrb.w	r3, [r4, #64]	; 0x40
 8003fcc:	2b01      	cmp	r3, #1
 8003fce:	d021      	beq.n	8004014 <HAL_ADC_Init+0x1d4>
 8003fd0:	6913      	ldr	r3, [r2, #16]
 8003fd2:	f023 0301 	bic.w	r3, r3, #1
 8003fd6:	6113      	str	r3, [r2, #16]
 8003fd8:	e7b5      	b.n	8003f46 <HAL_ADC_Init+0x106>
 8003fda:	6aa1      	ldr	r1, [r4, #40]	; 0x28
 8003fdc:	3901      	subs	r1, #1
 8003fde:	ea43 4341 	orr.w	r3, r3, r1, lsl #17
 8003fe2:	e79a      	b.n	8003f1a <HAL_ADC_Init+0xda>
 8003fe4:	2001      	movs	r0, #1
 8003fe6:	b002      	add	sp, #8
 8003fe8:	bd70      	pop	{r4, r5, r6, pc}
 8003fea:	6b11      	ldr	r1, [r2, #48]	; 0x30
 8003fec:	6a23      	ldr	r3, [r4, #32]
 8003fee:	f021 010f 	bic.w	r1, r1, #15
 8003ff2:	3b01      	subs	r3, #1
 8003ff4:	430b      	orrs	r3, r1
 8003ff6:	6313      	str	r3, [r2, #48]	; 0x30
 8003ff8:	e7ac      	b.n	8003f54 <HAL_ADC_Init+0x114>
 8003ffa:	f443 3380 	orr.w	r3, r3, #65536	; 0x10000
 8003ffe:	6113      	str	r3, [r2, #16]
 8004000:	f8d2 30c0 	ldr.w	r3, [r2, #192]	; 0xc0
 8004004:	f423 537f 	bic.w	r3, r3, #16320	; 0x3fc0
 8004008:	f023 033f 	bic.w	r3, r3, #63	; 0x3f
 800400c:	432b      	orrs	r3, r5
 800400e:	f8c2 30c0 	str.w	r3, [r2, #192]	; 0xc0
 8004012:	e7d9      	b.n	8003fc8 <HAL_ADC_Init+0x188>
 8004014:	e9d4 3611 	ldrd	r3, r6, [r4, #68]	; 0x44
 8004018:	6911      	ldr	r1, [r2, #16]
 800401a:	6ce5      	ldr	r5, [r4, #76]	; 0x4c
 800401c:	f421 61ff 	bic.w	r1, r1, #2040	; 0x7f8
 8004020:	f021 0104 	bic.w	r1, r1, #4
 8004024:	4333      	orrs	r3, r6
 8004026:	430b      	orrs	r3, r1
 8004028:	6d21      	ldr	r1, [r4, #80]	; 0x50
 800402a:	432b      	orrs	r3, r5
 800402c:	430b      	orrs	r3, r1
 800402e:	f043 0301 	orr.w	r3, r3, #1
 8004032:	6113      	str	r3, [r2, #16]
 8004034:	e787      	b.n	8003f46 <HAL_ADC_Init+0x106>
 8004036:	bf00      	nop
 8004038:	20000638 	.word	0x20000638
 800403c:	053e2d63 	.word	0x053e2d63
 8004040:	50000100 	.word	0x50000100
 8004044:	50000300 	.word	0x50000300
 8004048:	fff04007 	.word	0xfff04007

0800404c <HAL_ADC_ConfigChannel>:
 800404c:	b5f0      	push	{r4, r5, r6, r7, lr}
 800404e:	f890 2058 	ldrb.w	r2, [r0, #88]	; 0x58
 8004052:	b083      	sub	sp, #12
 8004054:	4603      	mov	r3, r0
 8004056:	2a01      	cmp	r2, #1
 8004058:	f04f 0000 	mov.w	r0, #0
 800405c:	9001      	str	r0, [sp, #4]
 800405e:	f000 8143 	beq.w	80042e8 <HAL_ADC_ConfigChannel+0x29c>
 8004062:	681a      	ldr	r2, [r3, #0]
 8004064:	2001      	movs	r0, #1
 8004066:	f883 0058 	strb.w	r0, [r3, #88]	; 0x58
 800406a:	6894      	ldr	r4, [r2, #8]
 800406c:	0766      	lsls	r6, r4, #29
 800406e:	d43d      	bmi.n	80040ec <HAL_ADC_ConfigChannel+0xa0>
 8004070:	e9d1 0400 	ldrd	r0, r4, [r1]
 8004074:	09a6      	lsrs	r6, r4, #6
 8004076:	f102 0530 	add.w	r5, r2, #48	; 0x30
 800407a:	f006 060c 	and.w	r6, r6, #12
 800407e:	f004 041f 	and.w	r4, r4, #31
 8004082:	5977      	ldr	r7, [r6, r5]
 8004084:	f04f 0c1f 	mov.w	ip, #31
 8004088:	fa0c fc04 	lsl.w	ip, ip, r4
 800408c:	f3c0 6084 	ubfx	r0, r0, #26, #5
 8004090:	ea27 070c 	bic.w	r7, r7, ip
 8004094:	40a0      	lsls	r0, r4
 8004096:	4338      	orrs	r0, r7
 8004098:	5170      	str	r0, [r6, r5]
 800409a:	6890      	ldr	r0, [r2, #8]
 800409c:	0745      	lsls	r5, r0, #29
 800409e:	f140 809a 	bpl.w	80041d6 <HAL_ADC_ConfigChannel+0x18a>
 80040a2:	6890      	ldr	r0, [r2, #8]
 80040a4:	6808      	ldr	r0, [r1, #0]
 80040a6:	6894      	ldr	r4, [r2, #8]
 80040a8:	07e4      	lsls	r4, r4, #31
 80040aa:	d530      	bpl.n	800410e <HAL_ADC_ConfigChannel+0xc2>
 80040ac:	4604      	mov	r4, r0
 80040ae:	49c2      	ldr	r1, [pc, #776]	; (80043b8 <HAL_ADC_ConfigChannel+0x36c>)
 80040b0:	420c      	tst	r4, r1
 80040b2:	d02a      	beq.n	800410a <HAL_ADC_ConfigChannel+0xbe>
 80040b4:	49c1      	ldr	r1, [pc, #772]	; (80043bc <HAL_ADC_ConfigChannel+0x370>)
 80040b6:	4dc2      	ldr	r5, [pc, #776]	; (80043c0 <HAL_ADC_ConfigChannel+0x374>)
 80040b8:	6888      	ldr	r0, [r1, #8]
 80040ba:	42ac      	cmp	r4, r5
 80040bc:	f000 76e0 	and.w	r6, r0, #29360128	; 0x1c00000
 80040c0:	d01d      	beq.n	80040fe <HAL_ADC_ConfigChannel+0xb2>
 80040c2:	4dc0      	ldr	r5, [pc, #768]	; (80043c4 <HAL_ADC_ConfigChannel+0x378>)
 80040c4:	42ac      	cmp	r4, r5
 80040c6:	d01a      	beq.n	80040fe <HAL_ADC_ConfigChannel+0xb2>
 80040c8:	4dbf      	ldr	r5, [pc, #764]	; (80043c8 <HAL_ADC_ConfigChannel+0x37c>)
 80040ca:	42ac      	cmp	r4, r5
 80040cc:	f040 813e 	bne.w	800434c <HAL_ADC_ConfigChannel+0x300>
 80040d0:	f010 7080 	ands.w	r0, r0, #16777216	; 0x1000000
 80040d4:	d119      	bne.n	800410a <HAL_ADC_ConfigChannel+0xbe>
 80040d6:	4cbd      	ldr	r4, [pc, #756]	; (80043cc <HAL_ADC_ConfigChannel+0x380>)
 80040d8:	42a2      	cmp	r2, r4
 80040da:	d016      	beq.n	800410a <HAL_ADC_ConfigChannel+0xbe>
 80040dc:	688a      	ldr	r2, [r1, #8]
 80040de:	f022 72e0 	bic.w	r2, r2, #29360128	; 0x1c00000
 80040e2:	4316      	orrs	r6, r2
 80040e4:	f046 7680 	orr.w	r6, r6, #16777216	; 0x1000000
 80040e8:	608e      	str	r6, [r1, #8]
 80040ea:	e003      	b.n	80040f4 <HAL_ADC_ConfigChannel+0xa8>
 80040ec:	6dda      	ldr	r2, [r3, #92]	; 0x5c
 80040ee:	f042 0220 	orr.w	r2, r2, #32
 80040f2:	65da      	str	r2, [r3, #92]	; 0x5c
 80040f4:	2200      	movs	r2, #0
 80040f6:	f883 2058 	strb.w	r2, [r3, #88]	; 0x58
 80040fa:	b003      	add	sp, #12
 80040fc:	bdf0      	pop	{r4, r5, r6, r7, pc}
 80040fe:	0201      	lsls	r1, r0, #8
 8004100:	d403      	bmi.n	800410a <HAL_ADC_ConfigChannel+0xbe>
 8004102:	f1b2 4fa0 	cmp.w	r2, #1342177280	; 0x50000000
 8004106:	f000 8102 	beq.w	800430e <HAL_ADC_ConfigChannel+0x2c2>
 800410a:	2000      	movs	r0, #0
 800410c:	e7f2      	b.n	80040f4 <HAL_ADC_ConfigChannel+0xa8>
 800410e:	68ce      	ldr	r6, [r1, #12]
 8004110:	4caf      	ldr	r4, [pc, #700]	; (80043d0 <HAL_ADC_ConfigChannel+0x384>)
 8004112:	f8d2 50b0 	ldr.w	r5, [r2, #176]	; 0xb0
 8004116:	f8df c2c8 	ldr.w	ip, [pc, #712]	; 80043e0 <HAL_ADC_ConfigChannel+0x394>
 800411a:	f006 0718 	and.w	r7, r6, #24
 800411e:	40fc      	lsrs	r4, r7
 8004120:	f3c0 0712 	ubfx	r7, r0, #0, #19
 8004124:	4004      	ands	r4, r0
 8004126:	ea25 0507 	bic.w	r5, r5, r7
 800412a:	432c      	orrs	r4, r5
 800412c:	4566      	cmp	r6, ip
 800412e:	f8c2 40b0 	str.w	r4, [r2, #176]	; 0xb0
 8004132:	4604      	mov	r4, r0
 8004134:	d1bb      	bne.n	80040ae <HAL_ADC_ConfigChannel+0x62>
 8004136:	2f00      	cmp	r7, #0
 8004138:	f000 80d9 	beq.w	80042ee <HAL_ADC_ConfigChannel+0x2a2>
 800413c:	fa90 f4a0 	rbit	r4, r0
 8004140:	2c00      	cmp	r4, #0
 8004142:	f000 8181 	beq.w	8004448 <HAL_ADC_ConfigChannel+0x3fc>
 8004146:	fab4 f484 	clz	r4, r4
 800414a:	3401      	adds	r4, #1
 800414c:	f004 041f 	and.w	r4, r4, #31
 8004150:	2c09      	cmp	r4, #9
 8004152:	f240 8179 	bls.w	8004448 <HAL_ADC_ConfigChannel+0x3fc>
 8004156:	fa90 f5a0 	rbit	r5, r0
 800415a:	2d00      	cmp	r5, #0
 800415c:	f000 81d7 	beq.w	800450e <HAL_ADC_ConfigChannel+0x4c2>
 8004160:	fab5 f585 	clz	r5, r5
 8004164:	3501      	adds	r5, #1
 8004166:	06ad      	lsls	r5, r5, #26
 8004168:	f005 45f8 	and.w	r5, r5, #2080374784	; 0x7c000000
 800416c:	fa90 f4a0 	rbit	r4, r0
 8004170:	2c00      	cmp	r4, #0
 8004172:	f000 81d1 	beq.w	8004518 <HAL_ADC_ConfigChannel+0x4cc>
 8004176:	fab4 f484 	clz	r4, r4
 800417a:	3401      	adds	r4, #1
 800417c:	f004 041f 	and.w	r4, r4, #31
 8004180:	2601      	movs	r6, #1
 8004182:	fa06 f404 	lsl.w	r4, r6, r4
 8004186:	4325      	orrs	r5, r4
 8004188:	fa90 f0a0 	rbit	r0, r0
 800418c:	2800      	cmp	r0, #0
 800418e:	f000 81c1 	beq.w	8004514 <HAL_ADC_ConfigChannel+0x4c8>
 8004192:	fab0 f480 	clz	r4, r0
 8004196:	3401      	adds	r4, #1
 8004198:	f004 041f 	and.w	r4, r4, #31
 800419c:	eb04 0444 	add.w	r4, r4, r4, lsl #1
 80041a0:	f1a4 001e 	sub.w	r0, r4, #30
 80041a4:	0500      	lsls	r0, r0, #20
 80041a6:	f040 7000 	orr.w	r0, r0, #33554432	; 0x2000000
 80041aa:	4328      	orrs	r0, r5
 80041ac:	0dc7      	lsrs	r7, r0, #23
 80041ae:	f007 0704 	and.w	r7, r7, #4
 80041b2:	f102 0514 	add.w	r5, r2, #20
 80041b6:	688e      	ldr	r6, [r1, #8]
 80041b8:	597c      	ldr	r4, [r7, r5]
 80041ba:	f3c0 5004 	ubfx	r0, r0, #20, #5
 80041be:	f04f 0c07 	mov.w	ip, #7
 80041c2:	fa0c fc00 	lsl.w	ip, ip, r0
 80041c6:	ea24 040c 	bic.w	r4, r4, ip
 80041ca:	fa06 f000 	lsl.w	r0, r6, r0
 80041ce:	4320      	orrs	r0, r4
 80041d0:	5178      	str	r0, [r7, r5]
 80041d2:	680c      	ldr	r4, [r1, #0]
 80041d4:	e76b      	b.n	80040ae <HAL_ADC_ConfigChannel+0x62>
 80041d6:	6890      	ldr	r0, [r2, #8]
 80041d8:	f010 0008 	ands.w	r0, r0, #8
 80041dc:	f040 8082 	bne.w	80042e4 <HAL_ADC_ConfigChannel+0x298>
 80041e0:	688c      	ldr	r4, [r1, #8]
 80041e2:	680e      	ldr	r6, [r1, #0]
 80041e4:	f1b4 4f00 	cmp.w	r4, #2147483648	; 0x80000000
 80041e8:	f000 80c4 	beq.w	8004374 <HAL_ADC_ConfigChannel+0x328>
 80041ec:	ea4f 5cd6 	mov.w	ip, r6, lsr #23
 80041f0:	f00c 0c04 	and.w	ip, ip, #4
 80041f4:	f102 0714 	add.w	r7, r2, #20
 80041f8:	f3c6 5604 	ubfx	r6, r6, #20, #5
 80041fc:	f85c 5007 	ldr.w	r5, [ip, r7]
 8004200:	f04f 0e07 	mov.w	lr, #7
 8004204:	fa0e fe06 	lsl.w	lr, lr, r6
 8004208:	40b4      	lsls	r4, r6
 800420a:	ea25 050e 	bic.w	r5, r5, lr
 800420e:	432c      	orrs	r4, r5
 8004210:	f84c 4007 	str.w	r4, [ip, r7]
 8004214:	6954      	ldr	r4, [r2, #20]
 8004216:	f024 4400 	bic.w	r4, r4, #2147483648	; 0x80000000
 800421a:	6154      	str	r4, [r2, #20]
 800421c:	f8d1 c010 	ldr.w	ip, [r1, #16]
 8004220:	68d6      	ldr	r6, [r2, #12]
 8004222:	f1bc 0f04 	cmp.w	ip, #4
 8004226:	d02e      	beq.n	8004286 <HAL_ADC_ConfigChannel+0x23a>
 8004228:	f102 0460 	add.w	r4, r2, #96	; 0x60
 800422c:	f8df e1b4 	ldr.w	lr, [pc, #436]	; 80043e4 <HAL_ADC_ConfigChannel+0x398>
 8004230:	f854 502c 	ldr.w	r5, [r4, ip, lsl #2]
 8004234:	680f      	ldr	r7, [r1, #0]
 8004236:	ea05 0e0e 	and.w	lr, r5, lr
 800423a:	f3c6 06c1 	ubfx	r6, r6, #3, #2
 800423e:	694d      	ldr	r5, [r1, #20]
 8004240:	0076      	lsls	r6, r6, #1
 8004242:	f007 47f8 	and.w	r7, r7, #2080374784	; 0x7c000000
 8004246:	40b5      	lsls	r5, r6
 8004248:	ea47 070e 	orr.w	r7, r7, lr
 800424c:	433d      	orrs	r5, r7
 800424e:	f045 4500 	orr.w	r5, r5, #2147483648	; 0x80000000
 8004252:	f844 502c 	str.w	r5, [r4, ip, lsl #2]
 8004256:	690f      	ldr	r7, [r1, #16]
 8004258:	698e      	ldr	r6, [r1, #24]
 800425a:	f854 5027 	ldr.w	r5, [r4, r7, lsl #2]
 800425e:	f025 7580 	bic.w	r5, r5, #16777216	; 0x1000000
 8004262:	4335      	orrs	r5, r6
 8004264:	f844 5027 	str.w	r5, [r4, r7, lsl #2]
 8004268:	690e      	ldr	r6, [r1, #16]
 800426a:	7f0f      	ldrb	r7, [r1, #28]
 800426c:	f854 5026 	ldr.w	r5, [r4, r6, lsl #2]
 8004270:	2f01      	cmp	r7, #1
 8004272:	f025 7500 	bic.w	r5, r5, #33554432	; 0x2000000
 8004276:	bf08      	it	eq
 8004278:	f04f 7000 	moveq.w	r0, #33554432	; 0x2000000
 800427c:	4328      	orrs	r0, r5
 800427e:	f844 0026 	str.w	r0, [r4, r6, lsl #2]
 8004282:	6808      	ldr	r0, [r1, #0]
 8004284:	e70f      	b.n	80040a6 <HAL_ADC_ConfigChannel+0x5a>
 8004286:	6808      	ldr	r0, [r1, #0]
 8004288:	6e14      	ldr	r4, [r2, #96]	; 0x60
 800428a:	6e14      	ldr	r4, [r2, #96]	; 0x60
 800428c:	f3c0 0512 	ubfx	r5, r0, #0, #19
 8004290:	f3c4 6484 	ubfx	r4, r4, #26, #5
 8004294:	2d00      	cmp	r5, #0
 8004296:	f040 80a7 	bne.w	80043e8 <HAL_ADC_ConfigChannel+0x39c>
 800429a:	f3c0 6584 	ubfx	r5, r0, #26, #5
 800429e:	42ac      	cmp	r4, r5
 80042a0:	f000 8119 	beq.w	80044d6 <HAL_ADC_ConfigChannel+0x48a>
 80042a4:	6e54      	ldr	r4, [r2, #100]	; 0x64
 80042a6:	6e56      	ldr	r6, [r2, #100]	; 0x64
 80042a8:	f102 0460 	add.w	r4, r2, #96	; 0x60
 80042ac:	f3c6 6684 	ubfx	r6, r6, #26, #5
 80042b0:	f102 0764 	add.w	r7, r2, #100	; 0x64
 80042b4:	42ae      	cmp	r6, r5
 80042b6:	f000 80fc 	beq.w	80044b2 <HAL_ADC_ConfigChannel+0x466>
 80042ba:	68a6      	ldr	r6, [r4, #8]
 80042bc:	68a6      	ldr	r6, [r4, #8]
 80042be:	f104 0708 	add.w	r7, r4, #8
 80042c2:	f3c6 6684 	ubfx	r6, r6, #26, #5
 80042c6:	42ae      	cmp	r6, r5
 80042c8:	f000 80e2 	beq.w	8004490 <HAL_ADC_ConfigChannel+0x444>
 80042cc:	68e6      	ldr	r6, [r4, #12]
 80042ce:	68e6      	ldr	r6, [r4, #12]
 80042d0:	340c      	adds	r4, #12
 80042d2:	f3c6 6684 	ubfx	r6, r6, #26, #5
 80042d6:	42b5      	cmp	r5, r6
 80042d8:	f47f aee5 	bne.w	80040a6 <HAL_ADC_ConfigChannel+0x5a>
 80042dc:	6820      	ldr	r0, [r4, #0]
 80042de:	f020 4000 	bic.w	r0, r0, #2147483648	; 0x80000000
 80042e2:	6020      	str	r0, [r4, #0]
 80042e4:	6808      	ldr	r0, [r1, #0]
 80042e6:	e6de      	b.n	80040a6 <HAL_ADC_ConfigChannel+0x5a>
 80042e8:	2002      	movs	r0, #2
 80042ea:	b003      	add	sp, #12
 80042ec:	bdf0      	pop	{r4, r5, r6, r7, pc}
 80042ee:	0e80      	lsrs	r0, r0, #26
 80042f0:	1c44      	adds	r4, r0, #1
 80042f2:	f004 061f 	and.w	r6, r4, #31
 80042f6:	2e09      	cmp	r6, #9
 80042f8:	d850      	bhi.n	800439c <HAL_ADC_ConfigChannel+0x350>
 80042fa:	06a5      	lsls	r5, r4, #26
 80042fc:	2401      	movs	r4, #1
 80042fe:	f005 45f8 	and.w	r5, r5, #2080374784	; 0x7c000000
 8004302:	40b4      	lsls	r4, r6
 8004304:	eb06 0046 	add.w	r0, r6, r6, lsl #1
 8004308:	4325      	orrs	r5, r4
 800430a:	0500      	lsls	r0, r0, #20
 800430c:	e74d      	b.n	80041aa <HAL_ADC_ConfigChannel+0x15e>
 800430e:	482b      	ldr	r0, [pc, #172]	; (80043bc <HAL_ADC_ConfigChannel+0x370>)
 8004310:	4a30      	ldr	r2, [pc, #192]	; (80043d4 <HAL_ADC_ConfigChannel+0x388>)
 8004312:	6881      	ldr	r1, [r0, #8]
 8004314:	4c30      	ldr	r4, [pc, #192]	; (80043d8 <HAL_ADC_ConfigChannel+0x38c>)
 8004316:	f021 71e0 	bic.w	r1, r1, #29360128	; 0x1c00000
 800431a:	430e      	orrs	r6, r1
 800431c:	f446 0600 	orr.w	r6, r6, #8388608	; 0x800000
 8004320:	6086      	str	r6, [r0, #8]
 8004322:	6812      	ldr	r2, [r2, #0]
 8004324:	0992      	lsrs	r2, r2, #6
 8004326:	fba4 1202 	umull	r1, r2, r4, r2
 800432a:	0992      	lsrs	r2, r2, #6
 800432c:	3201      	adds	r2, #1
 800432e:	eb02 0242 	add.w	r2, r2, r2, lsl #1
 8004332:	0092      	lsls	r2, r2, #2
 8004334:	9201      	str	r2, [sp, #4]
 8004336:	9a01      	ldr	r2, [sp, #4]
 8004338:	2a00      	cmp	r2, #0
 800433a:	f43f aee6 	beq.w	800410a <HAL_ADC_ConfigChannel+0xbe>
 800433e:	9a01      	ldr	r2, [sp, #4]
 8004340:	3a01      	subs	r2, #1
 8004342:	9201      	str	r2, [sp, #4]
 8004344:	9a01      	ldr	r2, [sp, #4]
 8004346:	2a00      	cmp	r2, #0
 8004348:	d1f9      	bne.n	800433e <HAL_ADC_ConfigChannel+0x2f2>
 800434a:	e6de      	b.n	800410a <HAL_ADC_ConfigChannel+0xbe>
 800434c:	4d23      	ldr	r5, [pc, #140]	; (80043dc <HAL_ADC_ConfigChannel+0x390>)
 800434e:	42ac      	cmp	r4, r5
 8004350:	f47f aedb 	bne.w	800410a <HAL_ADC_ConfigChannel+0xbe>
 8004354:	f410 0080 	ands.w	r0, r0, #4194304	; 0x400000
 8004358:	f47f aed7 	bne.w	800410a <HAL_ADC_ConfigChannel+0xbe>
 800435c:	4c1b      	ldr	r4, [pc, #108]	; (80043cc <HAL_ADC_ConfigChannel+0x380>)
 800435e:	42a2      	cmp	r2, r4
 8004360:	f43f aed3 	beq.w	800410a <HAL_ADC_ConfigChannel+0xbe>
 8004364:	688a      	ldr	r2, [r1, #8]
 8004366:	f022 72e0 	bic.w	r2, r2, #29360128	; 0x1c00000
 800436a:	4332      	orrs	r2, r6
 800436c:	f442 0280 	orr.w	r2, r2, #4194304	; 0x400000
 8004370:	608a      	str	r2, [r1, #8]
 8004372:	e6bf      	b.n	80040f4 <HAL_ADC_ConfigChannel+0xa8>
 8004374:	0df5      	lsrs	r5, r6, #23
 8004376:	f102 0414 	add.w	r4, r2, #20
 800437a:	f005 0504 	and.w	r5, r5, #4
 800437e:	f3c6 5604 	ubfx	r6, r6, #20, #5
 8004382:	592f      	ldr	r7, [r5, r4]
 8004384:	f04f 0c07 	mov.w	ip, #7
 8004388:	fa0c f606 	lsl.w	r6, ip, r6
 800438c:	ea27 0606 	bic.w	r6, r7, r6
 8004390:	512e      	str	r6, [r5, r4]
 8004392:	6954      	ldr	r4, [r2, #20]
 8004394:	f044 4400 	orr.w	r4, r4, #2147483648	; 0x80000000
 8004398:	6154      	str	r4, [r2, #20]
 800439a:	e73f      	b.n	800421c <HAL_ADC_ConfigChannel+0x1d0>
 800439c:	eb06 0046 	add.w	r0, r6, r6, lsl #1
 80043a0:	06a5      	lsls	r5, r4, #26
 80043a2:	381e      	subs	r0, #30
 80043a4:	2401      	movs	r4, #1
 80043a6:	f005 45f8 	and.w	r5, r5, #2080374784	; 0x7c000000
 80043aa:	fa04 f606 	lsl.w	r6, r4, r6
 80043ae:	0500      	lsls	r0, r0, #20
 80043b0:	4335      	orrs	r5, r6
 80043b2:	f040 7000 	orr.w	r0, r0, #33554432	; 0x2000000
 80043b6:	e6f8      	b.n	80041aa <HAL_ADC_ConfigChannel+0x15e>
 80043b8:	80080000 	.word	0x80080000
 80043bc:	50000300 	.word	0x50000300
 80043c0:	c3210000 	.word	0xc3210000
 80043c4:	90c00010 	.word	0x90c00010
 80043c8:	c7520000 	.word	0xc7520000
 80043cc:	50000100 	.word	0x50000100
 80043d0:	0007ffff 	.word	0x0007ffff
 80043d4:	20000638 	.word	0x20000638
 80043d8:	053e2d63 	.word	0x053e2d63
 80043dc:	cb840000 	.word	0xcb840000
 80043e0:	407f0000 	.word	0x407f0000
 80043e4:	03fff000 	.word	0x03fff000
 80043e8:	fa90 f5a0 	rbit	r5, r0
 80043ec:	b11d      	cbz	r5, 80043f6 <HAL_ADC_ConfigChannel+0x3aa>
 80043ee:	fab5 f585 	clz	r5, r5
 80043f2:	42ac      	cmp	r4, r5
 80043f4:	d06f      	beq.n	80044d6 <HAL_ADC_ConfigChannel+0x48a>
 80043f6:	6e54      	ldr	r4, [r2, #100]	; 0x64
 80043f8:	6e56      	ldr	r6, [r2, #100]	; 0x64
 80043fa:	f102 0460 	add.w	r4, r2, #96	; 0x60
 80043fe:	f3c6 6684 	ubfx	r6, r6, #26, #5
 8004402:	f102 0764 	add.w	r7, r2, #100	; 0x64
 8004406:	fa90 f5a0 	rbit	r5, r0
 800440a:	b11d      	cbz	r5, 8004414 <HAL_ADC_ConfigChannel+0x3c8>
 800440c:	fab5 f585 	clz	r5, r5
 8004410:	42ae      	cmp	r6, r5
 8004412:	d04e      	beq.n	80044b2 <HAL_ADC_ConfigChannel+0x466>
 8004414:	68a5      	ldr	r5, [r4, #8]
 8004416:	68a6      	ldr	r6, [r4, #8]
 8004418:	f104 0708 	add.w	r7, r4, #8
 800441c:	f3c6 6684 	ubfx	r6, r6, #26, #5
 8004420:	fa90 f5a0 	rbit	r5, r0
 8004424:	b11d      	cbz	r5, 800442e <HAL_ADC_ConfigChannel+0x3e2>
 8004426:	fab5 f585 	clz	r5, r5
 800442a:	42ae      	cmp	r6, r5
 800442c:	d030      	beq.n	8004490 <HAL_ADC_ConfigChannel+0x444>
 800442e:	68e5      	ldr	r5, [r4, #12]
 8004430:	68e6      	ldr	r6, [r4, #12]
 8004432:	340c      	adds	r4, #12
 8004434:	f3c6 6684 	ubfx	r6, r6, #26, #5
 8004438:	fa90 f5a0 	rbit	r5, r0
 800443c:	2d00      	cmp	r5, #0
 800443e:	f43f ae32 	beq.w	80040a6 <HAL_ADC_ConfigChannel+0x5a>
 8004442:	fab5 f585 	clz	r5, r5
 8004446:	e746      	b.n	80042d6 <HAL_ADC_ConfigChannel+0x28a>
 8004448:	fa90 f5a0 	rbit	r5, r0
 800444c:	2d00      	cmp	r5, #0
 800444e:	d058      	beq.n	8004502 <HAL_ADC_ConfigChannel+0x4b6>
 8004450:	fab5 f585 	clz	r5, r5
 8004454:	3501      	adds	r5, #1
 8004456:	06ad      	lsls	r5, r5, #26
 8004458:	f005 45f8 	and.w	r5, r5, #2080374784	; 0x7c000000
 800445c:	fa90 f4a0 	rbit	r4, r0
 8004460:	2c00      	cmp	r4, #0
 8004462:	d04c      	beq.n	80044fe <HAL_ADC_ConfigChannel+0x4b2>
 8004464:	fab4 f484 	clz	r4, r4
 8004468:	3401      	adds	r4, #1
 800446a:	f004 041f 	and.w	r4, r4, #31
 800446e:	2601      	movs	r6, #1
 8004470:	fa06 f404 	lsl.w	r4, r6, r4
 8004474:	4325      	orrs	r5, r4
 8004476:	fa90 f0a0 	rbit	r0, r0
 800447a:	2800      	cmp	r0, #0
 800447c:	d044      	beq.n	8004508 <HAL_ADC_ConfigChannel+0x4bc>
 800447e:	fab0 f480 	clz	r4, r0
 8004482:	3401      	adds	r4, #1
 8004484:	f004 041f 	and.w	r4, r4, #31
 8004488:	eb04 0444 	add.w	r4, r4, r4, lsl #1
 800448c:	0520      	lsls	r0, r4, #20
 800448e:	e68c      	b.n	80041aa <HAL_ADC_ConfigChannel+0x15e>
 8004490:	6838      	ldr	r0, [r7, #0]
 8004492:	f020 4000 	bic.w	r0, r0, #2147483648	; 0x80000000
 8004496:	6038      	str	r0, [r7, #0]
 8004498:	6808      	ldr	r0, [r1, #0]
 800449a:	68e5      	ldr	r5, [r4, #12]
 800449c:	68e6      	ldr	r6, [r4, #12]
 800449e:	f3c0 0512 	ubfx	r5, r0, #0, #19
 80044a2:	f3c6 6684 	ubfx	r6, r6, #26, #5
 80044a6:	340c      	adds	r4, #12
 80044a8:	2d00      	cmp	r5, #0
 80044aa:	d1c5      	bne.n	8004438 <HAL_ADC_ConfigChannel+0x3ec>
 80044ac:	f3c0 6584 	ubfx	r5, r0, #26, #5
 80044b0:	e711      	b.n	80042d6 <HAL_ADC_ConfigChannel+0x28a>
 80044b2:	6838      	ldr	r0, [r7, #0]
 80044b4:	f020 4000 	bic.w	r0, r0, #2147483648	; 0x80000000
 80044b8:	6038      	str	r0, [r7, #0]
 80044ba:	6808      	ldr	r0, [r1, #0]
 80044bc:	68a5      	ldr	r5, [r4, #8]
 80044be:	68a6      	ldr	r6, [r4, #8]
 80044c0:	f3c0 0512 	ubfx	r5, r0, #0, #19
 80044c4:	f3c6 6684 	ubfx	r6, r6, #26, #5
 80044c8:	f104 0708 	add.w	r7, r4, #8
 80044cc:	2d00      	cmp	r5, #0
 80044ce:	d1a7      	bne.n	8004420 <HAL_ADC_ConfigChannel+0x3d4>
 80044d0:	f3c0 6584 	ubfx	r5, r0, #26, #5
 80044d4:	e6f7      	b.n	80042c6 <HAL_ADC_ConfigChannel+0x27a>
 80044d6:	6e10      	ldr	r0, [r2, #96]	; 0x60
 80044d8:	4614      	mov	r4, r2
 80044da:	f020 4000 	bic.w	r0, r0, #2147483648	; 0x80000000
 80044de:	f844 0f60 	str.w	r0, [r4, #96]!
 80044e2:	6808      	ldr	r0, [r1, #0]
 80044e4:	6e55      	ldr	r5, [r2, #100]	; 0x64
 80044e6:	6e56      	ldr	r6, [r2, #100]	; 0x64
 80044e8:	f3c0 0512 	ubfx	r5, r0, #0, #19
 80044ec:	f3c6 6684 	ubfx	r6, r6, #26, #5
 80044f0:	f102 0764 	add.w	r7, r2, #100	; 0x64
 80044f4:	2d00      	cmp	r5, #0
 80044f6:	d186      	bne.n	8004406 <HAL_ADC_ConfigChannel+0x3ba>
 80044f8:	f3c0 6584 	ubfx	r5, r0, #26, #5
 80044fc:	e6da      	b.n	80042b4 <HAL_ADC_ConfigChannel+0x268>
 80044fe:	2402      	movs	r4, #2
 8004500:	e7b8      	b.n	8004474 <HAL_ADC_ConfigChannel+0x428>
 8004502:	f04f 6580 	mov.w	r5, #67108864	; 0x4000000
 8004506:	e7a9      	b.n	800445c <HAL_ADC_ConfigChannel+0x410>
 8004508:	f44f 1040 	mov.w	r0, #3145728	; 0x300000
 800450c:	e64d      	b.n	80041aa <HAL_ADC_ConfigChannel+0x15e>
 800450e:	f04f 6580 	mov.w	r5, #67108864	; 0x4000000
 8004512:	e62b      	b.n	800416c <HAL_ADC_ConfigChannel+0x120>
 8004514:	4801      	ldr	r0, [pc, #4]	; (800451c <HAL_ADC_ConfigChannel+0x4d0>)
 8004516:	e648      	b.n	80041aa <HAL_ADC_ConfigChannel+0x15e>
 8004518:	2402      	movs	r4, #2
 800451a:	e634      	b.n	8004186 <HAL_ADC_ConfigChannel+0x13a>
 800451c:	fe500000 	.word	0xfe500000

08004520 <HAL_ADCEx_InjectedConfigChannel>:
 8004520:	e92d 41f0 	stmdb	sp!, {r4, r5, r6, r7, r8, lr}
 8004524:	f890 3058 	ldrb.w	r3, [r0, #88]	; 0x58
 8004528:	6944      	ldr	r4, [r0, #20]
 800452a:	b082      	sub	sp, #8
 800452c:	2200      	movs	r2, #0
 800452e:	2b01      	cmp	r3, #1
 8004530:	9201      	str	r2, [sp, #4]
 8004532:	f000 8187 	beq.w	8004844 <HAL_ADCEx_InjectedConfigChannel+0x324>
 8004536:	2301      	movs	r3, #1
 8004538:	f880 3058 	strb.w	r3, [r0, #88]	; 0x58
 800453c:	b1e4      	cbz	r4, 8004578 <HAL_ADCEx_InjectedConfigChannel+0x58>
 800453e:	6a0b      	ldr	r3, [r1, #32]
 8004540:	2b01      	cmp	r3, #1
 8004542:	d019      	beq.n	8004578 <HAL_ADCEx_InjectedConfigChannel+0x58>
 8004544:	6e84      	ldr	r4, [r0, #104]	; 0x68
 8004546:	2c00      	cmp	r4, #0
 8004548:	f040 8126 	bne.w	8004798 <HAL_ADCEx_InjectedConfigChannel+0x278>
 800454c:	6a8a      	ldr	r2, [r1, #40]	; 0x28
 800454e:	2a00      	cmp	r2, #0
 8004550:	f000 8248 	beq.w	80049e4 <HAL_ADCEx_InjectedConfigChannel+0x4c4>
 8004554:	1e5c      	subs	r4, r3, #1
 8004556:	f002 027c 	and.w	r2, r2, #124	; 0x7c
 800455a:	6acb      	ldr	r3, [r1, #44]	; 0x2c
 800455c:	4322      	orrs	r2, r4
 800455e:	4313      	orrs	r3, r2
 8004560:	e9d1 2500 	ldrd	r2, r5, [r1]
 8004564:	6684      	str	r4, [r0, #104]	; 0x68
 8004566:	f005 051f 	and.w	r5, r5, #31
 800456a:	f3c2 6484 	ubfx	r4, r2, #26, #5
 800456e:	40ac      	lsls	r4, r5
 8004570:	4323      	orrs	r3, r4
 8004572:	6643      	str	r3, [r0, #100]	; 0x64
 8004574:	6803      	ldr	r3, [r0, #0]
 8004576:	e005      	b.n	8004584 <HAL_ADCEx_InjectedConfigChannel+0x64>
 8004578:	684b      	ldr	r3, [r1, #4]
 800457a:	2b09      	cmp	r3, #9
 800457c:	f000 80f8 	beq.w	8004770 <HAL_ADCEx_InjectedConfigChannel+0x250>
 8004580:	680a      	ldr	r2, [r1, #0]
 8004582:	6803      	ldr	r3, [r0, #0]
 8004584:	689c      	ldr	r4, [r3, #8]
 8004586:	0724      	lsls	r4, r4, #28
 8004588:	d410      	bmi.n	80045ac <HAL_ADCEx_InjectedConfigChannel+0x8c>
 800458a:	f891 4025 	ldrb.w	r4, [r1, #37]	; 0x25
 800458e:	2c00      	cmp	r4, #0
 8004590:	f040 80e5 	bne.w	800475e <HAL_ADCEx_InjectedConfigChannel+0x23e>
 8004594:	f891 4024 	ldrb.w	r4, [r1, #36]	; 0x24
 8004598:	f891 6026 	ldrb.w	r6, [r1, #38]	; 0x26
 800459c:	68dd      	ldr	r5, [r3, #12]
 800459e:	0524      	lsls	r4, r4, #20
 80045a0:	ea44 5446 	orr.w	r4, r4, r6, lsl #21
 80045a4:	f425 1540 	bic.w	r5, r5, #3145728	; 0x300000
 80045a8:	432c      	orrs	r4, r5
 80045aa:	60dc      	str	r4, [r3, #12]
 80045ac:	689c      	ldr	r4, [r3, #8]
 80045ae:	f014 0404 	ands.w	r4, r4, #4
 80045b2:	d060      	beq.n	8004676 <HAL_ADCEx_InjectedConfigChannel+0x156>
 80045b4:	689c      	ldr	r4, [r3, #8]
 80045b6:	2400      	movs	r4, #0
 80045b8:	689d      	ldr	r5, [r3, #8]
 80045ba:	07ef      	lsls	r7, r5, #31
 80045bc:	d414      	bmi.n	80045e8 <HAL_ADCEx_InjectedConfigChannel+0xc8>
 80045be:	68cf      	ldr	r7, [r1, #12]
 80045c0:	4dbe      	ldr	r5, [pc, #760]	; (80048bc <HAL_ADCEx_InjectedConfigChannel+0x39c>)
 80045c2:	f8d3 60b0 	ldr.w	r6, [r3, #176]	; 0xb0
 80045c6:	f8df e320 	ldr.w	lr, [pc, #800]	; 80048e8 <HAL_ADCEx_InjectedConfigChannel+0x3c8>
 80045ca:	f007 0c18 	and.w	ip, r7, #24
 80045ce:	fa25 f50c 	lsr.w	r5, r5, ip
 80045d2:	f3c2 0c12 	ubfx	ip, r2, #0, #19
 80045d6:	4015      	ands	r5, r2
 80045d8:	ea26 060c 	bic.w	r6, r6, ip
 80045dc:	4335      	orrs	r5, r6
 80045de:	4577      	cmp	r7, lr
 80045e0:	f8c3 50b0 	str.w	r5, [r3, #176]	; 0xb0
 80045e4:	f000 80fd 	beq.w	80047e2 <HAL_ADCEx_InjectedConfigChannel+0x2c2>
 80045e8:	49b5      	ldr	r1, [pc, #724]	; (80048c0 <HAL_ADCEx_InjectedConfigChannel+0x3a0>)
 80045ea:	420a      	tst	r2, r1
 80045ec:	d019      	beq.n	8004622 <HAL_ADCEx_InjectedConfigChannel+0x102>
 80045ee:	4db5      	ldr	r5, [pc, #724]	; (80048c4 <HAL_ADCEx_InjectedConfigChannel+0x3a4>)
 80045f0:	4eb5      	ldr	r6, [pc, #724]	; (80048c8 <HAL_ADCEx_InjectedConfigChannel+0x3a8>)
 80045f2:	68a9      	ldr	r1, [r5, #8]
 80045f4:	42b2      	cmp	r2, r6
 80045f6:	f001 77e0 	and.w	r7, r1, #29360128	; 0x1c00000
 80045fa:	d019      	beq.n	8004630 <HAL_ADCEx_InjectedConfigChannel+0x110>
 80045fc:	4eb3      	ldr	r6, [pc, #716]	; (80048cc <HAL_ADCEx_InjectedConfigChannel+0x3ac>)
 80045fe:	42b2      	cmp	r2, r6
 8004600:	d016      	beq.n	8004630 <HAL_ADCEx_InjectedConfigChannel+0x110>
 8004602:	4eb3      	ldr	r6, [pc, #716]	; (80048d0 <HAL_ADCEx_InjectedConfigChannel+0x3b0>)
 8004604:	42b2      	cmp	r2, r6
 8004606:	f040 8126 	bne.w	8004856 <HAL_ADCEx_InjectedConfigChannel+0x336>
 800460a:	01ce      	lsls	r6, r1, #7
 800460c:	d409      	bmi.n	8004622 <HAL_ADCEx_InjectedConfigChannel+0x102>
 800460e:	4ab1      	ldr	r2, [pc, #708]	; (80048d4 <HAL_ADCEx_InjectedConfigChannel+0x3b4>)
 8004610:	4293      	cmp	r3, r2
 8004612:	d006      	beq.n	8004622 <HAL_ADCEx_InjectedConfigChannel+0x102>
 8004614:	68ab      	ldr	r3, [r5, #8]
 8004616:	f023 73e0 	bic.w	r3, r3, #29360128	; 0x1c00000
 800461a:	431f      	orrs	r7, r3
 800461c:	f047 7780 	orr.w	r7, r7, #16777216	; 0x1000000
 8004620:	60af      	str	r7, [r5, #8]
 8004622:	2300      	movs	r3, #0
 8004624:	f880 3058 	strb.w	r3, [r0, #88]	; 0x58
 8004628:	4620      	mov	r0, r4
 800462a:	b002      	add	sp, #8
 800462c:	e8bd 81f0 	ldmia.w	sp!, {r4, r5, r6, r7, r8, pc}
 8004630:	020a      	lsls	r2, r1, #8
 8004632:	d4f6      	bmi.n	8004622 <HAL_ADCEx_InjectedConfigChannel+0x102>
 8004634:	f1b3 4fa0 	cmp.w	r3, #1342177280	; 0x50000000
 8004638:	d1f3      	bne.n	8004622 <HAL_ADCEx_InjectedConfigChannel+0x102>
 800463a:	4aa2      	ldr	r2, [pc, #648]	; (80048c4 <HAL_ADCEx_InjectedConfigChannel+0x3a4>)
 800463c:	49a6      	ldr	r1, [pc, #664]	; (80048d8 <HAL_ADCEx_InjectedConfigChannel+0x3b8>)
 800463e:	6893      	ldr	r3, [r2, #8]
 8004640:	f023 73e0 	bic.w	r3, r3, #29360128	; 0x1c00000
 8004644:	431f      	orrs	r7, r3
 8004646:	f447 0700 	orr.w	r7, r7, #8388608	; 0x800000
 800464a:	6097      	str	r7, [r2, #8]
 800464c:	680b      	ldr	r3, [r1, #0]
 800464e:	4aa3      	ldr	r2, [pc, #652]	; (80048dc <HAL_ADCEx_InjectedConfigChannel+0x3bc>)
 8004650:	099b      	lsrs	r3, r3, #6
 8004652:	fba2 2303 	umull	r2, r3, r2, r3
 8004656:	099b      	lsrs	r3, r3, #6
 8004658:	eb03 0343 	add.w	r3, r3, r3, lsl #1
 800465c:	009b      	lsls	r3, r3, #2
 800465e:	3318      	adds	r3, #24
 8004660:	9301      	str	r3, [sp, #4]
 8004662:	9b01      	ldr	r3, [sp, #4]
 8004664:	2b00      	cmp	r3, #0
 8004666:	d0dc      	beq.n	8004622 <HAL_ADCEx_InjectedConfigChannel+0x102>
 8004668:	9b01      	ldr	r3, [sp, #4]
 800466a:	3b01      	subs	r3, #1
 800466c:	9301      	str	r3, [sp, #4]
 800466e:	9b01      	ldr	r3, [sp, #4]
 8004670:	2b00      	cmp	r3, #0
 8004672:	d1f9      	bne.n	8004668 <HAL_ADCEx_InjectedConfigChannel+0x148>
 8004674:	e7d5      	b.n	8004622 <HAL_ADCEx_InjectedConfigChannel+0x102>
 8004676:	689d      	ldr	r5, [r3, #8]
 8004678:	f015 0508 	ands.w	r5, r5, #8
 800467c:	d19c      	bne.n	80045b8 <HAL_ADCEx_InjectedConfigChannel+0x98>
 800467e:	6a8c      	ldr	r4, [r1, #40]	; 0x28
 8004680:	2c00      	cmp	r4, #0
 8004682:	f040 809f 	bne.w	80047c4 <HAL_ADCEx_InjectedConfigChannel+0x2a4>
 8004686:	f891 4025 	ldrb.w	r4, [r1, #37]	; 0x25
 800468a:	2c01      	cmp	r4, #1
 800468c:	68dc      	ldr	r4, [r3, #12]
 800468e:	bf0c      	ite	eq
 8004690:	f044 7400 	orreq.w	r4, r4, #33554432	; 0x2000000
 8004694:	f024 7400 	bicne.w	r4, r4, #33554432	; 0x2000000
 8004698:	60dc      	str	r4, [r3, #12]
 800469a:	2400      	movs	r4, #0
 800469c:	f891 6030 	ldrb.w	r6, [r1, #48]	; 0x30
 80046a0:	2e01      	cmp	r6, #1
 80046a2:	f000 80ff 	beq.w	80048a4 <HAL_ADCEx_InjectedConfigChannel+0x384>
 80046a6:	691e      	ldr	r6, [r3, #16]
 80046a8:	f026 0602 	bic.w	r6, r6, #2
 80046ac:	611e      	str	r6, [r3, #16]
 80046ae:	688e      	ldr	r6, [r1, #8]
 80046b0:	f1b6 4f00 	cmp.w	r6, #2147483648	; 0x80000000
 80046b4:	f000 80e2 	beq.w	800487c <HAL_ADCEx_InjectedConfigChannel+0x35c>
 80046b8:	ea4f 5ed2 	mov.w	lr, r2, lsr #23
 80046bc:	f00e 0e04 	and.w	lr, lr, #4
 80046c0:	f103 0c14 	add.w	ip, r3, #20
 80046c4:	f3c2 5204 	ubfx	r2, r2, #20, #5
 80046c8:	f85e 700c 	ldr.w	r7, [lr, ip]
 80046cc:	f04f 0807 	mov.w	r8, #7
 80046d0:	fa08 f802 	lsl.w	r8, r8, r2
 80046d4:	4096      	lsls	r6, r2
 80046d6:	ea27 0208 	bic.w	r2, r7, r8
 80046da:	4316      	orrs	r6, r2
 80046dc:	f84e 600c 	str.w	r6, [lr, ip]
 80046e0:	695a      	ldr	r2, [r3, #20]
 80046e2:	f022 4200 	bic.w	r2, r2, #2147483648	; 0x80000000
 80046e6:	615a      	str	r2, [r3, #20]
 80046e8:	f8d1 e010 	ldr.w	lr, [r1, #16]
 80046ec:	68df      	ldr	r7, [r3, #12]
 80046ee:	f1be 0f04 	cmp.w	lr, #4
 80046f2:	f000 80fd 	beq.w	80048f0 <HAL_ADCEx_InjectedConfigChannel+0x3d0>
 80046f6:	f103 0260 	add.w	r2, r3, #96	; 0x60
 80046fa:	f8df 81f0 	ldr.w	r8, [pc, #496]	; 80048ec <HAL_ADCEx_InjectedConfigChannel+0x3cc>
 80046fe:	f852 602e 	ldr.w	r6, [r2, lr, lsl #2]
 8004702:	ea06 0808 	and.w	r8, r6, r8
 8004706:	680e      	ldr	r6, [r1, #0]
 8004708:	f3c7 0cc1 	ubfx	ip, r7, #3, #2
 800470c:	f006 47f8 	and.w	r7, r6, #2080374784	; 0x7c000000
 8004710:	694e      	ldr	r6, [r1, #20]
 8004712:	ea4f 0c4c 	mov.w	ip, ip, lsl #1
 8004716:	fa06 f60c 	lsl.w	r6, r6, ip
 800471a:	ea47 0708 	orr.w	r7, r7, r8
 800471e:	433e      	orrs	r6, r7
 8004720:	f046 4600 	orr.w	r6, r6, #2147483648	; 0x80000000
 8004724:	f842 602e 	str.w	r6, [r2, lr, lsl #2]
 8004728:	f8d1 c010 	ldr.w	ip, [r1, #16]
 800472c:	698f      	ldr	r7, [r1, #24]
 800472e:	f852 602c 	ldr.w	r6, [r2, ip, lsl #2]
 8004732:	f026 7680 	bic.w	r6, r6, #16777216	; 0x1000000
 8004736:	433e      	orrs	r6, r7
 8004738:	f842 602c 	str.w	r6, [r2, ip, lsl #2]
 800473c:	690f      	ldr	r7, [r1, #16]
 800473e:	f891 c01c 	ldrb.w	ip, [r1, #28]
 8004742:	f852 6027 	ldr.w	r6, [r2, r7, lsl #2]
 8004746:	f1bc 0f01 	cmp.w	ip, #1
 800474a:	f026 7600 	bic.w	r6, r6, #33554432	; 0x2000000
 800474e:	bf08      	it	eq
 8004750:	f04f 7500 	moveq.w	r5, #33554432	; 0x2000000
 8004754:	4335      	orrs	r5, r6
 8004756:	f842 5027 	str.w	r5, [r2, r7, lsl #2]
 800475a:	680a      	ldr	r2, [r1, #0]
 800475c:	e72c      	b.n	80045b8 <HAL_ADCEx_InjectedConfigChannel+0x98>
 800475e:	68dc      	ldr	r4, [r3, #12]
 8004760:	f891 5026 	ldrb.w	r5, [r1, #38]	; 0x26
 8004764:	f424 1440 	bic.w	r4, r4, #3145728	; 0x300000
 8004768:	ea44 5445 	orr.w	r4, r4, r5, lsl #21
 800476c:	60dc      	str	r4, [r3, #12]
 800476e:	e71d      	b.n	80045ac <HAL_ADCEx_InjectedConfigChannel+0x8c>
 8004770:	6a8b      	ldr	r3, [r1, #40]	; 0x28
 8004772:	680a      	ldr	r2, [r1, #0]
 8004774:	2b00      	cmp	r3, #0
 8004776:	d06a      	beq.n	800484e <HAL_ADCEx_InjectedConfigChannel+0x32e>
 8004778:	6acc      	ldr	r4, [r1, #44]	; 0x2c
 800477a:	f003 037c 	and.w	r3, r3, #124	; 0x7c
 800477e:	0c55      	lsrs	r5, r2, #17
 8004780:	4323      	orrs	r3, r4
 8004782:	f405 5578 	and.w	r5, r5, #15872	; 0x3e00
 8004786:	431d      	orrs	r5, r3
 8004788:	6803      	ldr	r3, [r0, #0]
 800478a:	4e55      	ldr	r6, [pc, #340]	; (80048e0 <HAL_ADCEx_InjectedConfigChannel+0x3c0>)
 800478c:	6cdc      	ldr	r4, [r3, #76]	; 0x4c
 800478e:	4034      	ands	r4, r6
 8004790:	432c      	orrs	r4, r5
 8004792:	64dc      	str	r4, [r3, #76]	; 0x4c
 8004794:	6645      	str	r5, [r0, #100]	; 0x64
 8004796:	e6f5      	b.n	8004584 <HAL_ADCEx_InjectedConfigChannel+0x64>
 8004798:	e9d1 2600 	ldrd	r2, r6, [r1]
 800479c:	6e43      	ldr	r3, [r0, #100]	; 0x64
 800479e:	f3c2 6584 	ubfx	r5, r2, #26, #5
 80047a2:	f006 061f 	and.w	r6, r6, #31
 80047a6:	40b5      	lsls	r5, r6
 80047a8:	431d      	orrs	r5, r3
 80047aa:	3c01      	subs	r4, #1
 80047ac:	e9c0 5419 	strd	r5, r4, [r0, #100]	; 0x64
 80047b0:	6803      	ldr	r3, [r0, #0]
 80047b2:	2c00      	cmp	r4, #0
 80047b4:	f47f aee6 	bne.w	8004584 <HAL_ADCEx_InjectedConfigChannel+0x64>
 80047b8:	6cdc      	ldr	r4, [r3, #76]	; 0x4c
 80047ba:	4e49      	ldr	r6, [pc, #292]	; (80048e0 <HAL_ADCEx_InjectedConfigChannel+0x3c0>)
 80047bc:	4034      	ands	r4, r6
 80047be:	4325      	orrs	r5, r4
 80047c0:	64dd      	str	r5, [r3, #76]	; 0x4c
 80047c2:	e6df      	b.n	8004584 <HAL_ADCEx_InjectedConfigChannel+0x64>
 80047c4:	6acc      	ldr	r4, [r1, #44]	; 0x2c
 80047c6:	2c00      	cmp	r4, #0
 80047c8:	f43f af5d 	beq.w	8004686 <HAL_ADCEx_InjectedConfigChannel+0x166>
 80047cc:	f891 4025 	ldrb.w	r4, [r1, #37]	; 0x25
 80047d0:	2c01      	cmp	r4, #1
 80047d2:	f000 8154 	beq.w	8004a7e <HAL_ADCEx_InjectedConfigChannel+0x55e>
 80047d6:	68dc      	ldr	r4, [r3, #12]
 80047d8:	f024 7400 	bic.w	r4, r4, #33554432	; 0x2000000
 80047dc:	60dc      	str	r4, [r3, #12]
 80047de:	462c      	mov	r4, r5
 80047e0:	e75c      	b.n	800469c <HAL_ADCEx_InjectedConfigChannel+0x17c>
 80047e2:	f1bc 0f00 	cmp.w	ip, #0
 80047e6:	f040 80c7 	bne.w	8004978 <HAL_ADCEx_InjectedConfigChannel+0x458>
 80047ea:	0e92      	lsrs	r2, r2, #26
 80047ec:	1c55      	adds	r5, r2, #1
 80047ee:	f005 071f 	and.w	r7, r5, #31
 80047f2:	2f09      	cmp	r7, #9
 80047f4:	f240 80f9 	bls.w	80049ea <HAL_ADCEx_InjectedConfigChannel+0x4ca>
 80047f8:	eb07 0247 	add.w	r2, r7, r7, lsl #1
 80047fc:	06ae      	lsls	r6, r5, #26
 80047fe:	3a1e      	subs	r2, #30
 8004800:	2501      	movs	r5, #1
 8004802:	f006 46f8 	and.w	r6, r6, #2080374784	; 0x7c000000
 8004806:	fa05 f707 	lsl.w	r7, r5, r7
 800480a:	0512      	lsls	r2, r2, #20
 800480c:	433e      	orrs	r6, r7
 800480e:	f042 7200 	orr.w	r2, r2, #33554432	; 0x2000000
 8004812:	4332      	orrs	r2, r6
 8004814:	ea4f 5cd2 	mov.w	ip, r2, lsr #23
 8004818:	f00c 0c04 	and.w	ip, ip, #4
 800481c:	f103 0714 	add.w	r7, r3, #20
 8004820:	688e      	ldr	r6, [r1, #8]
 8004822:	f85c 5007 	ldr.w	r5, [ip, r7]
 8004826:	f3c2 5204 	ubfx	r2, r2, #20, #5
 800482a:	f04f 0e07 	mov.w	lr, #7
 800482e:	fa0e fe02 	lsl.w	lr, lr, r2
 8004832:	ea25 050e 	bic.w	r5, r5, lr
 8004836:	fa06 f202 	lsl.w	r2, r6, r2
 800483a:	432a      	orrs	r2, r5
 800483c:	f84c 2007 	str.w	r2, [ip, r7]
 8004840:	680a      	ldr	r2, [r1, #0]
 8004842:	e6d1      	b.n	80045e8 <HAL_ADCEx_InjectedConfigChannel+0xc8>
 8004844:	2402      	movs	r4, #2
 8004846:	4620      	mov	r0, r4
 8004848:	b002      	add	sp, #8
 800484a:	e8bd 81f0 	ldmia.w	sp!, {r4, r5, r6, r7, r8, pc}
 800484e:	0c55      	lsrs	r5, r2, #17
 8004850:	f405 5578 	and.w	r5, r5, #15872	; 0x3e00
 8004854:	e798      	b.n	8004788 <HAL_ADCEx_InjectedConfigChannel+0x268>
 8004856:	4e23      	ldr	r6, [pc, #140]	; (80048e4 <HAL_ADCEx_InjectedConfigChannel+0x3c4>)
 8004858:	42b2      	cmp	r2, r6
 800485a:	f47f aee2 	bne.w	8004622 <HAL_ADCEx_InjectedConfigChannel+0x102>
 800485e:	0249      	lsls	r1, r1, #9
 8004860:	f53f aedf 	bmi.w	8004622 <HAL_ADCEx_InjectedConfigChannel+0x102>
 8004864:	4a1b      	ldr	r2, [pc, #108]	; (80048d4 <HAL_ADCEx_InjectedConfigChannel+0x3b4>)
 8004866:	4293      	cmp	r3, r2
 8004868:	f43f aedb 	beq.w	8004622 <HAL_ADCEx_InjectedConfigChannel+0x102>
 800486c:	68ab      	ldr	r3, [r5, #8]
 800486e:	f023 73e0 	bic.w	r3, r3, #29360128	; 0x1c00000
 8004872:	431f      	orrs	r7, r3
 8004874:	f447 0780 	orr.w	r7, r7, #4194304	; 0x400000
 8004878:	60af      	str	r7, [r5, #8]
 800487a:	e6d2      	b.n	8004622 <HAL_ADCEx_InjectedConfigChannel+0x102>
 800487c:	0dd7      	lsrs	r7, r2, #23
 800487e:	f007 0704 	and.w	r7, r7, #4
 8004882:	f103 0614 	add.w	r6, r3, #20
 8004886:	f3c2 5e04 	ubfx	lr, r2, #20, #5
 800488a:	f04f 0c07 	mov.w	ip, #7
 800488e:	59ba      	ldr	r2, [r7, r6]
 8004890:	fa0c fc0e 	lsl.w	ip, ip, lr
 8004894:	ea22 020c 	bic.w	r2, r2, ip
 8004898:	51ba      	str	r2, [r7, r6]
 800489a:	695a      	ldr	r2, [r3, #20]
 800489c:	f042 4200 	orr.w	r2, r2, #2147483648	; 0x80000000
 80048a0:	615a      	str	r2, [r3, #20]
 80048a2:	e721      	b.n	80046e8 <HAL_ADCEx_InjectedConfigChannel+0x1c8>
 80048a4:	691f      	ldr	r7, [r3, #16]
 80048a6:	6b4e      	ldr	r6, [r1, #52]	; 0x34
 80048a8:	f427 7cff 	bic.w	ip, r7, #510	; 0x1fe
 80048ac:	6b8f      	ldr	r7, [r1, #56]	; 0x38
 80048ae:	433e      	orrs	r6, r7
 80048b0:	ea46 060c 	orr.w	r6, r6, ip
 80048b4:	f046 0602 	orr.w	r6, r6, #2
 80048b8:	611e      	str	r6, [r3, #16]
 80048ba:	e6f8      	b.n	80046ae <HAL_ADCEx_InjectedConfigChannel+0x18e>
 80048bc:	0007ffff 	.word	0x0007ffff
 80048c0:	80080000 	.word	0x80080000
 80048c4:	50000300 	.word	0x50000300
 80048c8:	c3210000 	.word	0xc3210000
 80048cc:	90c00010 	.word	0x90c00010
 80048d0:	c7520000 	.word	0xc7520000
 80048d4:	50000100 	.word	0x50000100
 80048d8:	20000638 	.word	0x20000638
 80048dc:	053e2d63 	.word	0x053e2d63
 80048e0:	04104000 	.word	0x04104000
 80048e4:	cb840000 	.word	0xcb840000
 80048e8:	407f0000 	.word	0x407f0000
 80048ec:	03fff000 	.word	0x03fff000
 80048f0:	680a      	ldr	r2, [r1, #0]
 80048f2:	6e1d      	ldr	r5, [r3, #96]	; 0x60
 80048f4:	6e1d      	ldr	r5, [r3, #96]	; 0x60
 80048f6:	f3c2 0612 	ubfx	r6, r2, #0, #19
 80048fa:	f3c5 6584 	ubfx	r5, r5, #26, #5
 80048fe:	2e00      	cmp	r6, #0
 8004900:	d07d      	beq.n	80049fe <HAL_ADCEx_InjectedConfigChannel+0x4de>
 8004902:	fa92 f6a2 	rbit	r6, r2
 8004906:	b126      	cbz	r6, 8004912 <HAL_ADCEx_InjectedConfigChannel+0x3f2>
 8004908:	fab6 f686 	clz	r6, r6
 800490c:	42b5      	cmp	r5, r6
 800490e:	f000 80bb 	beq.w	8004a88 <HAL_ADCEx_InjectedConfigChannel+0x568>
 8004912:	6e5d      	ldr	r5, [r3, #100]	; 0x64
 8004914:	6e5f      	ldr	r7, [r3, #100]	; 0x64
 8004916:	f103 0560 	add.w	r5, r3, #96	; 0x60
 800491a:	f3c7 6784 	ubfx	r7, r7, #26, #5
 800491e:	f103 0c64 	add.w	ip, r3, #100	; 0x64
 8004922:	fa92 f6a2 	rbit	r6, r2
 8004926:	b126      	cbz	r6, 8004932 <HAL_ADCEx_InjectedConfigChannel+0x412>
 8004928:	fab6 f686 	clz	r6, r6
 800492c:	42b7      	cmp	r7, r6
 800492e:	f000 80c0 	beq.w	8004ab2 <HAL_ADCEx_InjectedConfigChannel+0x592>
 8004932:	68ae      	ldr	r6, [r5, #8]
 8004934:	68af      	ldr	r7, [r5, #8]
 8004936:	f105 0c08 	add.w	ip, r5, #8
 800493a:	f3c7 6784 	ubfx	r7, r7, #26, #5
 800493e:	fa92 f6a2 	rbit	r6, r2
 8004942:	b126      	cbz	r6, 800494e <HAL_ADCEx_InjectedConfigChannel+0x42e>
 8004944:	fab6 f686 	clz	r6, r6
 8004948:	42b7      	cmp	r7, r6
 800494a:	f000 80c7 	beq.w	8004adc <HAL_ADCEx_InjectedConfigChannel+0x5bc>
 800494e:	68ee      	ldr	r6, [r5, #12]
 8004950:	68ef      	ldr	r7, [r5, #12]
 8004952:	350c      	adds	r5, #12
 8004954:	f3c7 6784 	ubfx	r7, r7, #26, #5
 8004958:	fa92 f6a2 	rbit	r6, r2
 800495c:	2e00      	cmp	r6, #0
 800495e:	f43f ae2b 	beq.w	80045b8 <HAL_ADCEx_InjectedConfigChannel+0x98>
 8004962:	fab6 f686 	clz	r6, r6
 8004966:	42be      	cmp	r6, r7
 8004968:	f47f ae26 	bne.w	80045b8 <HAL_ADCEx_InjectedConfigChannel+0x98>
 800496c:	682a      	ldr	r2, [r5, #0]
 800496e:	f022 4200 	bic.w	r2, r2, #2147483648	; 0x80000000
 8004972:	602a      	str	r2, [r5, #0]
 8004974:	680a      	ldr	r2, [r1, #0]
 8004976:	e61f      	b.n	80045b8 <HAL_ADCEx_InjectedConfigChannel+0x98>
 8004978:	fa92 f5a2 	rbit	r5, r2
 800497c:	2d00      	cmp	r5, #0
 800497e:	d05a      	beq.n	8004a36 <HAL_ADCEx_InjectedConfigChannel+0x516>
 8004980:	fab5 f585 	clz	r5, r5
 8004984:	3501      	adds	r5, #1
 8004986:	f005 051f 	and.w	r5, r5, #31
 800498a:	2d09      	cmp	r5, #9
 800498c:	d953      	bls.n	8004a36 <HAL_ADCEx_InjectedConfigChannel+0x516>
 800498e:	fa92 f6a2 	rbit	r6, r2
 8004992:	2e00      	cmp	r6, #0
 8004994:	f000 80c2 	beq.w	8004b1c <HAL_ADCEx_InjectedConfigChannel+0x5fc>
 8004998:	fab6 f686 	clz	r6, r6
 800499c:	3601      	adds	r6, #1
 800499e:	06b6      	lsls	r6, r6, #26
 80049a0:	f006 46f8 	and.w	r6, r6, #2080374784	; 0x7c000000
 80049a4:	fa92 f5a2 	rbit	r5, r2
 80049a8:	2d00      	cmp	r5, #0
 80049aa:	f000 80b5 	beq.w	8004b18 <HAL_ADCEx_InjectedConfigChannel+0x5f8>
 80049ae:	fab5 f585 	clz	r5, r5
 80049b2:	3501      	adds	r5, #1
 80049b4:	f005 051f 	and.w	r5, r5, #31
 80049b8:	2701      	movs	r7, #1
 80049ba:	fa07 f505 	lsl.w	r5, r7, r5
 80049be:	432e      	orrs	r6, r5
 80049c0:	fa92 f2a2 	rbit	r2, r2
 80049c4:	2a00      	cmp	r2, #0
 80049c6:	f000 80a5 	beq.w	8004b14 <HAL_ADCEx_InjectedConfigChannel+0x5f4>
 80049ca:	fab2 f582 	clz	r5, r2
 80049ce:	3501      	adds	r5, #1
 80049d0:	f005 051f 	and.w	r5, r5, #31
 80049d4:	eb05 0545 	add.w	r5, r5, r5, lsl #1
 80049d8:	f1a5 021e 	sub.w	r2, r5, #30
 80049dc:	0512      	lsls	r2, r2, #20
 80049de:	f042 7200 	orr.w	r2, r2, #33554432	; 0x2000000
 80049e2:	e716      	b.n	8004812 <HAL_ADCEx_InjectedConfigChannel+0x2f2>
 80049e4:	3b01      	subs	r3, #1
 80049e6:	461c      	mov	r4, r3
 80049e8:	e5ba      	b.n	8004560 <HAL_ADCEx_InjectedConfigChannel+0x40>
 80049ea:	06ae      	lsls	r6, r5, #26
 80049ec:	2501      	movs	r5, #1
 80049ee:	f006 46f8 	and.w	r6, r6, #2080374784	; 0x7c000000
 80049f2:	40bd      	lsls	r5, r7
 80049f4:	eb07 0247 	add.w	r2, r7, r7, lsl #1
 80049f8:	432e      	orrs	r6, r5
 80049fa:	0512      	lsls	r2, r2, #20
 80049fc:	e709      	b.n	8004812 <HAL_ADCEx_InjectedConfigChannel+0x2f2>
 80049fe:	f3c2 6684 	ubfx	r6, r2, #26, #5
 8004a02:	42b5      	cmp	r5, r6
 8004a04:	d040      	beq.n	8004a88 <HAL_ADCEx_InjectedConfigChannel+0x568>
 8004a06:	6e5d      	ldr	r5, [r3, #100]	; 0x64
 8004a08:	6e5f      	ldr	r7, [r3, #100]	; 0x64
 8004a0a:	f103 0560 	add.w	r5, r3, #96	; 0x60
 8004a0e:	f3c7 6784 	ubfx	r7, r7, #26, #5
 8004a12:	f103 0c64 	add.w	ip, r3, #100	; 0x64
 8004a16:	42b7      	cmp	r7, r6
 8004a18:	d04b      	beq.n	8004ab2 <HAL_ADCEx_InjectedConfigChannel+0x592>
 8004a1a:	68af      	ldr	r7, [r5, #8]
 8004a1c:	68af      	ldr	r7, [r5, #8]
 8004a1e:	f105 0c08 	add.w	ip, r5, #8
 8004a22:	f3c7 6784 	ubfx	r7, r7, #26, #5
 8004a26:	42b7      	cmp	r7, r6
 8004a28:	d058      	beq.n	8004adc <HAL_ADCEx_InjectedConfigChannel+0x5bc>
 8004a2a:	68ef      	ldr	r7, [r5, #12]
 8004a2c:	68ef      	ldr	r7, [r5, #12]
 8004a2e:	350c      	adds	r5, #12
 8004a30:	f3c7 6784 	ubfx	r7, r7, #26, #5
 8004a34:	e797      	b.n	8004966 <HAL_ADCEx_InjectedConfigChannel+0x446>
 8004a36:	fa92 f6a2 	rbit	r6, r2
 8004a3a:	2e00      	cmp	r6, #0
 8004a3c:	d064      	beq.n	8004b08 <HAL_ADCEx_InjectedConfigChannel+0x5e8>
 8004a3e:	fab6 f686 	clz	r6, r6
 8004a42:	3601      	adds	r6, #1
 8004a44:	06b6      	lsls	r6, r6, #26
 8004a46:	f006 46f8 	and.w	r6, r6, #2080374784	; 0x7c000000
 8004a4a:	fa92 f5a2 	rbit	r5, r2
 8004a4e:	2d00      	cmp	r5, #0
 8004a50:	d058      	beq.n	8004b04 <HAL_ADCEx_InjectedConfigChannel+0x5e4>
 8004a52:	fab5 f585 	clz	r5, r5
 8004a56:	3501      	adds	r5, #1
 8004a58:	f005 051f 	and.w	r5, r5, #31
 8004a5c:	2701      	movs	r7, #1
 8004a5e:	fa07 f505 	lsl.w	r5, r7, r5
 8004a62:	432e      	orrs	r6, r5
 8004a64:	fa92 f2a2 	rbit	r2, r2
 8004a68:	2a00      	cmp	r2, #0
 8004a6a:	d050      	beq.n	8004b0e <HAL_ADCEx_InjectedConfigChannel+0x5ee>
 8004a6c:	fab2 f582 	clz	r5, r2
 8004a70:	3501      	adds	r5, #1
 8004a72:	f005 051f 	and.w	r5, r5, #31
 8004a76:	eb05 0545 	add.w	r5, r5, r5, lsl #1
 8004a7a:	052a      	lsls	r2, r5, #20
 8004a7c:	e6c9      	b.n	8004812 <HAL_ADCEx_InjectedConfigChannel+0x2f2>
 8004a7e:	6dc6      	ldr	r6, [r0, #92]	; 0x5c
 8004a80:	f046 0620 	orr.w	r6, r6, #32
 8004a84:	65c6      	str	r6, [r0, #92]	; 0x5c
 8004a86:	e609      	b.n	800469c <HAL_ADCEx_InjectedConfigChannel+0x17c>
 8004a88:	6e1a      	ldr	r2, [r3, #96]	; 0x60
 8004a8a:	461d      	mov	r5, r3
 8004a8c:	f022 4200 	bic.w	r2, r2, #2147483648	; 0x80000000
 8004a90:	f845 2f60 	str.w	r2, [r5, #96]!
 8004a94:	680a      	ldr	r2, [r1, #0]
 8004a96:	6e5e      	ldr	r6, [r3, #100]	; 0x64
 8004a98:	6e5f      	ldr	r7, [r3, #100]	; 0x64
 8004a9a:	f3c2 0612 	ubfx	r6, r2, #0, #19
 8004a9e:	f3c7 6784 	ubfx	r7, r7, #26, #5
 8004aa2:	f103 0c64 	add.w	ip, r3, #100	; 0x64
 8004aa6:	2e00      	cmp	r6, #0
 8004aa8:	f47f af3b 	bne.w	8004922 <HAL_ADCEx_InjectedConfigChannel+0x402>
 8004aac:	f3c2 6684 	ubfx	r6, r2, #26, #5
 8004ab0:	e7b1      	b.n	8004a16 <HAL_ADCEx_InjectedConfigChannel+0x4f6>
 8004ab2:	f8dc 2000 	ldr.w	r2, [ip]
 8004ab6:	f022 4200 	bic.w	r2, r2, #2147483648	; 0x80000000
 8004aba:	f8cc 2000 	str.w	r2, [ip]
 8004abe:	680a      	ldr	r2, [r1, #0]
 8004ac0:	68ae      	ldr	r6, [r5, #8]
 8004ac2:	68af      	ldr	r7, [r5, #8]
 8004ac4:	f3c2 0612 	ubfx	r6, r2, #0, #19
 8004ac8:	f3c7 6784 	ubfx	r7, r7, #26, #5
 8004acc:	f105 0c08 	add.w	ip, r5, #8
 8004ad0:	2e00      	cmp	r6, #0
 8004ad2:	f47f af34 	bne.w	800493e <HAL_ADCEx_InjectedConfigChannel+0x41e>
 8004ad6:	f3c2 6684 	ubfx	r6, r2, #26, #5
 8004ada:	e7a4      	b.n	8004a26 <HAL_ADCEx_InjectedConfigChannel+0x506>
 8004adc:	f8dc 2000 	ldr.w	r2, [ip]
 8004ae0:	f022 4200 	bic.w	r2, r2, #2147483648	; 0x80000000
 8004ae4:	f8cc 2000 	str.w	r2, [ip]
 8004ae8:	680a      	ldr	r2, [r1, #0]
 8004aea:	68ee      	ldr	r6, [r5, #12]
 8004aec:	68ef      	ldr	r7, [r5, #12]
 8004aee:	f3c2 0612 	ubfx	r6, r2, #0, #19
 8004af2:	f3c7 6784 	ubfx	r7, r7, #26, #5
 8004af6:	350c      	adds	r5, #12
 8004af8:	2e00      	cmp	r6, #0
 8004afa:	f47f af2d 	bne.w	8004958 <HAL_ADCEx_InjectedConfigChannel+0x438>
 8004afe:	f3c2 6684 	ubfx	r6, r2, #26, #5
 8004b02:	e730      	b.n	8004966 <HAL_ADCEx_InjectedConfigChannel+0x446>
 8004b04:	2502      	movs	r5, #2
 8004b06:	e7ac      	b.n	8004a62 <HAL_ADCEx_InjectedConfigChannel+0x542>
 8004b08:	f04f 6680 	mov.w	r6, #67108864	; 0x4000000
 8004b0c:	e79d      	b.n	8004a4a <HAL_ADCEx_InjectedConfigChannel+0x52a>
 8004b0e:	f44f 1240 	mov.w	r2, #3145728	; 0x300000
 8004b12:	e67e      	b.n	8004812 <HAL_ADCEx_InjectedConfigChannel+0x2f2>
 8004b14:	4a03      	ldr	r2, [pc, #12]	; (8004b24 <HAL_ADCEx_InjectedConfigChannel+0x604>)
 8004b16:	e67c      	b.n	8004812 <HAL_ADCEx_InjectedConfigChannel+0x2f2>
 8004b18:	2502      	movs	r5, #2
 8004b1a:	e750      	b.n	80049be <HAL_ADCEx_InjectedConfigChannel+0x49e>
 8004b1c:	f04f 6680 	mov.w	r6, #67108864	; 0x4000000
 8004b20:	e740      	b.n	80049a4 <HAL_ADCEx_InjectedConfigChannel+0x484>
 8004b22:	bf00      	nop
 8004b24:	fe500000 	.word	0xfe500000

08004b28 <HAL_ADCEx_MultiModeConfigChannel>:
 8004b28:	b4f0      	push	{r4, r5, r6, r7}
 8004b2a:	f890 2058 	ldrb.w	r2, [r0, #88]	; 0x58
 8004b2e:	680d      	ldr	r5, [r1, #0]
 8004b30:	2a01      	cmp	r2, #1
 8004b32:	b09c      	sub	sp, #112	; 0x70
 8004b34:	d04f      	beq.n	8004bd6 <HAL_ADCEx_MultiModeConfigChannel+0xae>
 8004b36:	6804      	ldr	r4, [r0, #0]
 8004b38:	4603      	mov	r3, r0
 8004b3a:	2200      	movs	r2, #0
 8004b3c:	2001      	movs	r0, #1
 8004b3e:	f1b4 4fa0 	cmp.w	r4, #1342177280	; 0x50000000
 8004b42:	9218      	str	r2, [sp, #96]	; 0x60
 8004b44:	f883 0058 	strb.w	r0, [r3, #88]	; 0x58
 8004b48:	9219      	str	r2, [sp, #100]	; 0x64
 8004b4a:	d008      	beq.n	8004b5e <HAL_ADCEx_MultiModeConfigChannel+0x36>
 8004b4c:	6dd9      	ldr	r1, [r3, #92]	; 0x5c
 8004b4e:	f883 2058 	strb.w	r2, [r3, #88]	; 0x58
 8004b52:	f041 0120 	orr.w	r1, r1, #32
 8004b56:	65d9      	str	r1, [r3, #92]	; 0x5c
 8004b58:	b01c      	add	sp, #112	; 0x70
 8004b5a:	bcf0      	pop	{r4, r5, r6, r7}
 8004b5c:	4770      	bx	lr
 8004b5e:	4a23      	ldr	r2, [pc, #140]	; (8004bec <HAL_ADCEx_MultiModeConfigChannel+0xc4>)
 8004b60:	6890      	ldr	r0, [r2, #8]
 8004b62:	0740      	lsls	r0, r0, #29
 8004b64:	d50b      	bpl.n	8004b7e <HAL_ADCEx_MultiModeConfigChannel+0x56>
 8004b66:	68a2      	ldr	r2, [r4, #8]
 8004b68:	6dda      	ldr	r2, [r3, #92]	; 0x5c
 8004b6a:	f042 0220 	orr.w	r2, r2, #32
 8004b6e:	65da      	str	r2, [r3, #92]	; 0x5c
 8004b70:	2001      	movs	r0, #1
 8004b72:	2200      	movs	r2, #0
 8004b74:	f883 2058 	strb.w	r2, [r3, #88]	; 0x58
 8004b78:	b01c      	add	sp, #112	; 0x70
 8004b7a:	bcf0      	pop	{r4, r5, r6, r7}
 8004b7c:	4770      	bx	lr
 8004b7e:	68a0      	ldr	r0, [r4, #8]
 8004b80:	0746      	lsls	r6, r0, #29
 8004b82:	d4f1      	bmi.n	8004b68 <HAL_ADCEx_MultiModeConfigChannel+0x40>
 8004b84:	b1d5      	cbz	r5, 8004bbc <HAL_ADCEx_MultiModeConfigChannel+0x94>
 8004b86:	4e1a      	ldr	r6, [pc, #104]	; (8004bf0 <HAL_ADCEx_MultiModeConfigChannel+0xc8>)
 8004b88:	684f      	ldr	r7, [r1, #4]
 8004b8a:	68b0      	ldr	r0, [r6, #8]
 8004b8c:	f893 c038 	ldrb.w	ip, [r3, #56]	; 0x38
 8004b90:	f420 4060 	bic.w	r0, r0, #57344	; 0xe000
 8004b94:	4338      	orrs	r0, r7
 8004b96:	ea40 304c 	orr.w	r0, r0, ip, lsl #13
 8004b9a:	60b0      	str	r0, [r6, #8]
 8004b9c:	68a4      	ldr	r4, [r4, #8]
 8004b9e:	6890      	ldr	r0, [r2, #8]
 8004ba0:	4320      	orrs	r0, r4
 8004ba2:	f010 0001 	ands.w	r0, r0, #1
 8004ba6:	d114      	bne.n	8004bd2 <HAL_ADCEx_MultiModeConfigChannel+0xaa>
 8004ba8:	68b4      	ldr	r4, [r6, #8]
 8004baa:	688a      	ldr	r2, [r1, #8]
 8004bac:	f424 6171 	bic.w	r1, r4, #3856	; 0xf10
 8004bb0:	4315      	orrs	r5, r2
 8004bb2:	f021 010f 	bic.w	r1, r1, #15
 8004bb6:	430d      	orrs	r5, r1
 8004bb8:	60b5      	str	r5, [r6, #8]
 8004bba:	e7da      	b.n	8004b72 <HAL_ADCEx_MultiModeConfigChannel+0x4a>
 8004bbc:	4d0c      	ldr	r5, [pc, #48]	; (8004bf0 <HAL_ADCEx_MultiModeConfigChannel+0xc8>)
 8004bbe:	68a9      	ldr	r1, [r5, #8]
 8004bc0:	f421 4160 	bic.w	r1, r1, #57344	; 0xe000
 8004bc4:	60a9      	str	r1, [r5, #8]
 8004bc6:	68a1      	ldr	r1, [r4, #8]
 8004bc8:	6890      	ldr	r0, [r2, #8]
 8004bca:	4308      	orrs	r0, r1
 8004bcc:	f010 0001 	ands.w	r0, r0, #1
 8004bd0:	d005      	beq.n	8004bde <HAL_ADCEx_MultiModeConfigChannel+0xb6>
 8004bd2:	2000      	movs	r0, #0
 8004bd4:	e7cd      	b.n	8004b72 <HAL_ADCEx_MultiModeConfigChannel+0x4a>
 8004bd6:	2002      	movs	r0, #2
 8004bd8:	b01c      	add	sp, #112	; 0x70
 8004bda:	bcf0      	pop	{r4, r5, r6, r7}
 8004bdc:	4770      	bx	lr
 8004bde:	68aa      	ldr	r2, [r5, #8]
 8004be0:	f422 6271 	bic.w	r2, r2, #3856	; 0xf10
 8004be4:	f022 020f 	bic.w	r2, r2, #15
 8004be8:	60aa      	str	r2, [r5, #8]
 8004bea:	e7c2      	b.n	8004b72 <HAL_ADCEx_MultiModeConfigChannel+0x4a>
 8004bec:	50000100 	.word	0x50000100
 8004bf0:	50000300 	.word	0x50000300

08004bf4 <HAL_COMP_Init>:
 8004bf4:	b5f0      	push	{r4, r5, r6, r7, lr}
 8004bf6:	b083      	sub	sp, #12
 8004bf8:	2300      	movs	r3, #0
 8004bfa:	9301      	str	r3, [sp, #4]
 8004bfc:	2800      	cmp	r0, #0
 8004bfe:	d054      	beq.n	8004caa <HAL_COMP_Init+0xb6>
 8004c00:	6802      	ldr	r2, [r0, #0]
 8004c02:	6813      	ldr	r3, [r2, #0]
 8004c04:	2b00      	cmp	r3, #0
 8004c06:	4604      	mov	r4, r0
 8004c08:	db4f      	blt.n	8004caa <HAL_COMP_Init+0xb6>
 8004c0a:	7f43      	ldrb	r3, [r0, #29]
 8004c0c:	f003 01ff 	and.w	r1, r3, #255	; 0xff
 8004c10:	2b00      	cmp	r3, #0
 8004c12:	d077      	beq.n	8004d04 <HAL_COMP_Init+0x110>
 8004c14:	e9d4 6301 	ldrd	r6, r3, [r4, #4]
 8004c18:	e9d4 5003 	ldrd	r5, r0, [r4, #12]
 8004c1c:	6961      	ldr	r1, [r4, #20]
 8004c1e:	6817      	ldr	r7, [r2, #0]
 8004c20:	4333      	orrs	r3, r6
 8004c22:	430b      	orrs	r3, r1
 8004c24:	6816      	ldr	r6, [r2, #0]
 8004c26:	493f      	ldr	r1, [pc, #252]	; (8004d24 <HAL_COMP_Init+0x130>)
 8004c28:	432b      	orrs	r3, r5
 8004c2a:	4303      	orrs	r3, r0
 8004c2c:	4031      	ands	r1, r6
 8004c2e:	430b      	orrs	r3, r1
 8004c30:	6013      	str	r3, [r2, #0]
 8004c32:	6813      	ldr	r3, [r2, #0]
 8004c34:	0218      	lsls	r0, r3, #8
 8004c36:	d501      	bpl.n	8004c3c <HAL_COMP_Init+0x48>
 8004c38:	023b      	lsls	r3, r7, #8
 8004c3a:	d54e      	bpl.n	8004cda <HAL_COMP_Init+0xe6>
 8004c3c:	4b3a      	ldr	r3, [pc, #232]	; (8004d28 <HAL_COMP_Init+0x134>)
 8004c3e:	429a      	cmp	r2, r3
 8004c40:	d066      	beq.n	8004d10 <HAL_COMP_Init+0x11c>
 8004c42:	4b3a      	ldr	r3, [pc, #232]	; (8004d2c <HAL_COMP_Init+0x138>)
 8004c44:	429a      	cmp	r2, r3
 8004c46:	d068      	beq.n	8004d1a <HAL_COMP_Init+0x126>
 8004c48:	3304      	adds	r3, #4
 8004c4a:	429a      	cmp	r2, r3
 8004c4c:	bf0b      	itete	eq
 8004c4e:	f06f 5200 	mvneq.w	r2, #536870912	; 0x20000000
 8004c52:	f06f 4280 	mvnne.w	r2, #1073741824	; 0x40000000
 8004c56:	f04f 5100 	moveq.w	r1, #536870912	; 0x20000000
 8004c5a:	f04f 4180 	movne.w	r1, #1073741824	; 0x40000000
 8004c5e:	69a3      	ldr	r3, [r4, #24]
 8004c60:	079f      	lsls	r7, r3, #30
 8004c62:	d025      	beq.n	8004cb0 <HAL_COMP_Init+0xbc>
 8004c64:	4d32      	ldr	r5, [pc, #200]	; (8004d30 <HAL_COMP_Init+0x13c>)
 8004c66:	68a8      	ldr	r0, [r5, #8]
 8004c68:	06de      	lsls	r6, r3, #27
 8004c6a:	bf4c      	ite	mi
 8004c6c:	4308      	orrmi	r0, r1
 8004c6e:	4010      	andpl	r0, r2
 8004c70:	60a8      	str	r0, [r5, #8]
 8004c72:	4d2f      	ldr	r5, [pc, #188]	; (8004d30 <HAL_COMP_Init+0x13c>)
 8004c74:	68e8      	ldr	r0, [r5, #12]
 8004c76:	069f      	lsls	r7, r3, #26
 8004c78:	bf4c      	ite	mi
 8004c7a:	4308      	orrmi	r0, r1
 8004c7c:	4010      	andpl	r0, r2
 8004c7e:	60e8      	str	r0, [r5, #12]
 8004c80:	482b      	ldr	r0, [pc, #172]	; (8004d30 <HAL_COMP_Init+0x13c>)
 8004c82:	6141      	str	r1, [r0, #20]
 8004c84:	6845      	ldr	r5, [r0, #4]
 8004c86:	079e      	lsls	r6, r3, #30
 8004c88:	bf4c      	ite	mi
 8004c8a:	430d      	orrmi	r5, r1
 8004c8c:	4015      	andpl	r5, r2
 8004c8e:	07db      	lsls	r3, r3, #31
 8004c90:	6045      	str	r5, [r0, #4]
 8004c92:	d51d      	bpl.n	8004cd0 <HAL_COMP_Init+0xdc>
 8004c94:	4b26      	ldr	r3, [pc, #152]	; (8004d30 <HAL_COMP_Init+0x13c>)
 8004c96:	681a      	ldr	r2, [r3, #0]
 8004c98:	4311      	orrs	r1, r2
 8004c9a:	6019      	str	r1, [r3, #0]
 8004c9c:	7f63      	ldrb	r3, [r4, #29]
 8004c9e:	f003 00ff 	and.w	r0, r3, #255	; 0xff
 8004ca2:	b18b      	cbz	r3, 8004cc8 <HAL_COMP_Init+0xd4>
 8004ca4:	2000      	movs	r0, #0
 8004ca6:	b003      	add	sp, #12
 8004ca8:	bdf0      	pop	{r4, r5, r6, r7, pc}
 8004caa:	2001      	movs	r0, #1
 8004cac:	b003      	add	sp, #12
 8004cae:	bdf0      	pop	{r4, r5, r6, r7, pc}
 8004cb0:	4b1f      	ldr	r3, [pc, #124]	; (8004d30 <HAL_COMP_Init+0x13c>)
 8004cb2:	6859      	ldr	r1, [r3, #4]
 8004cb4:	4011      	ands	r1, r2
 8004cb6:	6059      	str	r1, [r3, #4]
 8004cb8:	6819      	ldr	r1, [r3, #0]
 8004cba:	400a      	ands	r2, r1
 8004cbc:	601a      	str	r2, [r3, #0]
 8004cbe:	7f63      	ldrb	r3, [r4, #29]
 8004cc0:	f003 00ff 	and.w	r0, r3, #255	; 0xff
 8004cc4:	2b00      	cmp	r3, #0
 8004cc6:	d1ed      	bne.n	8004ca4 <HAL_COMP_Init+0xb0>
 8004cc8:	2301      	movs	r3, #1
 8004cca:	7763      	strb	r3, [r4, #29]
 8004ccc:	b003      	add	sp, #12
 8004cce:	bdf0      	pop	{r4, r5, r6, r7, pc}
 8004cd0:	4917      	ldr	r1, [pc, #92]	; (8004d30 <HAL_COMP_Init+0x13c>)
 8004cd2:	680b      	ldr	r3, [r1, #0]
 8004cd4:	401a      	ands	r2, r3
 8004cd6:	600a      	str	r2, [r1, #0]
 8004cd8:	e7f1      	b.n	8004cbe <HAL_COMP_Init+0xca>
 8004cda:	4b16      	ldr	r3, [pc, #88]	; (8004d34 <HAL_COMP_Init+0x140>)
 8004cdc:	4916      	ldr	r1, [pc, #88]	; (8004d38 <HAL_COMP_Init+0x144>)
 8004cde:	681b      	ldr	r3, [r3, #0]
 8004ce0:	099b      	lsrs	r3, r3, #6
 8004ce2:	fba1 1303 	umull	r1, r3, r1, r3
 8004ce6:	099b      	lsrs	r3, r3, #6
 8004ce8:	eb03 0383 	add.w	r3, r3, r3, lsl #2
 8004cec:	009b      	lsls	r3, r3, #2
 8004cee:	9301      	str	r3, [sp, #4]
 8004cf0:	9b01      	ldr	r3, [sp, #4]
 8004cf2:	2b00      	cmp	r3, #0
 8004cf4:	d0a2      	beq.n	8004c3c <HAL_COMP_Init+0x48>
 8004cf6:	9b01      	ldr	r3, [sp, #4]
 8004cf8:	3b01      	subs	r3, #1
 8004cfa:	9301      	str	r3, [sp, #4]
 8004cfc:	9b01      	ldr	r3, [sp, #4]
 8004cfe:	2b00      	cmp	r3, #0
 8004d00:	d1f9      	bne.n	8004cf6 <HAL_COMP_Init+0x102>
 8004d02:	e79b      	b.n	8004c3c <HAL_COMP_Init+0x48>
 8004d04:	7701      	strb	r1, [r0, #28]
 8004d06:	6201      	str	r1, [r0, #32]
 8004d08:	f7fe fca2 	bl	8003650 <HAL_COMP_MspInit>
 8004d0c:	6822      	ldr	r2, [r4, #0]
 8004d0e:	e781      	b.n	8004c14 <HAL_COMP_Init+0x20>
 8004d10:	f46f 1200 	mvn.w	r2, #2097152	; 0x200000
 8004d14:	f44f 1100 	mov.w	r1, #2097152	; 0x200000
 8004d18:	e7a1      	b.n	8004c5e <HAL_COMP_Init+0x6a>
 8004d1a:	f46f 0280 	mvn.w	r2, #4194304	; 0x400000
 8004d1e:	f44f 0180 	mov.w	r1, #4194304	; 0x400000
 8004d22:	e79c      	b.n	8004c5e <HAL_COMP_Init+0x6a>
 8004d24:	ff007e0f 	.word	0xff007e0f
 8004d28:	40010200 	.word	0x40010200
 8004d2c:	40010204 	.word	0x40010204
 8004d30:	40010400 	.word	0x40010400
 8004d34:	20000638 	.word	0x20000638
 8004d38:	053e2d63 	.word	0x053e2d63

08004d3c <HAL_CORDIC_Init>:
 8004d3c:	b1b0      	cbz	r0, 8004d6c <HAL_CORDIC_Init+0x30>
 8004d3e:	b510      	push	{r4, lr}
 8004d40:	f890 3021 	ldrb.w	r3, [r0, #33]	; 0x21
 8004d44:	4604      	mov	r4, r0
 8004d46:	f003 02ff 	and.w	r2, r3, #255	; 0xff
 8004d4a:	b153      	cbz	r3, 8004d62 <HAL_CORDIC_Init+0x26>
 8004d4c:	2000      	movs	r0, #0
 8004d4e:	2301      	movs	r3, #1
 8004d50:	6260      	str	r0, [r4, #36]	; 0x24
 8004d52:	f884 3021 	strb.w	r3, [r4, #33]	; 0x21
 8004d56:	e9c4 0001 	strd	r0, r0, [r4, #4]
 8004d5a:	e9c4 0003 	strd	r0, r0, [r4, #12]
 8004d5e:	6160      	str	r0, [r4, #20]
 8004d60:	bd10      	pop	{r4, pc}
 8004d62:	f880 2020 	strb.w	r2, [r0, #32]
 8004d66:	f7fe fcd3 	bl	8003710 <HAL_CORDIC_MspInit>
 8004d6a:	e7ef      	b.n	8004d4c <HAL_CORDIC_Init+0x10>
 8004d6c:	2001      	movs	r0, #1
 8004d6e:	4770      	bx	lr

08004d70 <HAL_NVIC_SetPriorityGrouping>:
 8004d70:	4908      	ldr	r1, [pc, #32]	; (8004d94 <HAL_NVIC_SetPriorityGrouping+0x24>)
 8004d72:	68ca      	ldr	r2, [r1, #12]
 8004d74:	b410      	push	{r4}
 8004d76:	0200      	lsls	r0, r0, #8
 8004d78:	f64f 04ff 	movw	r4, #63743	; 0xf8ff
 8004d7c:	4022      	ands	r2, r4
 8004d7e:	f400 63e0 	and.w	r3, r0, #1792	; 0x700
 8004d82:	4313      	orrs	r3, r2
 8004d84:	f043 63bf 	orr.w	r3, r3, #100139008	; 0x5f80000
 8004d88:	f443 3300 	orr.w	r3, r3, #131072	; 0x20000
 8004d8c:	f85d 4b04 	ldr.w	r4, [sp], #4
 8004d90:	60cb      	str	r3, [r1, #12]
 8004d92:	4770      	bx	lr
 8004d94:	e000ed00 	.word	0xe000ed00

08004d98 <HAL_NVIC_SetPriority>:
 8004d98:	4b19      	ldr	r3, [pc, #100]	; (8004e00 <HAL_NVIC_SetPriority+0x68>)
 8004d9a:	68db      	ldr	r3, [r3, #12]
 8004d9c:	f3c3 2302 	ubfx	r3, r3, #8, #3
 8004da0:	b430      	push	{r4, r5}
 8004da2:	f1c3 0507 	rsb	r5, r3, #7
 8004da6:	2d04      	cmp	r5, #4
 8004da8:	f103 0404 	add.w	r4, r3, #4
 8004dac:	bf28      	it	cs
 8004dae:	2504      	movcs	r5, #4
 8004db0:	2c06      	cmp	r4, #6
 8004db2:	d919      	bls.n	8004de8 <HAL_NVIC_SetPriority+0x50>
 8004db4:	3b03      	subs	r3, #3
 8004db6:	f04f 34ff 	mov.w	r4, #4294967295
 8004dba:	409c      	lsls	r4, r3
 8004dbc:	ea22 0204 	bic.w	r2, r2, r4
 8004dc0:	f04f 34ff 	mov.w	r4, #4294967295
 8004dc4:	40ac      	lsls	r4, r5
 8004dc6:	ea21 0104 	bic.w	r1, r1, r4
 8004dca:	4099      	lsls	r1, r3
 8004dcc:	2800      	cmp	r0, #0
 8004dce:	ea41 0102 	orr.w	r1, r1, r2
 8004dd2:	db0c      	blt.n	8004dee <HAL_NVIC_SetPriority+0x56>
 8004dd4:	f100 4060 	add.w	r0, r0, #3758096384	; 0xe0000000
 8004dd8:	f500 4061 	add.w	r0, r0, #57600	; 0xe100
 8004ddc:	0109      	lsls	r1, r1, #4
 8004dde:	b2c9      	uxtb	r1, r1
 8004de0:	f880 1300 	strb.w	r1, [r0, #768]	; 0x300
 8004de4:	bc30      	pop	{r4, r5}
 8004de6:	4770      	bx	lr
 8004de8:	2200      	movs	r2, #0
 8004dea:	4613      	mov	r3, r2
 8004dec:	e7e8      	b.n	8004dc0 <HAL_NVIC_SetPriority+0x28>
 8004dee:	4b05      	ldr	r3, [pc, #20]	; (8004e04 <HAL_NVIC_SetPriority+0x6c>)
 8004df0:	f000 000f 	and.w	r0, r0, #15
 8004df4:	0109      	lsls	r1, r1, #4
 8004df6:	4403      	add	r3, r0
 8004df8:	b2c9      	uxtb	r1, r1
 8004dfa:	7619      	strb	r1, [r3, #24]
 8004dfc:	bc30      	pop	{r4, r5}
 8004dfe:	4770      	bx	lr
 8004e00:	e000ed00 	.word	0xe000ed00
 8004e04:	e000ecfc 	.word	0xe000ecfc

08004e08 <HAL_NVIC_EnableIRQ>:
 8004e08:	2800      	cmp	r0, #0
 8004e0a:	db07      	blt.n	8004e1c <HAL_NVIC_EnableIRQ+0x14>
 8004e0c:	4a04      	ldr	r2, [pc, #16]	; (8004e20 <HAL_NVIC_EnableIRQ+0x18>)
 8004e0e:	f000 011f 	and.w	r1, r0, #31
 8004e12:	2301      	movs	r3, #1
 8004e14:	0940      	lsrs	r0, r0, #5
 8004e16:	408b      	lsls	r3, r1
 8004e18:	f842 3020 	str.w	r3, [r2, r0, lsl #2]
 8004e1c:	4770      	bx	lr
 8004e1e:	bf00      	nop
 8004e20:	e000e100 	.word	0xe000e100

08004e24 <HAL_SYSTICK_Config>:
 8004e24:	3801      	subs	r0, #1
 8004e26:	f1b0 7f80 	cmp.w	r0, #16777216	; 0x1000000
 8004e2a:	d20e      	bcs.n	8004e4a <HAL_SYSTICK_Config+0x26>
 8004e2c:	4b08      	ldr	r3, [pc, #32]	; (8004e50 <HAL_SYSTICK_Config+0x2c>)
 8004e2e:	b410      	push	{r4}
 8004e30:	4c08      	ldr	r4, [pc, #32]	; (8004e54 <HAL_SYSTICK_Config+0x30>)
 8004e32:	6058      	str	r0, [r3, #4]
 8004e34:	20f0      	movs	r0, #240	; 0xf0
 8004e36:	f884 0023 	strb.w	r0, [r4, #35]	; 0x23
 8004e3a:	2200      	movs	r2, #0
 8004e3c:	2107      	movs	r1, #7
 8004e3e:	4610      	mov	r0, r2
 8004e40:	609a      	str	r2, [r3, #8]
 8004e42:	f85d 4b04 	ldr.w	r4, [sp], #4
 8004e46:	6019      	str	r1, [r3, #0]
 8004e48:	4770      	bx	lr
 8004e4a:	2001      	movs	r0, #1
 8004e4c:	4770      	bx	lr
 8004e4e:	bf00      	nop
 8004e50:	e000e010 	.word	0xe000e010
 8004e54:	e000ed00 	.word	0xe000ed00

08004e58 <HAL_SYSTICK_Callback>:
 8004e58:	4770      	bx	lr
 8004e5a:	bf00      	nop

08004e5c <HAL_SYSTICK_IRQHandler>:
 8004e5c:	b508      	push	{r3, lr}
 8004e5e:	f7ff fffb 	bl	8004e58 <HAL_SYSTICK_Callback>
 8004e62:	bd08      	pop	{r3, pc}

08004e64 <HAL_DAC_Init>:
 8004e64:	b188      	cbz	r0, 8004e8a <HAL_DAC_Init+0x26>
 8004e66:	b510      	push	{r4, lr}
 8004e68:	7903      	ldrb	r3, [r0, #4]
 8004e6a:	4604      	mov	r4, r0
 8004e6c:	f003 02ff 	and.w	r2, r3, #255	; 0xff
 8004e70:	b13b      	cbz	r3, 8004e82 <HAL_DAC_Init+0x1e>
 8004e72:	2300      	movs	r3, #0
 8004e74:	2102      	movs	r1, #2
 8004e76:	2201      	movs	r2, #1
 8004e78:	7121      	strb	r1, [r4, #4]
 8004e7a:	6123      	str	r3, [r4, #16]
 8004e7c:	7122      	strb	r2, [r4, #4]
 8004e7e:	4618      	mov	r0, r3
 8004e80:	bd10      	pop	{r4, pc}
 8004e82:	7142      	strb	r2, [r0, #5]
 8004e84:	f7fe fc5c 	bl	8003740 <HAL_DAC_MspInit>
 8004e88:	e7f3      	b.n	8004e72 <HAL_DAC_Init+0xe>
 8004e8a:	2001      	movs	r0, #1
 8004e8c:	4770      	bx	lr
 8004e8e:	bf00      	nop

08004e90 <HAL_DAC_ConfigChannel>:
 8004e90:	e92d 41f0 	stmdb	sp!, {r4, r5, r6, r7, r8, lr}
 8004e94:	7943      	ldrb	r3, [r0, #5]
 8004e96:	688f      	ldr	r7, [r1, #8]
 8004e98:	2b01      	cmp	r3, #1
 8004e9a:	f000 80c5 	beq.w	8005028 <HAL_DAC_ConfigChannel+0x198>
 8004e9e:	4614      	mov	r4, r2
 8004ea0:	2302      	movs	r3, #2
 8004ea2:	2201      	movs	r2, #1
 8004ea4:	2f04      	cmp	r7, #4
 8004ea6:	4606      	mov	r6, r0
 8004ea8:	460d      	mov	r5, r1
 8004eaa:	7142      	strb	r2, [r0, #5]
 8004eac:	7103      	strb	r3, [r0, #4]
 8004eae:	d077      	beq.n	8004fa0 <HAL_DAC_ConfigChannel+0x110>
 8004eb0:	6803      	ldr	r3, [r0, #0]
 8004eb2:	f004 0410 	and.w	r4, r4, #16
 8004eb6:	69ea      	ldr	r2, [r5, #28]
 8004eb8:	2a01      	cmp	r2, #1
 8004eba:	d108      	bne.n	8004ece <HAL_DAC_ConfigChannel+0x3e>
 8004ebc:	6b99      	ldr	r1, [r3, #56]	; 0x38
 8004ebe:	6a2a      	ldr	r2, [r5, #32]
 8004ec0:	201f      	movs	r0, #31
 8004ec2:	40a0      	lsls	r0, r4
 8004ec4:	ea21 0100 	bic.w	r1, r1, r0
 8004ec8:	40a2      	lsls	r2, r4
 8004eca:	430a      	orrs	r2, r1
 8004ecc:	639a      	str	r2, [r3, #56]	; 0x38
 8004ece:	69a9      	ldr	r1, [r5, #24]
 8004ed0:	6bd8      	ldr	r0, [r3, #60]	; 0x3c
 8004ed2:	2207      	movs	r2, #7
 8004ed4:	2901      	cmp	r1, #1
 8004ed6:	fa02 fc04 	lsl.w	ip, r2, r4
 8004eda:	696a      	ldr	r2, [r5, #20]
 8004edc:	d05e      	beq.n	8004f9c <HAL_DAC_ConfigChannel+0x10c>
 8004ede:	2902      	cmp	r1, #2
 8004ee0:	bf16      	itet	ne
 8004ee2:	fab2 f182 	clzne	r1, r2
 8004ee6:	2101      	moveq	r1, #1
 8004ee8:	0949      	lsrne	r1, r1, #5
 8004eea:	4311      	orrs	r1, r2
 8004eec:	792a      	ldrb	r2, [r5, #4]
 8004eee:	2a01      	cmp	r2, #1
 8004ef0:	f44f 7200 	mov.w	r2, #512	; 0x200
 8004ef4:	f44f 7880 	mov.w	r8, #256	; 0x100
 8004ef8:	fa02 f204 	lsl.w	r2, r2, r4
 8004efc:	fa08 f804 	lsl.w	r8, r8, r4
 8004f00:	ea42 020c 	orr.w	r2, r2, ip
 8004f04:	ea47 0701 	orr.w	r7, r7, r1
 8004f08:	ea20 0202 	bic.w	r2, r0, r2
 8004f0c:	7969      	ldrb	r1, [r5, #5]
 8004f0e:	ea6f 0808 	mvn.w	r8, r8
 8004f12:	ea08 0802 	and.w	r8, r8, r2
 8004f16:	682a      	ldr	r2, [r5, #0]
 8004f18:	bf08      	it	eq
 8004f1a:	f447 7780 	orreq.w	r7, r7, #256	; 0x100
 8004f1e:	2901      	cmp	r1, #1
 8004f20:	bf08      	it	eq
 8004f22:	f447 7700 	orreq.w	r7, r7, #512	; 0x200
 8004f26:	2a02      	cmp	r2, #2
 8004f28:	f428 4840 	bic.w	r8, r8, #49152	; 0xc000
 8004f2c:	d073      	beq.n	8005016 <HAL_DAC_ConfigChannel+0x186>
 8004f2e:	ea48 0802 	orr.w	r8, r8, r2
 8004f32:	40a7      	lsls	r7, r4
 8004f34:	ea47 0708 	orr.w	r7, r7, r8
 8004f38:	63df      	str	r7, [r3, #60]	; 0x3c
 8004f3a:	e9d5 1203 	ldrd	r1, r2, [r5, #12]
 8004f3e:	6818      	ldr	r0, [r3, #0]
 8004f40:	f44f 4580 	mov.w	r5, #16384	; 0x4000
 8004f44:	40a5      	lsls	r5, r4
 8004f46:	ea20 0005 	bic.w	r0, r0, r5
 8004f4a:	6018      	str	r0, [r3, #0]
 8004f4c:	6818      	ldr	r0, [r3, #0]
 8004f4e:	f640 75fe 	movw	r5, #4094	; 0xffe
 8004f52:	40a5      	lsls	r5, r4
 8004f54:	ea20 0505 	bic.w	r5, r0, r5
 8004f58:	fa01 f004 	lsl.w	r0, r1, r4
 8004f5c:	4328      	orrs	r0, r5
 8004f5e:	6018      	str	r0, [r3, #0]
 8004f60:	6818      	ldr	r0, [r3, #0]
 8004f62:	25c0      	movs	r5, #192	; 0xc0
 8004f64:	40a5      	lsls	r5, r4
 8004f66:	ea20 0005 	bic.w	r0, r0, r5
 8004f6a:	6018      	str	r0, [r3, #0]
 8004f6c:	0192      	lsls	r2, r2, #6
 8004f6e:	6e18      	ldr	r0, [r3, #96]	; 0x60
 8004f70:	f3c1 0183 	ubfx	r1, r1, #2, #4
 8004f74:	f402 6270 	and.w	r2, r2, #3840	; 0xf00
 8004f78:	f640 750f 	movw	r5, #3855	; 0xf0f
 8004f7c:	430a      	orrs	r2, r1
 8004f7e:	fa05 f104 	lsl.w	r1, r5, r4
 8004f82:	fa02 f404 	lsl.w	r4, r2, r4
 8004f86:	ea20 0201 	bic.w	r2, r0, r1
 8004f8a:	4314      	orrs	r4, r2
 8004f8c:	2101      	movs	r1, #1
 8004f8e:	2200      	movs	r2, #0
 8004f90:	661c      	str	r4, [r3, #96]	; 0x60
 8004f92:	4610      	mov	r0, r2
 8004f94:	7131      	strb	r1, [r6, #4]
 8004f96:	7172      	strb	r2, [r6, #5]
 8004f98:	e8bd 81f0 	ldmia.w	sp!, {r4, r5, r6, r7, r8, pc}
 8004f9c:	2100      	movs	r1, #0
 8004f9e:	e7a4      	b.n	8004eea <HAL_DAC_ConfigChannel+0x5a>
 8004fa0:	f7fe ff36 	bl	8003e10 <HAL_GetTick>
 8004fa4:	4607      	mov	r7, r0
 8004fa6:	b12c      	cbz	r4, 8004fb4 <HAL_DAC_ConfigChannel+0x124>
 8004fa8:	e014      	b.n	8004fd4 <HAL_DAC_ConfigChannel+0x144>
 8004faa:	f7fe ff31 	bl	8003e10 <HAL_GetTick>
 8004fae:	1bc3      	subs	r3, r0, r7
 8004fb0:	2b01      	cmp	r3, #1
 8004fb2:	d83c      	bhi.n	800502e <HAL_DAC_ConfigChannel+0x19e>
 8004fb4:	6833      	ldr	r3, [r6, #0]
 8004fb6:	6b5b      	ldr	r3, [r3, #52]	; 0x34
 8004fb8:	041b      	lsls	r3, r3, #16
 8004fba:	d4f6      	bmi.n	8004faa <HAL_DAC_ConfigChannel+0x11a>
 8004fbc:	2001      	movs	r0, #1
 8004fbe:	f7fe ff2d 	bl	8003e1c <HAL_Delay>
 8004fc2:	6833      	ldr	r3, [r6, #0]
 8004fc4:	6a6a      	ldr	r2, [r5, #36]	; 0x24
 8004fc6:	641a      	str	r2, [r3, #64]	; 0x40
 8004fc8:	e00e      	b.n	8004fe8 <HAL_DAC_ConfigChannel+0x158>
 8004fca:	f7fe ff21 	bl	8003e10 <HAL_GetTick>
 8004fce:	1bc3      	subs	r3, r0, r7
 8004fd0:	2b01      	cmp	r3, #1
 8004fd2:	d82c      	bhi.n	800502e <HAL_DAC_ConfigChannel+0x19e>
 8004fd4:	6833      	ldr	r3, [r6, #0]
 8004fd6:	6b5b      	ldr	r3, [r3, #52]	; 0x34
 8004fd8:	2b00      	cmp	r3, #0
 8004fda:	dbf6      	blt.n	8004fca <HAL_DAC_ConfigChannel+0x13a>
 8004fdc:	2001      	movs	r0, #1
 8004fde:	f7fe ff1d 	bl	8003e1c <HAL_Delay>
 8004fe2:	6833      	ldr	r3, [r6, #0]
 8004fe4:	6a6a      	ldr	r2, [r5, #36]	; 0x24
 8004fe6:	645a      	str	r2, [r3, #68]	; 0x44
 8004fe8:	6c9a      	ldr	r2, [r3, #72]	; 0x48
 8004fea:	6aa9      	ldr	r1, [r5, #40]	; 0x28
 8004fec:	68af      	ldr	r7, [r5, #8]
 8004fee:	f004 0410 	and.w	r4, r4, #16
 8004ff2:	f240 30ff 	movw	r0, #1023	; 0x3ff
 8004ff6:	40a0      	lsls	r0, r4
 8004ff8:	ea22 0200 	bic.w	r2, r2, r0
 8004ffc:	40a1      	lsls	r1, r4
 8004ffe:	430a      	orrs	r2, r1
 8005000:	649a      	str	r2, [r3, #72]	; 0x48
 8005002:	6cda      	ldr	r2, [r3, #76]	; 0x4c
 8005004:	6ae9      	ldr	r1, [r5, #44]	; 0x2c
 8005006:	20ff      	movs	r0, #255	; 0xff
 8005008:	40a0      	lsls	r0, r4
 800500a:	ea22 0200 	bic.w	r2, r2, r0
 800500e:	40a1      	lsls	r1, r4
 8005010:	430a      	orrs	r2, r1
 8005012:	64da      	str	r2, [r3, #76]	; 0x4c
 8005014:	e74f      	b.n	8004eb6 <HAL_DAC_ConfigChannel+0x26>
 8005016:	f000 febb 	bl	8005d90 <HAL_RCC_GetHCLKFreq>
 800501a:	4b0c      	ldr	r3, [pc, #48]	; (800504c <HAL_DAC_ConfigChannel+0x1bc>)
 800501c:	4298      	cmp	r0, r3
 800501e:	d90e      	bls.n	800503e <HAL_DAC_ConfigChannel+0x1ae>
 8005020:	6833      	ldr	r3, [r6, #0]
 8005022:	f448 4800 	orr.w	r8, r8, #32768	; 0x8000
 8005026:	e784      	b.n	8004f32 <HAL_DAC_ConfigChannel+0xa2>
 8005028:	2002      	movs	r0, #2
 800502a:	e8bd 81f0 	ldmia.w	sp!, {r4, r5, r6, r7, r8, pc}
 800502e:	6933      	ldr	r3, [r6, #16]
 8005030:	2203      	movs	r2, #3
 8005032:	f043 0308 	orr.w	r3, r3, #8
 8005036:	6133      	str	r3, [r6, #16]
 8005038:	4610      	mov	r0, r2
 800503a:	7132      	strb	r2, [r6, #4]
 800503c:	e7ac      	b.n	8004f98 <HAL_DAC_ConfigChannel+0x108>
 800503e:	4b04      	ldr	r3, [pc, #16]	; (8005050 <HAL_DAC_ConfigChannel+0x1c0>)
 8005040:	4298      	cmp	r0, r3
 8005042:	bf88      	it	hi
 8005044:	f448 4880 	orrhi.w	r8, r8, #16384	; 0x4000
 8005048:	6833      	ldr	r3, [r6, #0]
 800504a:	e772      	b.n	8004f32 <HAL_DAC_ConfigChannel+0xa2>
 800504c:	09896800 	.word	0x09896800
 8005050:	04c4b400 	.word	0x04c4b400

08005054 <HAL_FDCAN_Init>:
 8005054:	2800      	cmp	r0, #0
 8005056:	f000 80d8 	beq.w	800520a <HAL_FDCAN_Init+0x1b6>
 800505a:	b538      	push	{r3, r4, r5, lr}
 800505c:	f890 305c 	ldrb.w	r3, [r0, #92]	; 0x5c
 8005060:	4604      	mov	r4, r0
 8005062:	f003 02ff 	and.w	r2, r3, #255	; 0xff
 8005066:	2b00      	cmp	r3, #0
 8005068:	d071      	beq.n	800514e <HAL_FDCAN_Init+0xfa>
 800506a:	6822      	ldr	r2, [r4, #0]
 800506c:	6993      	ldr	r3, [r2, #24]
 800506e:	f023 0310 	bic.w	r3, r3, #16
 8005072:	6193      	str	r3, [r2, #24]
 8005074:	f7fe fecc 	bl	8003e10 <HAL_GetTick>
 8005078:	4605      	mov	r5, r0
 800507a:	e004      	b.n	8005086 <HAL_FDCAN_Init+0x32>
 800507c:	f7fe fec8 	bl	8003e10 <HAL_GetTick>
 8005080:	1b43      	subs	r3, r0, r5
 8005082:	2b0a      	cmp	r3, #10
 8005084:	d85a      	bhi.n	800513c <HAL_FDCAN_Init+0xe8>
 8005086:	6823      	ldr	r3, [r4, #0]
 8005088:	699a      	ldr	r2, [r3, #24]
 800508a:	0711      	lsls	r1, r2, #28
 800508c:	d4f6      	bmi.n	800507c <HAL_FDCAN_Init+0x28>
 800508e:	699a      	ldr	r2, [r3, #24]
 8005090:	f042 0201 	orr.w	r2, r2, #1
 8005094:	619a      	str	r2, [r3, #24]
 8005096:	f7fe febb 	bl	8003e10 <HAL_GetTick>
 800509a:	4605      	mov	r5, r0
 800509c:	e004      	b.n	80050a8 <HAL_FDCAN_Init+0x54>
 800509e:	f7fe feb7 	bl	8003e10 <HAL_GetTick>
 80050a2:	1b40      	subs	r0, r0, r5
 80050a4:	280a      	cmp	r0, #10
 80050a6:	d849      	bhi.n	800513c <HAL_FDCAN_Init+0xe8>
 80050a8:	6823      	ldr	r3, [r4, #0]
 80050aa:	699a      	ldr	r2, [r3, #24]
 80050ac:	07d2      	lsls	r2, r2, #31
 80050ae:	d5f6      	bpl.n	800509e <HAL_FDCAN_Init+0x4a>
 80050b0:	699a      	ldr	r2, [r3, #24]
 80050b2:	4959      	ldr	r1, [pc, #356]	; (8005218 <HAL_FDCAN_Init+0x1c4>)
 80050b4:	f042 0202 	orr.w	r2, r2, #2
 80050b8:	428b      	cmp	r3, r1
 80050ba:	619a      	str	r2, [r3, #24]
 80050bc:	f000 80a1 	beq.w	8005202 <HAL_FDCAN_Init+0x1ae>
 80050c0:	7c22      	ldrb	r2, [r4, #16]
 80050c2:	2a01      	cmp	r2, #1
 80050c4:	699a      	ldr	r2, [r3, #24]
 80050c6:	bf0c      	ite	eq
 80050c8:	f022 0240 	biceq.w	r2, r2, #64	; 0x40
 80050cc:	f042 0240 	orrne.w	r2, r2, #64	; 0x40
 80050d0:	619a      	str	r2, [r3, #24]
 80050d2:	7c62      	ldrb	r2, [r4, #17]
 80050d4:	2a01      	cmp	r2, #1
 80050d6:	699a      	ldr	r2, [r3, #24]
 80050d8:	bf0c      	ite	eq
 80050da:	f442 4280 	orreq.w	r2, r2, #16384	; 0x4000
 80050de:	f422 4280 	bicne.w	r2, r2, #16384	; 0x4000
 80050e2:	619a      	str	r2, [r3, #24]
 80050e4:	7ca2      	ldrb	r2, [r4, #18]
 80050e6:	2a01      	cmp	r2, #1
 80050e8:	699a      	ldr	r2, [r3, #24]
 80050ea:	bf0c      	ite	eq
 80050ec:	f422 5280 	biceq.w	r2, r2, #4096	; 0x1000
 80050f0:	f442 5280 	orrne.w	r2, r2, #4096	; 0x1000
 80050f4:	619a      	str	r2, [r3, #24]
 80050f6:	699a      	ldr	r2, [r3, #24]
 80050f8:	e9d4 5102 	ldrd	r5, r1, [r4, #8]
 80050fc:	f422 7240 	bic.w	r2, r2, #768	; 0x300
 8005100:	432a      	orrs	r2, r5
 8005102:	619a      	str	r2, [r3, #24]
 8005104:	699a      	ldr	r2, [r3, #24]
 8005106:	f022 02a4 	bic.w	r2, r2, #164	; 0xa4
 800510a:	619a      	str	r2, [r3, #24]
 800510c:	691a      	ldr	r2, [r3, #16]
 800510e:	2901      	cmp	r1, #1
 8005110:	f022 0210 	bic.w	r2, r2, #16
 8005114:	611a      	str	r2, [r3, #16]
 8005116:	d01f      	beq.n	8005158 <HAL_FDCAN_Init+0x104>
 8005118:	b311      	cbz	r1, 8005160 <HAL_FDCAN_Init+0x10c>
 800511a:	2902      	cmp	r1, #2
 800511c:	699a      	ldr	r2, [r3, #24]
 800511e:	d076      	beq.n	800520e <HAL_FDCAN_Init+0x1ba>
 8005120:	f042 0280 	orr.w	r2, r2, #128	; 0x80
 8005124:	619a      	str	r2, [r3, #24]
 8005126:	691a      	ldr	r2, [r3, #16]
 8005128:	2903      	cmp	r1, #3
 800512a:	f042 0210 	orr.w	r2, r2, #16
 800512e:	611a      	str	r2, [r3, #16]
 8005130:	d116      	bne.n	8005160 <HAL_FDCAN_Init+0x10c>
 8005132:	699a      	ldr	r2, [r3, #24]
 8005134:	f042 0220 	orr.w	r2, r2, #32
 8005138:	619a      	str	r2, [r3, #24]
 800513a:	e011      	b.n	8005160 <HAL_FDCAN_Init+0x10c>
 800513c:	6e23      	ldr	r3, [r4, #96]	; 0x60
 800513e:	2203      	movs	r2, #3
 8005140:	f043 0301 	orr.w	r3, r3, #1
 8005144:	6623      	str	r3, [r4, #96]	; 0x60
 8005146:	f884 205c 	strb.w	r2, [r4, #92]	; 0x5c
 800514a:	2001      	movs	r0, #1
 800514c:	bd38      	pop	{r3, r4, r5, pc}
 800514e:	f880 205d 	strb.w	r2, [r0, #93]	; 0x5d
 8005152:	f7fe fb0d 	bl	8003770 <HAL_FDCAN_MspInit>
 8005156:	e788      	b.n	800506a <HAL_FDCAN_Init+0x16>
 8005158:	699a      	ldr	r2, [r3, #24]
 800515a:	f042 0204 	orr.w	r2, r2, #4
 800515e:	619a      	str	r2, [r3, #24]
 8005160:	e9d4 1206 	ldrd	r1, r2, [r4, #24]
 8005164:	3a01      	subs	r2, #1
 8005166:	6a20      	ldr	r0, [r4, #32]
 8005168:	3901      	subs	r1, #1
 800516a:	0212      	lsls	r2, r2, #8
 800516c:	ea42 6241 	orr.w	r2, r2, r1, lsl #25
 8005170:	6961      	ldr	r1, [r4, #20]
 8005172:	3801      	subs	r0, #1
 8005174:	4302      	orrs	r2, r0
 8005176:	3901      	subs	r1, #1
 8005178:	ea42 4201 	orr.w	r2, r2, r1, lsl #16
 800517c:	f5b5 7f40 	cmp.w	r5, #768	; 0x300
 8005180:	61da      	str	r2, [r3, #28]
 8005182:	d10e      	bne.n	80051a2 <HAL_FDCAN_Init+0x14e>
 8005184:	e9d4 520b 	ldrd	r5, r2, [r4, #44]	; 0x2c
 8005188:	e9d4 1009 	ldrd	r1, r0, [r4, #36]	; 0x24
 800518c:	3a01      	subs	r2, #1
 800518e:	0112      	lsls	r2, r2, #4
 8005190:	3d01      	subs	r5, #1
 8005192:	ea42 2205 	orr.w	r2, r2, r5, lsl #8
 8005196:	3801      	subs	r0, #1
 8005198:	4302      	orrs	r2, r0
 800519a:	3901      	subs	r1, #1
 800519c:	ea42 4201 	orr.w	r2, r2, r1, lsl #16
 80051a0:	60da      	str	r2, [r3, #12]
 80051a2:	f8d3 10c0 	ldr.w	r1, [r3, #192]	; 0xc0
 80051a6:	6be2      	ldr	r2, [r4, #60]	; 0x3c
 80051a8:	6b65      	ldr	r5, [r4, #52]	; 0x34
 80051aa:	481c      	ldr	r0, [pc, #112]	; (800521c <HAL_FDCAN_Init+0x1c8>)
 80051ac:	4311      	orrs	r1, r2
 80051ae:	f8c3 10c0 	str.w	r1, [r3, #192]	; 0xc0
 80051b2:	f8d3 2080 	ldr.w	r2, [r3, #128]	; 0x80
 80051b6:	6420      	str	r0, [r4, #64]	; 0x40
 80051b8:	f422 12f8 	bic.w	r2, r2, #2031616	; 0x1f0000
 80051bc:	ea42 4205 	orr.w	r2, r2, r5, lsl #16
 80051c0:	f8c3 2080 	str.w	r2, [r3, #128]	; 0x80
 80051c4:	f8d3 2080 	ldr.w	r2, [r3, #128]	; 0x80
 80051c8:	6ba1      	ldr	r1, [r4, #56]	; 0x38
 80051ca:	4d15      	ldr	r5, [pc, #84]	; (8005220 <HAL_FDCAN_Init+0x1cc>)
 80051cc:	6465      	str	r5, [r4, #68]	; 0x44
 80051ce:	f022 6270 	bic.w	r2, r2, #251658240	; 0xf000000
 80051d2:	ea42 6201 	orr.w	r2, r2, r1, lsl #24
 80051d6:	f8c3 2080 	str.w	r2, [r3, #128]	; 0x80
 80051da:	4912      	ldr	r1, [pc, #72]	; (8005224 <HAL_FDCAN_Init+0x1d0>)
 80051dc:	4b12      	ldr	r3, [pc, #72]	; (8005228 <HAL_FDCAN_Init+0x1d4>)
 80051de:	4a13      	ldr	r2, [pc, #76]	; (800522c <HAL_FDCAN_Init+0x1d8>)
 80051e0:	3540      	adds	r5, #64	; 0x40
 80051e2:	e9c4 2314 	strd	r2, r3, [r4, #80]	; 0x50
 80051e6:	e9c4 5112 	strd	r5, r1, [r4, #72]	; 0x48
 80051ea:	f44f 7254 	mov.w	r2, #848	; 0x350
 80051ee:	2100      	movs	r1, #0
 80051f0:	f003 fc48 	bl	8008a84 <memset>
 80051f4:	2000      	movs	r0, #0
 80051f6:	2301      	movs	r3, #1
 80051f8:	6620      	str	r0, [r4, #96]	; 0x60
 80051fa:	f884 305c 	strb.w	r3, [r4, #92]	; 0x5c
 80051fe:	65a0      	str	r0, [r4, #88]	; 0x58
 8005200:	bd38      	pop	{r3, r4, r5, pc}
 8005202:	4a0b      	ldr	r2, [pc, #44]	; (8005230 <HAL_FDCAN_Init+0x1dc>)
 8005204:	6861      	ldr	r1, [r4, #4]
 8005206:	6011      	str	r1, [r2, #0]
 8005208:	e75a      	b.n	80050c0 <HAL_FDCAN_Init+0x6c>
 800520a:	2001      	movs	r0, #1
 800520c:	4770      	bx	lr
 800520e:	f042 0220 	orr.w	r2, r2, #32
 8005212:	619a      	str	r2, [r3, #24]
 8005214:	e7a4      	b.n	8005160 <HAL_FDCAN_Init+0x10c>
 8005216:	bf00      	nop
 8005218:	40006400 	.word	0x40006400
 800521c:	4000a400 	.word	0x4000a400
 8005220:	4000a470 	.word	0x4000a470
 8005224:	4000a588 	.word	0x4000a588
 8005228:	4000a678 	.word	0x4000a678
 800522c:	4000a660 	.word	0x4000a660
 8005230:	40006500 	.word	0x40006500

08005234 <HAL_GPIO_Init>:
 8005234:	e92d 4ff0 	stmdb	sp!, {r4, r5, r6, r7, r8, r9, sl, fp, lr}
 8005238:	680e      	ldr	r6, [r1, #0]
 800523a:	b083      	sub	sp, #12
 800523c:	2e00      	cmp	r6, #0
 800523e:	f000 808b 	beq.w	8005358 <HAL_GPIO_Init+0x124>
 8005242:	f8df e1d4 	ldr.w	lr, [pc, #468]	; 8005418 <HAL_GPIO_Init+0x1e4>
 8005246:	2300      	movs	r3, #0
 8005248:	2201      	movs	r2, #1
 800524a:	fa02 f403 	lsl.w	r4, r2, r3
 800524e:	ea14 0c06 	ands.w	ip, r4, r6
 8005252:	d07c      	beq.n	800534e <HAL_GPIO_Init+0x11a>
 8005254:	684d      	ldr	r5, [r1, #4]
 8005256:	f025 0a10 	bic.w	sl, r5, #16
 800525a:	f10a 32ff 	add.w	r2, sl, #4294967295
 800525e:	2a01      	cmp	r2, #1
 8005260:	ea4f 0843 	mov.w	r8, r3, lsl #1
 8005264:	f04f 0203 	mov.w	r2, #3
 8005268:	d979      	bls.n	800535e <HAL_GPIO_Init+0x12a>
 800526a:	68c7      	ldr	r7, [r0, #12]
 800526c:	688c      	ldr	r4, [r1, #8]
 800526e:	fa02 f208 	lsl.w	r2, r2, r8
 8005272:	ea27 0702 	bic.w	r7, r7, r2
 8005276:	fa04 f408 	lsl.w	r4, r4, r8
 800527a:	433c      	orrs	r4, r7
 800527c:	60c4      	str	r4, [r0, #12]
 800527e:	43d7      	mvns	r7, r2
 8005280:	6804      	ldr	r4, [r0, #0]
 8005282:	f005 0203 	and.w	r2, r5, #3
 8005286:	4027      	ands	r7, r4
 8005288:	fa02 f208 	lsl.w	r2, r2, r8
 800528c:	433a      	orrs	r2, r7
 800528e:	00ec      	lsls	r4, r5, #3
 8005290:	6002      	str	r2, [r0, #0]
 8005292:	d55c      	bpl.n	800534e <HAL_GPIO_Init+0x11a>
 8005294:	4c5a      	ldr	r4, [pc, #360]	; (8005400 <HAL_GPIO_Init+0x1cc>)
 8005296:	6e22      	ldr	r2, [r4, #96]	; 0x60
 8005298:	f042 0201 	orr.w	r2, r2, #1
 800529c:	6622      	str	r2, [r4, #96]	; 0x60
 800529e:	6e22      	ldr	r2, [r4, #96]	; 0x60
 80052a0:	f023 0403 	bic.w	r4, r3, #3
 80052a4:	f104 4480 	add.w	r4, r4, #1073741824	; 0x40000000
 80052a8:	f002 0201 	and.w	r2, r2, #1
 80052ac:	f504 3480 	add.w	r4, r4, #65536	; 0x10000
 80052b0:	9201      	str	r2, [sp, #4]
 80052b2:	f003 0203 	and.w	r2, r3, #3
 80052b6:	ea4f 0982 	mov.w	r9, r2, lsl #2
 80052ba:	9f01      	ldr	r7, [sp, #4]
 80052bc:	68a7      	ldr	r7, [r4, #8]
 80052be:	220f      	movs	r2, #15
 80052c0:	fa02 f809 	lsl.w	r8, r2, r9
 80052c4:	f1b0 4f90 	cmp.w	r0, #1207959552	; 0x48000000
 80052c8:	ea27 0708 	bic.w	r7, r7, r8
 80052cc:	d018      	beq.n	8005300 <HAL_GPIO_Init+0xcc>
 80052ce:	4a4d      	ldr	r2, [pc, #308]	; (8005404 <HAL_GPIO_Init+0x1d0>)
 80052d0:	4290      	cmp	r0, r2
 80052d2:	f000 8084 	beq.w	80053de <HAL_GPIO_Init+0x1aa>
 80052d6:	4a4c      	ldr	r2, [pc, #304]	; (8005408 <HAL_GPIO_Init+0x1d4>)
 80052d8:	4290      	cmp	r0, r2
 80052da:	f000 8085 	beq.w	80053e8 <HAL_GPIO_Init+0x1b4>
 80052de:	4a4b      	ldr	r2, [pc, #300]	; (800540c <HAL_GPIO_Init+0x1d8>)
 80052e0:	4290      	cmp	r0, r2
 80052e2:	d076      	beq.n	80053d2 <HAL_GPIO_Init+0x19e>
 80052e4:	4a4a      	ldr	r2, [pc, #296]	; (8005410 <HAL_GPIO_Init+0x1dc>)
 80052e6:	4290      	cmp	r0, r2
 80052e8:	f000 8084 	beq.w	80053f4 <HAL_GPIO_Init+0x1c0>
 80052ec:	4a49      	ldr	r2, [pc, #292]	; (8005414 <HAL_GPIO_Init+0x1e0>)
 80052ee:	4290      	cmp	r0, r2
 80052f0:	bf0c      	ite	eq
 80052f2:	f04f 0805 	moveq.w	r8, #5
 80052f6:	f04f 0806 	movne.w	r8, #6
 80052fa:	fa08 f209 	lsl.w	r2, r8, r9
 80052fe:	4317      	orrs	r7, r2
 8005300:	60a7      	str	r7, [r4, #8]
 8005302:	f8de 4000 	ldr.w	r4, [lr]
 8005306:	ea6f 070c 	mvn.w	r7, ip
 800530a:	03ea      	lsls	r2, r5, #15
 800530c:	bf54      	ite	pl
 800530e:	403c      	andpl	r4, r7
 8005310:	ea4c 0404 	orrmi.w	r4, ip, r4
 8005314:	f8ce 4000 	str.w	r4, [lr]
 8005318:	f8de 4004 	ldr.w	r4, [lr, #4]
 800531c:	03aa      	lsls	r2, r5, #14
 800531e:	bf54      	ite	pl
 8005320:	403c      	andpl	r4, r7
 8005322:	ea4c 0404 	orrmi.w	r4, ip, r4
 8005326:	f8ce 4004 	str.w	r4, [lr, #4]
 800532a:	f8de 4008 	ldr.w	r4, [lr, #8]
 800532e:	02ea      	lsls	r2, r5, #11
 8005330:	bf54      	ite	pl
 8005332:	403c      	andpl	r4, r7
 8005334:	ea4c 0404 	orrmi.w	r4, ip, r4
 8005338:	f8ce 4008 	str.w	r4, [lr, #8]
 800533c:	f8de 200c 	ldr.w	r2, [lr, #12]
 8005340:	02ac      	lsls	r4, r5, #10
 8005342:	bf54      	ite	pl
 8005344:	403a      	andpl	r2, r7
 8005346:	ea4c 0202 	orrmi.w	r2, ip, r2
 800534a:	f8ce 200c 	str.w	r2, [lr, #12]
 800534e:	3301      	adds	r3, #1
 8005350:	fa36 f203 	lsrs.w	r2, r6, r3
 8005354:	f47f af78 	bne.w	8005248 <HAL_GPIO_Init+0x14>
 8005358:	b003      	add	sp, #12
 800535a:	e8bd 8ff0 	ldmia.w	sp!, {r4, r5, r6, r7, r8, r9, sl, fp, pc}
 800535e:	6887      	ldr	r7, [r0, #8]
 8005360:	f8d1 9008 	ldr.w	r9, [r1, #8]
 8005364:	fa02 f208 	lsl.w	r2, r2, r8
 8005368:	ea27 0b02 	bic.w	fp, r7, r2
 800536c:	68cf      	ldr	r7, [r1, #12]
 800536e:	fa07 f708 	lsl.w	r7, r7, r8
 8005372:	ea47 070b 	orr.w	r7, r7, fp
 8005376:	6087      	str	r7, [r0, #8]
 8005378:	6847      	ldr	r7, [r0, #4]
 800537a:	f3c5 1b00 	ubfx	fp, r5, #4, #1
 800537e:	ea27 0704 	bic.w	r7, r7, r4
 8005382:	465c      	mov	r4, fp
 8005384:	409c      	lsls	r4, r3
 8005386:	433c      	orrs	r4, r7
 8005388:	6044      	str	r4, [r0, #4]
 800538a:	68c4      	ldr	r4, [r0, #12]
 800538c:	fa09 f908 	lsl.w	r9, r9, r8
 8005390:	ea24 0402 	bic.w	r4, r4, r2
 8005394:	ea49 0404 	orr.w	r4, r9, r4
 8005398:	f1ba 0f02 	cmp.w	sl, #2
 800539c:	ea6f 0702 	mvn.w	r7, r2
 80053a0:	60c4      	str	r4, [r0, #12]
 80053a2:	f47f af6d 	bne.w	8005280 <HAL_GPIO_Init+0x4c>
 80053a6:	ea4f 09d3 	mov.w	r9, r3, lsr #3
 80053aa:	eb00 0989 	add.w	r9, r0, r9, lsl #2
 80053ae:	f003 0207 	and.w	r2, r3, #7
 80053b2:	f8d9 4020 	ldr.w	r4, [r9, #32]
 80053b6:	0092      	lsls	r2, r2, #2
 80053b8:	f04f 0a0f 	mov.w	sl, #15
 80053bc:	fa0a fb02 	lsl.w	fp, sl, r2
 80053c0:	ea24 0a0b 	bic.w	sl, r4, fp
 80053c4:	690c      	ldr	r4, [r1, #16]
 80053c6:	4094      	lsls	r4, r2
 80053c8:	ea44 040a 	orr.w	r4, r4, sl
 80053cc:	f8c9 4020 	str.w	r4, [r9, #32]
 80053d0:	e756      	b.n	8005280 <HAL_GPIO_Init+0x4c>
 80053d2:	f04f 0803 	mov.w	r8, #3
 80053d6:	fa08 f209 	lsl.w	r2, r8, r9
 80053da:	4317      	orrs	r7, r2
 80053dc:	e790      	b.n	8005300 <HAL_GPIO_Init+0xcc>
 80053de:	2201      	movs	r2, #1
 80053e0:	fa02 f209 	lsl.w	r2, r2, r9
 80053e4:	4317      	orrs	r7, r2
 80053e6:	e78b      	b.n	8005300 <HAL_GPIO_Init+0xcc>
 80053e8:	f04f 0802 	mov.w	r8, #2
 80053ec:	fa08 f209 	lsl.w	r2, r8, r9
 80053f0:	4317      	orrs	r7, r2
 80053f2:	e785      	b.n	8005300 <HAL_GPIO_Init+0xcc>
 80053f4:	f04f 0804 	mov.w	r8, #4
 80053f8:	fa08 f209 	lsl.w	r2, r8, r9
 80053fc:	4317      	orrs	r7, r2
 80053fe:	e77f      	b.n	8005300 <HAL_GPIO_Init+0xcc>
 8005400:	40021000 	.word	0x40021000
 8005404:	48000400 	.word	0x48000400
 8005408:	48000800 	.word	0x48000800
 800540c:	48000c00 	.word	0x48000c00
 8005410:	48001000 	.word	0x48001000
 8005414:	48001400 	.word	0x48001400
 8005418:	40010400 	.word	0x40010400

0800541c <HAL_GPIO_ReadPin>:
 800541c:	6903      	ldr	r3, [r0, #16]
 800541e:	4219      	tst	r1, r3
 8005420:	bf14      	ite	ne
 8005422:	2001      	movne	r0, #1
 8005424:	2000      	moveq	r0, #0
 8005426:	4770      	bx	lr

08005428 <HAL_GPIO_WritePin>:
 8005428:	b10a      	cbz	r2, 800542e <HAL_GPIO_WritePin+0x6>
 800542a:	6181      	str	r1, [r0, #24]
 800542c:	4770      	bx	lr
 800542e:	6281      	str	r1, [r0, #40]	; 0x28
 8005430:	4770      	bx	lr
 8005432:	bf00      	nop

08005434 <HAL_GPIO_EXTI_IRQHandler>:
 8005434:	4a04      	ldr	r2, [pc, #16]	; (8005448 <HAL_GPIO_EXTI_IRQHandler+0x14>)
 8005436:	6951      	ldr	r1, [r2, #20]
 8005438:	4201      	tst	r1, r0
 800543a:	d100      	bne.n	800543e <HAL_GPIO_EXTI_IRQHandler+0xa>
 800543c:	4770      	bx	lr
 800543e:	b508      	push	{r3, lr}
 8005440:	6150      	str	r0, [r2, #20]
 8005442:	f7fe fc59 	bl	8003cf8 <HAL_GPIO_EXTI_Callback>
 8005446:	bd08      	pop	{r3, pc}
 8005448:	40010400 	.word	0x40010400

0800544c <HAL_OPAMP_Init>:
 800544c:	2800      	cmp	r0, #0
 800544e:	d07d      	beq.n	800554c <HAL_OPAMP_Init+0x100>
 8005450:	b570      	push	{r4, r5, r6, lr}
 8005452:	f890 303a 	ldrb.w	r3, [r0, #58]	; 0x3a
 8005456:	2b05      	cmp	r3, #5
 8005458:	b082      	sub	sp, #8
 800545a:	4604      	mov	r4, r0
 800545c:	d057      	beq.n	800550e <HAL_OPAMP_Init+0xc2>
 800545e:	f890 303a 	ldrb.w	r3, [r0, #58]	; 0x3a
 8005462:	2b02      	cmp	r3, #2
 8005464:	d053      	beq.n	800550e <HAL_OPAMP_Init+0xc2>
 8005466:	4b3a      	ldr	r3, [pc, #232]	; (8005550 <HAL_OPAMP_Init+0x104>)
 8005468:	6e1a      	ldr	r2, [r3, #96]	; 0x60
 800546a:	f042 0201 	orr.w	r2, r2, #1
 800546e:	661a      	str	r2, [r3, #96]	; 0x60
 8005470:	6e1b      	ldr	r3, [r3, #96]	; 0x60
 8005472:	f003 0301 	and.w	r3, r3, #1
 8005476:	9301      	str	r3, [sp, #4]
 8005478:	9b01      	ldr	r3, [sp, #4]
 800547a:	f890 303a 	ldrb.w	r3, [r0, #58]	; 0x3a
 800547e:	f003 02ff 	and.w	r2, r3, #255	; 0xff
 8005482:	b90b      	cbnz	r3, 8005488 <HAL_OPAMP_Init+0x3c>
 8005484:	f880 2039 	strb.w	r2, [r0, #57]	; 0x39
 8005488:	4620      	mov	r0, r4
 800548a:	f7fe f9c1 	bl	8003810 <HAL_OPAMP_MspInit>
 800548e:	68a3      	ldr	r3, [r4, #8]
 8005490:	f023 0220 	bic.w	r2, r3, #32
 8005494:	2a40      	cmp	r2, #64	; 0x40
 8005496:	6822      	ldr	r2, [r4, #0]
 8005498:	d03c      	beq.n	8005514 <HAL_OPAMP_Init+0xc8>
 800549a:	6860      	ldr	r0, [r4, #4]
 800549c:	68e6      	ldr	r6, [r4, #12]
 800549e:	6811      	ldr	r1, [r2, #0]
 80054a0:	6925      	ldr	r5, [r4, #16]
 80054a2:	4303      	orrs	r3, r0
 80054a4:	4333      	orrs	r3, r6
 80054a6:	6ae0      	ldr	r0, [r4, #44]	; 0x2c
 80054a8:	6a66      	ldr	r6, [r4, #36]	; 0x24
 80054aa:	432b      	orrs	r3, r5
 80054ac:	f021 0110 	bic.w	r1, r1, #16
 80054b0:	6aa5      	ldr	r5, [r4, #40]	; 0x28
 80054b2:	4301      	orrs	r1, r0
 80054b4:	4333      	orrs	r3, r6
 80054b6:	e9d4 600c 	ldrd	r6, r0, [r4, #48]	; 0x30
 80054ba:	6011      	str	r1, [r2, #0]
 80054bc:	432b      	orrs	r3, r5
 80054be:	4925      	ldr	r1, [pc, #148]	; (8005554 <HAL_OPAMP_Init+0x108>)
 80054c0:	6815      	ldr	r5, [r2, #0]
 80054c2:	ea43 43c6 	orr.w	r3, r3, r6, lsl #19
 80054c6:	ea43 6300 	orr.w	r3, r3, r0, lsl #24
 80054ca:	7d20      	ldrb	r0, [r4, #20]
 80054cc:	4029      	ands	r1, r5
 80054ce:	2801      	cmp	r0, #1
 80054d0:	ea43 0301 	orr.w	r3, r3, r1
 80054d4:	bf0c      	ite	eq
 80054d6:	f44f 7180 	moveq.w	r1, #256	; 0x100
 80054da:	2100      	movne	r1, #0
 80054dc:	430b      	orrs	r3, r1
 80054de:	6013      	str	r3, [r2, #0]
 80054e0:	6993      	ldr	r3, [r2, #24]
 80054e2:	2b00      	cmp	r3, #0
 80054e4:	db09      	blt.n	80054fa <HAL_OPAMP_Init+0xae>
 80054e6:	e9d4 3506 	ldrd	r3, r5, [r4, #24]
 80054ea:	6a20      	ldr	r0, [r4, #32]
 80054ec:	6991      	ldr	r1, [r2, #24]
 80054ee:	432b      	orrs	r3, r5
 80054f0:	4303      	orrs	r3, r0
 80054f2:	f021 013f 	bic.w	r1, r1, #63	; 0x3f
 80054f6:	430b      	orrs	r3, r1
 80054f8:	6193      	str	r3, [r2, #24]
 80054fa:	f894 303a 	ldrb.w	r3, [r4, #58]	; 0x3a
 80054fe:	f003 00ff 	and.w	r0, r3, #255	; 0xff
 8005502:	bb03      	cbnz	r3, 8005546 <HAL_OPAMP_Init+0xfa>
 8005504:	2301      	movs	r3, #1
 8005506:	f884 303a 	strb.w	r3, [r4, #58]	; 0x3a
 800550a:	b002      	add	sp, #8
 800550c:	bd70      	pop	{r4, r5, r6, pc}
 800550e:	2001      	movs	r0, #1
 8005510:	b002      	add	sp, #8
 8005512:	bd70      	pop	{r4, r5, r6, pc}
 8005514:	6866      	ldr	r6, [r4, #4]
 8005516:	6811      	ldr	r1, [r2, #0]
 8005518:	6920      	ldr	r0, [r4, #16]
 800551a:	6ae5      	ldr	r5, [r4, #44]	; 0x2c
 800551c:	4333      	orrs	r3, r6
 800551e:	4303      	orrs	r3, r0
 8005520:	f021 0110 	bic.w	r1, r1, #16
 8005524:	6a60      	ldr	r0, [r4, #36]	; 0x24
 8005526:	4329      	orrs	r1, r5
 8005528:	6aa5      	ldr	r5, [r4, #40]	; 0x28
 800552a:	6011      	str	r1, [r2, #0]
 800552c:	4303      	orrs	r3, r0
 800552e:	6b20      	ldr	r0, [r4, #48]	; 0x30
 8005530:	6816      	ldr	r6, [r2, #0]
 8005532:	4908      	ldr	r1, [pc, #32]	; (8005554 <HAL_OPAMP_Init+0x108>)
 8005534:	432b      	orrs	r3, r5
 8005536:	6b65      	ldr	r5, [r4, #52]	; 0x34
 8005538:	ea43 43c0 	orr.w	r3, r3, r0, lsl #19
 800553c:	4031      	ands	r1, r6
 800553e:	7d20      	ldrb	r0, [r4, #20]
 8005540:	ea43 6305 	orr.w	r3, r3, r5, lsl #24
 8005544:	e7c3      	b.n	80054ce <HAL_OPAMP_Init+0x82>
 8005546:	2000      	movs	r0, #0
 8005548:	b002      	add	sp, #8
 800554a:	bd70      	pop	{r4, r5, r6, pc}
 800554c:	2001      	movs	r0, #1
 800554e:	4770      	bx	lr
 8005550:	40021000 	.word	0x40021000
 8005554:	e0003e11 	.word	0xe0003e11

08005558 <HAL_PWREx_ControlVoltageScaling>:
 8005558:	4a3b      	ldr	r2, [pc, #236]	; (8005648 <HAL_PWREx_ControlVoltageScaling+0xf0>)
 800555a:	b410      	push	{r4}
 800555c:	6813      	ldr	r3, [r2, #0]
 800555e:	b968      	cbnz	r0, 800557c <HAL_PWREx_ControlVoltageScaling+0x24>
 8005560:	f403 63c0 	and.w	r3, r3, #1536	; 0x600
 8005564:	f5b3 6f80 	cmp.w	r3, #1024	; 0x400
 8005568:	d014      	beq.n	8005594 <HAL_PWREx_ControlVoltageScaling+0x3c>
 800556a:	f8d2 3080 	ldr.w	r3, [r2, #128]	; 0x80
 800556e:	f423 7380 	bic.w	r3, r3, #256	; 0x100
 8005572:	f8c2 3080 	str.w	r3, [r2, #128]	; 0x80
 8005576:	f85d 4b04 	ldr.w	r4, [sp], #4
 800557a:	4770      	bx	lr
 800557c:	f5b0 7f00 	cmp.w	r0, #512	; 0x200
 8005580:	d02f      	beq.n	80055e2 <HAL_PWREx_ControlVoltageScaling+0x8a>
 8005582:	f423 63c0 	bic.w	r3, r3, #1536	; 0x600
 8005586:	f443 6380 	orr.w	r3, r3, #1024	; 0x400
 800558a:	6013      	str	r3, [r2, #0]
 800558c:	2000      	movs	r0, #0
 800558e:	f85d 4b04 	ldr.w	r4, [sp], #4
 8005592:	4770      	bx	lr
 8005594:	f8d2 1080 	ldr.w	r1, [r2, #128]	; 0x80
 8005598:	4b2c      	ldr	r3, [pc, #176]	; (800564c <HAL_PWREx_ControlVoltageScaling+0xf4>)
 800559a:	482d      	ldr	r0, [pc, #180]	; (8005650 <HAL_PWREx_ControlVoltageScaling+0xf8>)
 800559c:	f421 7180 	bic.w	r1, r1, #256	; 0x100
 80055a0:	f8c2 1080 	str.w	r1, [r2, #128]	; 0x80
 80055a4:	6811      	ldr	r1, [r2, #0]
 80055a6:	f421 61c0 	bic.w	r1, r1, #1536	; 0x600
 80055aa:	f441 7100 	orr.w	r1, r1, #512	; 0x200
 80055ae:	6011      	str	r1, [r2, #0]
 80055b0:	681c      	ldr	r4, [r3, #0]
 80055b2:	6951      	ldr	r1, [r2, #20]
 80055b4:	2332      	movs	r3, #50	; 0x32
 80055b6:	fb03 f304 	mul.w	r3, r3, r4
 80055ba:	fba0 0303 	umull	r0, r3, r0, r3
 80055be:	0c9b      	lsrs	r3, r3, #18
 80055c0:	0548      	lsls	r0, r1, #21
 80055c2:	f103 0301 	add.w	r3, r3, #1
 80055c6:	d506      	bpl.n	80055d6 <HAL_PWREx_ControlVoltageScaling+0x7e>
 80055c8:	e000      	b.n	80055cc <HAL_PWREx_ControlVoltageScaling+0x74>
 80055ca:	b123      	cbz	r3, 80055d6 <HAL_PWREx_ControlVoltageScaling+0x7e>
 80055cc:	6951      	ldr	r1, [r2, #20]
 80055ce:	0549      	lsls	r1, r1, #21
 80055d0:	f103 33ff 	add.w	r3, r3, #4294967295
 80055d4:	d4f9      	bmi.n	80055ca <HAL_PWREx_ControlVoltageScaling+0x72>
 80055d6:	4b1c      	ldr	r3, [pc, #112]	; (8005648 <HAL_PWREx_ControlVoltageScaling+0xf0>)
 80055d8:	695b      	ldr	r3, [r3, #20]
 80055da:	055c      	lsls	r4, r3, #21
 80055dc:	d5d6      	bpl.n	800558c <HAL_PWREx_ControlVoltageScaling+0x34>
 80055de:	2003      	movs	r0, #3
 80055e0:	e7c9      	b.n	8005576 <HAL_PWREx_ControlVoltageScaling+0x1e>
 80055e2:	f403 63c0 	and.w	r3, r3, #1536	; 0x600
 80055e6:	f5b3 6f80 	cmp.w	r3, #1024	; 0x400
 80055ea:	d009      	beq.n	8005600 <HAL_PWREx_ControlVoltageScaling+0xa8>
 80055ec:	f8d2 3080 	ldr.w	r3, [r2, #128]	; 0x80
 80055f0:	f85d 4b04 	ldr.w	r4, [sp], #4
 80055f4:	f443 7380 	orr.w	r3, r3, #256	; 0x100
 80055f8:	2000      	movs	r0, #0
 80055fa:	f8c2 3080 	str.w	r3, [r2, #128]	; 0x80
 80055fe:	4770      	bx	lr
 8005600:	f8d2 1080 	ldr.w	r1, [r2, #128]	; 0x80
 8005604:	4b11      	ldr	r3, [pc, #68]	; (800564c <HAL_PWREx_ControlVoltageScaling+0xf4>)
 8005606:	4812      	ldr	r0, [pc, #72]	; (8005650 <HAL_PWREx_ControlVoltageScaling+0xf8>)
 8005608:	f441 7180 	orr.w	r1, r1, #256	; 0x100
 800560c:	f8c2 1080 	str.w	r1, [r2, #128]	; 0x80
 8005610:	6811      	ldr	r1, [r2, #0]
 8005612:	f421 61c0 	bic.w	r1, r1, #1536	; 0x600
 8005616:	f441 7100 	orr.w	r1, r1, #512	; 0x200
 800561a:	6011      	str	r1, [r2, #0]
 800561c:	681c      	ldr	r4, [r3, #0]
 800561e:	6951      	ldr	r1, [r2, #20]
 8005620:	2332      	movs	r3, #50	; 0x32
 8005622:	fb03 f304 	mul.w	r3, r3, r4
 8005626:	fba0 0303 	umull	r0, r3, r0, r3
 800562a:	0c9b      	lsrs	r3, r3, #18
 800562c:	0548      	lsls	r0, r1, #21
 800562e:	f103 0301 	add.w	r3, r3, #1
 8005632:	d5d0      	bpl.n	80055d6 <HAL_PWREx_ControlVoltageScaling+0x7e>
 8005634:	e001      	b.n	800563a <HAL_PWREx_ControlVoltageScaling+0xe2>
 8005636:	2b00      	cmp	r3, #0
 8005638:	d0cd      	beq.n	80055d6 <HAL_PWREx_ControlVoltageScaling+0x7e>
 800563a:	6951      	ldr	r1, [r2, #20]
 800563c:	0549      	lsls	r1, r1, #21
 800563e:	f103 33ff 	add.w	r3, r3, #4294967295
 8005642:	d5c8      	bpl.n	80055d6 <HAL_PWREx_ControlVoltageScaling+0x7e>
 8005644:	e7f7      	b.n	8005636 <HAL_PWREx_ControlVoltageScaling+0xde>
 8005646:	bf00      	nop
 8005648:	40007000 	.word	0x40007000
 800564c:	20000638 	.word	0x20000638
 8005650:	431bde83 	.word	0x431bde83

08005654 <HAL_PWREx_DisableUCPDDeadBattery>:
 8005654:	4a02      	ldr	r2, [pc, #8]	; (8005660 <HAL_PWREx_DisableUCPDDeadBattery+0xc>)
 8005656:	6893      	ldr	r3, [r2, #8]
 8005658:	f443 4380 	orr.w	r3, r3, #16384	; 0x4000
 800565c:	6093      	str	r3, [r2, #8]
 800565e:	4770      	bx	lr
 8005660:	40007000 	.word	0x40007000

08005664 <HAL_RCC_OscConfig>:
 8005664:	2800      	cmp	r0, #0
 8005666:	f000 81c3 	beq.w	80059f0 <HAL_RCC_OscConfig+0x38c>
 800566a:	e92d 41f0 	stmdb	sp!, {r4, r5, r6, r7, r8, lr}
 800566e:	6803      	ldr	r3, [r0, #0]
 8005670:	07d9      	lsls	r1, r3, #31
 8005672:	b082      	sub	sp, #8
 8005674:	4604      	mov	r4, r0
 8005676:	d52d      	bpl.n	80056d4 <HAL_RCC_OscConfig+0x70>
 8005678:	49b5      	ldr	r1, [pc, #724]	; (8005950 <HAL_RCC_OscConfig+0x2ec>)
 800567a:	688a      	ldr	r2, [r1, #8]
 800567c:	68c9      	ldr	r1, [r1, #12]
 800567e:	f002 020c 	and.w	r2, r2, #12
 8005682:	2a0c      	cmp	r2, #12
 8005684:	f000 810a 	beq.w	800589c <HAL_RCC_OscConfig+0x238>
 8005688:	2a08      	cmp	r2, #8
 800568a:	f000 810c 	beq.w	80058a6 <HAL_RCC_OscConfig+0x242>
 800568e:	6863      	ldr	r3, [r4, #4]
 8005690:	f5b3 3f80 	cmp.w	r3, #65536	; 0x10000
 8005694:	f000 8133 	beq.w	80058fe <HAL_RCC_OscConfig+0x29a>
 8005698:	f5b3 2fa0 	cmp.w	r3, #327680	; 0x50000
 800569c:	f000 819b 	beq.w	80059d6 <HAL_RCC_OscConfig+0x372>
 80056a0:	4dab      	ldr	r5, [pc, #684]	; (8005950 <HAL_RCC_OscConfig+0x2ec>)
 80056a2:	682a      	ldr	r2, [r5, #0]
 80056a4:	f422 3280 	bic.w	r2, r2, #65536	; 0x10000
 80056a8:	602a      	str	r2, [r5, #0]
 80056aa:	682a      	ldr	r2, [r5, #0]
 80056ac:	f422 2280 	bic.w	r2, r2, #262144	; 0x40000
 80056b0:	602a      	str	r2, [r5, #0]
 80056b2:	2b00      	cmp	r3, #0
 80056b4:	f040 8128 	bne.w	8005908 <HAL_RCC_OscConfig+0x2a4>
 80056b8:	f7fe fbaa 	bl	8003e10 <HAL_GetTick>
 80056bc:	4606      	mov	r6, r0
 80056be:	e005      	b.n	80056cc <HAL_RCC_OscConfig+0x68>
 80056c0:	f7fe fba6 	bl	8003e10 <HAL_GetTick>
 80056c4:	1b80      	subs	r0, r0, r6
 80056c6:	2864      	cmp	r0, #100	; 0x64
 80056c8:	f200 813b 	bhi.w	8005942 <HAL_RCC_OscConfig+0x2de>
 80056cc:	682b      	ldr	r3, [r5, #0]
 80056ce:	039f      	lsls	r7, r3, #14
 80056d0:	d4f6      	bmi.n	80056c0 <HAL_RCC_OscConfig+0x5c>
 80056d2:	6823      	ldr	r3, [r4, #0]
 80056d4:	079e      	lsls	r6, r3, #30
 80056d6:	d528      	bpl.n	800572a <HAL_RCC_OscConfig+0xc6>
 80056d8:	4a9d      	ldr	r2, [pc, #628]	; (8005950 <HAL_RCC_OscConfig+0x2ec>)
 80056da:	6893      	ldr	r3, [r2, #8]
 80056dc:	68d2      	ldr	r2, [r2, #12]
 80056de:	f003 030c 	and.w	r3, r3, #12
 80056e2:	2b0c      	cmp	r3, #12
 80056e4:	f000 80ec 	beq.w	80058c0 <HAL_RCC_OscConfig+0x25c>
 80056e8:	2b04      	cmp	r3, #4
 80056ea:	f000 80ee 	beq.w	80058ca <HAL_RCC_OscConfig+0x266>
 80056ee:	68e3      	ldr	r3, [r4, #12]
 80056f0:	4d97      	ldr	r5, [pc, #604]	; (8005950 <HAL_RCC_OscConfig+0x2ec>)
 80056f2:	2b00      	cmp	r3, #0
 80056f4:	f000 8116 	beq.w	8005924 <HAL_RCC_OscConfig+0x2c0>
 80056f8:	682b      	ldr	r3, [r5, #0]
 80056fa:	f443 7380 	orr.w	r3, r3, #256	; 0x100
 80056fe:	602b      	str	r3, [r5, #0]
 8005700:	f7fe fb86 	bl	8003e10 <HAL_GetTick>
 8005704:	4606      	mov	r6, r0
 8005706:	e005      	b.n	8005714 <HAL_RCC_OscConfig+0xb0>
 8005708:	f7fe fb82 	bl	8003e10 <HAL_GetTick>
 800570c:	1b80      	subs	r0, r0, r6
 800570e:	2802      	cmp	r0, #2
 8005710:	f200 8117 	bhi.w	8005942 <HAL_RCC_OscConfig+0x2de>
 8005714:	682b      	ldr	r3, [r5, #0]
 8005716:	0558      	lsls	r0, r3, #21
 8005718:	d5f6      	bpl.n	8005708 <HAL_RCC_OscConfig+0xa4>
 800571a:	686b      	ldr	r3, [r5, #4]
 800571c:	6922      	ldr	r2, [r4, #16]
 800571e:	f023 43fe 	bic.w	r3, r3, #2130706432	; 0x7f000000
 8005722:	ea43 6302 	orr.w	r3, r3, r2, lsl #24
 8005726:	606b      	str	r3, [r5, #4]
 8005728:	6823      	ldr	r3, [r4, #0]
 800572a:	071a      	lsls	r2, r3, #28
 800572c:	d519      	bpl.n	8005762 <HAL_RCC_OscConfig+0xfe>
 800572e:	6963      	ldr	r3, [r4, #20]
 8005730:	4d87      	ldr	r5, [pc, #540]	; (8005950 <HAL_RCC_OscConfig+0x2ec>)
 8005732:	2b00      	cmp	r3, #0
 8005734:	f000 809e 	beq.w	8005874 <HAL_RCC_OscConfig+0x210>
 8005738:	f8d5 3094 	ldr.w	r3, [r5, #148]	; 0x94
 800573c:	f043 0301 	orr.w	r3, r3, #1
 8005740:	f8c5 3094 	str.w	r3, [r5, #148]	; 0x94
 8005744:	f7fe fb64 	bl	8003e10 <HAL_GetTick>
 8005748:	4606      	mov	r6, r0
 800574a:	e005      	b.n	8005758 <HAL_RCC_OscConfig+0xf4>
 800574c:	f7fe fb60 	bl	8003e10 <HAL_GetTick>
 8005750:	1b80      	subs	r0, r0, r6
 8005752:	2802      	cmp	r0, #2
 8005754:	f200 80f5 	bhi.w	8005942 <HAL_RCC_OscConfig+0x2de>
 8005758:	f8d5 3094 	ldr.w	r3, [r5, #148]	; 0x94
 800575c:	079f      	lsls	r7, r3, #30
 800575e:	d5f5      	bpl.n	800574c <HAL_RCC_OscConfig+0xe8>
 8005760:	6823      	ldr	r3, [r4, #0]
 8005762:	0759      	lsls	r1, r3, #29
 8005764:	d541      	bpl.n	80057ea <HAL_RCC_OscConfig+0x186>
 8005766:	4b7a      	ldr	r3, [pc, #488]	; (8005950 <HAL_RCC_OscConfig+0x2ec>)
 8005768:	6d9a      	ldr	r2, [r3, #88]	; 0x58
 800576a:	00d2      	lsls	r2, r2, #3
 800576c:	f100 80ed 	bmi.w	800594a <HAL_RCC_OscConfig+0x2e6>
 8005770:	6d9a      	ldr	r2, [r3, #88]	; 0x58
 8005772:	f042 5280 	orr.w	r2, r2, #268435456	; 0x10000000
 8005776:	659a      	str	r2, [r3, #88]	; 0x58
 8005778:	6d9b      	ldr	r3, [r3, #88]	; 0x58
 800577a:	f003 5380 	and.w	r3, r3, #268435456	; 0x10000000
 800577e:	9301      	str	r3, [sp, #4]
 8005780:	9b01      	ldr	r3, [sp, #4]
 8005782:	2501      	movs	r5, #1
 8005784:	4e73      	ldr	r6, [pc, #460]	; (8005954 <HAL_RCC_OscConfig+0x2f0>)
 8005786:	6833      	ldr	r3, [r6, #0]
 8005788:	05df      	lsls	r7, r3, #23
 800578a:	f140 8113 	bpl.w	80059b4 <HAL_RCC_OscConfig+0x350>
 800578e:	68a3      	ldr	r3, [r4, #8]
 8005790:	2b01      	cmp	r3, #1
 8005792:	f000 80e3 	beq.w	800595c <HAL_RCC_OscConfig+0x2f8>
 8005796:	2b05      	cmp	r3, #5
 8005798:	f000 8169 	beq.w	8005a6e <HAL_RCC_OscConfig+0x40a>
 800579c:	4e6c      	ldr	r6, [pc, #432]	; (8005950 <HAL_RCC_OscConfig+0x2ec>)
 800579e:	f8d6 2090 	ldr.w	r2, [r6, #144]	; 0x90
 80057a2:	f022 0201 	bic.w	r2, r2, #1
 80057a6:	f8c6 2090 	str.w	r2, [r6, #144]	; 0x90
 80057aa:	f8d6 2090 	ldr.w	r2, [r6, #144]	; 0x90
 80057ae:	f022 0204 	bic.w	r2, r2, #4
 80057b2:	f8c6 2090 	str.w	r2, [r6, #144]	; 0x90
 80057b6:	2b00      	cmp	r3, #0
 80057b8:	f040 80d7 	bne.w	800596a <HAL_RCC_OscConfig+0x306>
 80057bc:	f7fe fb28 	bl	8003e10 <HAL_GetTick>
 80057c0:	f241 3888 	movw	r8, #5000	; 0x1388
 80057c4:	4607      	mov	r7, r0
 80057c6:	e005      	b.n	80057d4 <HAL_RCC_OscConfig+0x170>
 80057c8:	f7fe fb22 	bl	8003e10 <HAL_GetTick>
 80057cc:	1bc0      	subs	r0, r0, r7
 80057ce:	4540      	cmp	r0, r8
 80057d0:	f200 80b7 	bhi.w	8005942 <HAL_RCC_OscConfig+0x2de>
 80057d4:	f8d6 3090 	ldr.w	r3, [r6, #144]	; 0x90
 80057d8:	079a      	lsls	r2, r3, #30
 80057da:	d4f5      	bmi.n	80057c8 <HAL_RCC_OscConfig+0x164>
 80057dc:	b125      	cbz	r5, 80057e8 <HAL_RCC_OscConfig+0x184>
 80057de:	4a5c      	ldr	r2, [pc, #368]	; (8005950 <HAL_RCC_OscConfig+0x2ec>)
 80057e0:	6d93      	ldr	r3, [r2, #88]	; 0x58
 80057e2:	f023 5380 	bic.w	r3, r3, #268435456	; 0x10000000
 80057e6:	6593      	str	r3, [r2, #88]	; 0x58
 80057e8:	6823      	ldr	r3, [r4, #0]
 80057ea:	069b      	lsls	r3, r3, #26
 80057ec:	d518      	bpl.n	8005820 <HAL_RCC_OscConfig+0x1bc>
 80057ee:	69a3      	ldr	r3, [r4, #24]
 80057f0:	4d57      	ldr	r5, [pc, #348]	; (8005950 <HAL_RCC_OscConfig+0x2ec>)
 80057f2:	2b00      	cmp	r3, #0
 80057f4:	f000 80ca 	beq.w	800598c <HAL_RCC_OscConfig+0x328>
 80057f8:	f8d5 3098 	ldr.w	r3, [r5, #152]	; 0x98
 80057fc:	f043 0301 	orr.w	r3, r3, #1
 8005800:	f8c5 3098 	str.w	r3, [r5, #152]	; 0x98
 8005804:	f7fe fb04 	bl	8003e10 <HAL_GetTick>
 8005808:	4606      	mov	r6, r0
 800580a:	e005      	b.n	8005818 <HAL_RCC_OscConfig+0x1b4>
 800580c:	f7fe fb00 	bl	8003e10 <HAL_GetTick>
 8005810:	1b80      	subs	r0, r0, r6
 8005812:	2802      	cmp	r0, #2
 8005814:	f200 8095 	bhi.w	8005942 <HAL_RCC_OscConfig+0x2de>
 8005818:	f8d5 3098 	ldr.w	r3, [r5, #152]	; 0x98
 800581c:	079f      	lsls	r7, r3, #30
 800581e:	d5f5      	bpl.n	800580c <HAL_RCC_OscConfig+0x1a8>
 8005820:	69e0      	ldr	r0, [r4, #28]
 8005822:	b318      	cbz	r0, 800586c <HAL_RCC_OscConfig+0x208>
 8005824:	4d4a      	ldr	r5, [pc, #296]	; (8005950 <HAL_RCC_OscConfig+0x2ec>)
 8005826:	68ab      	ldr	r3, [r5, #8]
 8005828:	f003 030c 	and.w	r3, r3, #12
 800582c:	2b0c      	cmp	r3, #12
 800582e:	f000 812c 	beq.w	8005a8a <HAL_RCC_OscConfig+0x426>
 8005832:	682b      	ldr	r3, [r5, #0]
 8005834:	2802      	cmp	r0, #2
 8005836:	f023 7380 	bic.w	r3, r3, #16777216	; 0x1000000
 800583a:	602b      	str	r3, [r5, #0]
 800583c:	f000 80da 	beq.w	80059f4 <HAL_RCC_OscConfig+0x390>
 8005840:	68eb      	ldr	r3, [r5, #12]
 8005842:	f023 0303 	bic.w	r3, r3, #3
 8005846:	60eb      	str	r3, [r5, #12]
 8005848:	68eb      	ldr	r3, [r5, #12]
 800584a:	f023 7388 	bic.w	r3, r3, #17825792	; 0x1100000
 800584e:	f423 3380 	bic.w	r3, r3, #65536	; 0x10000
 8005852:	60eb      	str	r3, [r5, #12]
 8005854:	f7fe fadc 	bl	8003e10 <HAL_GetTick>
 8005858:	4604      	mov	r4, r0
 800585a:	e004      	b.n	8005866 <HAL_RCC_OscConfig+0x202>
 800585c:	f7fe fad8 	bl	8003e10 <HAL_GetTick>
 8005860:	1b00      	subs	r0, r0, r4
 8005862:	2802      	cmp	r0, #2
 8005864:	d86d      	bhi.n	8005942 <HAL_RCC_OscConfig+0x2de>
 8005866:	682b      	ldr	r3, [r5, #0]
 8005868:	019b      	lsls	r3, r3, #6
 800586a:	d4f7      	bmi.n	800585c <HAL_RCC_OscConfig+0x1f8>
 800586c:	2000      	movs	r0, #0
 800586e:	b002      	add	sp, #8
 8005870:	e8bd 81f0 	ldmia.w	sp!, {r4, r5, r6, r7, r8, pc}
 8005874:	f8d5 3094 	ldr.w	r3, [r5, #148]	; 0x94
 8005878:	f023 0301 	bic.w	r3, r3, #1
 800587c:	f8c5 3094 	str.w	r3, [r5, #148]	; 0x94
 8005880:	f7fe fac6 	bl	8003e10 <HAL_GetTick>
 8005884:	4606      	mov	r6, r0
 8005886:	e004      	b.n	8005892 <HAL_RCC_OscConfig+0x22e>
 8005888:	f7fe fac2 	bl	8003e10 <HAL_GetTick>
 800588c:	1b80      	subs	r0, r0, r6
 800588e:	2802      	cmp	r0, #2
 8005890:	d857      	bhi.n	8005942 <HAL_RCC_OscConfig+0x2de>
 8005892:	f8d5 3094 	ldr.w	r3, [r5, #148]	; 0x94
 8005896:	0798      	lsls	r0, r3, #30
 8005898:	d4f6      	bmi.n	8005888 <HAL_RCC_OscConfig+0x224>
 800589a:	e761      	b.n	8005760 <HAL_RCC_OscConfig+0xfc>
 800589c:	f001 0103 	and.w	r1, r1, #3
 80058a0:	2903      	cmp	r1, #3
 80058a2:	f47f aef4 	bne.w	800568e <HAL_RCC_OscConfig+0x2a>
 80058a6:	4a2a      	ldr	r2, [pc, #168]	; (8005950 <HAL_RCC_OscConfig+0x2ec>)
 80058a8:	6812      	ldr	r2, [r2, #0]
 80058aa:	0392      	lsls	r2, r2, #14
 80058ac:	f57f af12 	bpl.w	80056d4 <HAL_RCC_OscConfig+0x70>
 80058b0:	6862      	ldr	r2, [r4, #4]
 80058b2:	2a00      	cmp	r2, #0
 80058b4:	f47f af0e 	bne.w	80056d4 <HAL_RCC_OscConfig+0x70>
 80058b8:	2001      	movs	r0, #1
 80058ba:	b002      	add	sp, #8
 80058bc:	e8bd 81f0 	ldmia.w	sp!, {r4, r5, r6, r7, r8, pc}
 80058c0:	f002 0203 	and.w	r2, r2, #3
 80058c4:	2a02      	cmp	r2, #2
 80058c6:	f47f af12 	bne.w	80056ee <HAL_RCC_OscConfig+0x8a>
 80058ca:	4b21      	ldr	r3, [pc, #132]	; (8005950 <HAL_RCC_OscConfig+0x2ec>)
 80058cc:	681b      	ldr	r3, [r3, #0]
 80058ce:	055d      	lsls	r5, r3, #21
 80058d0:	d502      	bpl.n	80058d8 <HAL_RCC_OscConfig+0x274>
 80058d2:	68e3      	ldr	r3, [r4, #12]
 80058d4:	2b00      	cmp	r3, #0
 80058d6:	d0ef      	beq.n	80058b8 <HAL_RCC_OscConfig+0x254>
 80058d8:	4a1d      	ldr	r2, [pc, #116]	; (8005950 <HAL_RCC_OscConfig+0x2ec>)
 80058da:	6920      	ldr	r0, [r4, #16]
 80058dc:	6853      	ldr	r3, [r2, #4]
 80058de:	491e      	ldr	r1, [pc, #120]	; (8005958 <HAL_RCC_OscConfig+0x2f4>)
 80058e0:	f023 43fe 	bic.w	r3, r3, #2130706432	; 0x7f000000
 80058e4:	ea43 6300 	orr.w	r3, r3, r0, lsl #24
 80058e8:	6053      	str	r3, [r2, #4]
 80058ea:	6808      	ldr	r0, [r1, #0]
 80058ec:	f7fe fa4e 	bl	8003d8c <HAL_InitTick>
 80058f0:	2800      	cmp	r0, #0
 80058f2:	d1e1      	bne.n	80058b8 <HAL_RCC_OscConfig+0x254>
 80058f4:	6823      	ldr	r3, [r4, #0]
 80058f6:	071a      	lsls	r2, r3, #28
 80058f8:	f57f af33 	bpl.w	8005762 <HAL_RCC_OscConfig+0xfe>
 80058fc:	e717      	b.n	800572e <HAL_RCC_OscConfig+0xca>
 80058fe:	4a14      	ldr	r2, [pc, #80]	; (8005950 <HAL_RCC_OscConfig+0x2ec>)
 8005900:	6813      	ldr	r3, [r2, #0]
 8005902:	f443 3380 	orr.w	r3, r3, #65536	; 0x10000
 8005906:	6013      	str	r3, [r2, #0]
 8005908:	f7fe fa82 	bl	8003e10 <HAL_GetTick>
 800590c:	4e10      	ldr	r6, [pc, #64]	; (8005950 <HAL_RCC_OscConfig+0x2ec>)
 800590e:	4605      	mov	r5, r0
 8005910:	e004      	b.n	800591c <HAL_RCC_OscConfig+0x2b8>
 8005912:	f7fe fa7d 	bl	8003e10 <HAL_GetTick>
 8005916:	1b40      	subs	r0, r0, r5
 8005918:	2864      	cmp	r0, #100	; 0x64
 800591a:	d812      	bhi.n	8005942 <HAL_RCC_OscConfig+0x2de>
 800591c:	6833      	ldr	r3, [r6, #0]
 800591e:	039b      	lsls	r3, r3, #14
 8005920:	d5f7      	bpl.n	8005912 <HAL_RCC_OscConfig+0x2ae>
 8005922:	e6d6      	b.n	80056d2 <HAL_RCC_OscConfig+0x6e>
 8005924:	682b      	ldr	r3, [r5, #0]
 8005926:	f423 7380 	bic.w	r3, r3, #256	; 0x100
 800592a:	602b      	str	r3, [r5, #0]
 800592c:	f7fe fa70 	bl	8003e10 <HAL_GetTick>
 8005930:	4606      	mov	r6, r0
 8005932:	682b      	ldr	r3, [r5, #0]
 8005934:	0559      	lsls	r1, r3, #21
 8005936:	d5dd      	bpl.n	80058f4 <HAL_RCC_OscConfig+0x290>
 8005938:	f7fe fa6a 	bl	8003e10 <HAL_GetTick>
 800593c:	1b80      	subs	r0, r0, r6
 800593e:	2802      	cmp	r0, #2
 8005940:	d9f7      	bls.n	8005932 <HAL_RCC_OscConfig+0x2ce>
 8005942:	2003      	movs	r0, #3
 8005944:	b002      	add	sp, #8
 8005946:	e8bd 81f0 	ldmia.w	sp!, {r4, r5, r6, r7, r8, pc}
 800594a:	2500      	movs	r5, #0
 800594c:	e71a      	b.n	8005784 <HAL_RCC_OscConfig+0x120>
 800594e:	bf00      	nop
 8005950:	40021000 	.word	0x40021000
 8005954:	40007000 	.word	0x40007000
 8005958:	20000640 	.word	0x20000640
 800595c:	4a65      	ldr	r2, [pc, #404]	; (8005af4 <HAL_RCC_OscConfig+0x490>)
 800595e:	f8d2 3090 	ldr.w	r3, [r2, #144]	; 0x90
 8005962:	f043 0301 	orr.w	r3, r3, #1
 8005966:	f8c2 3090 	str.w	r3, [r2, #144]	; 0x90
 800596a:	f7fe fa51 	bl	8003e10 <HAL_GetTick>
 800596e:	4f61      	ldr	r7, [pc, #388]	; (8005af4 <HAL_RCC_OscConfig+0x490>)
 8005970:	4606      	mov	r6, r0
 8005972:	f241 3888 	movw	r8, #5000	; 0x1388
 8005976:	e004      	b.n	8005982 <HAL_RCC_OscConfig+0x31e>
 8005978:	f7fe fa4a 	bl	8003e10 <HAL_GetTick>
 800597c:	1b80      	subs	r0, r0, r6
 800597e:	4540      	cmp	r0, r8
 8005980:	d8df      	bhi.n	8005942 <HAL_RCC_OscConfig+0x2de>
 8005982:	f8d7 3090 	ldr.w	r3, [r7, #144]	; 0x90
 8005986:	0799      	lsls	r1, r3, #30
 8005988:	d5f6      	bpl.n	8005978 <HAL_RCC_OscConfig+0x314>
 800598a:	e727      	b.n	80057dc <HAL_RCC_OscConfig+0x178>
 800598c:	f8d5 3098 	ldr.w	r3, [r5, #152]	; 0x98
 8005990:	f023 0301 	bic.w	r3, r3, #1
 8005994:	f8c5 3098 	str.w	r3, [r5, #152]	; 0x98
 8005998:	f7fe fa3a 	bl	8003e10 <HAL_GetTick>
 800599c:	4606      	mov	r6, r0
 800599e:	e004      	b.n	80059aa <HAL_RCC_OscConfig+0x346>
 80059a0:	f7fe fa36 	bl	8003e10 <HAL_GetTick>
 80059a4:	1b80      	subs	r0, r0, r6
 80059a6:	2802      	cmp	r0, #2
 80059a8:	d8cb      	bhi.n	8005942 <HAL_RCC_OscConfig+0x2de>
 80059aa:	f8d5 3098 	ldr.w	r3, [r5, #152]	; 0x98
 80059ae:	0798      	lsls	r0, r3, #30
 80059b0:	d4f6      	bmi.n	80059a0 <HAL_RCC_OscConfig+0x33c>
 80059b2:	e735      	b.n	8005820 <HAL_RCC_OscConfig+0x1bc>
 80059b4:	6833      	ldr	r3, [r6, #0]
 80059b6:	f443 7380 	orr.w	r3, r3, #256	; 0x100
 80059ba:	6033      	str	r3, [r6, #0]
 80059bc:	f7fe fa28 	bl	8003e10 <HAL_GetTick>
 80059c0:	4607      	mov	r7, r0
 80059c2:	6833      	ldr	r3, [r6, #0]
 80059c4:	05d8      	lsls	r0, r3, #23
 80059c6:	f53f aee2 	bmi.w	800578e <HAL_RCC_OscConfig+0x12a>
 80059ca:	f7fe fa21 	bl	8003e10 <HAL_GetTick>
 80059ce:	1bc0      	subs	r0, r0, r7
 80059d0:	2802      	cmp	r0, #2
 80059d2:	d9f6      	bls.n	80059c2 <HAL_RCC_OscConfig+0x35e>
 80059d4:	e7b5      	b.n	8005942 <HAL_RCC_OscConfig+0x2de>
 80059d6:	f103 4380 	add.w	r3, r3, #1073741824	; 0x40000000
 80059da:	f5a3 333c 	sub.w	r3, r3, #192512	; 0x2f000
 80059de:	681a      	ldr	r2, [r3, #0]
 80059e0:	f442 2280 	orr.w	r2, r2, #262144	; 0x40000
 80059e4:	601a      	str	r2, [r3, #0]
 80059e6:	681a      	ldr	r2, [r3, #0]
 80059e8:	f442 3280 	orr.w	r2, r2, #65536	; 0x10000
 80059ec:	601a      	str	r2, [r3, #0]
 80059ee:	e78b      	b.n	8005908 <HAL_RCC_OscConfig+0x2a4>
 80059f0:	2001      	movs	r0, #1
 80059f2:	4770      	bx	lr
 80059f4:	f7fe fa0c 	bl	8003e10 <HAL_GetTick>
 80059f8:	4606      	mov	r6, r0
 80059fa:	e004      	b.n	8005a06 <HAL_RCC_OscConfig+0x3a2>
 80059fc:	f7fe fa08 	bl	8003e10 <HAL_GetTick>
 8005a00:	1b80      	subs	r0, r0, r6
 8005a02:	2802      	cmp	r0, #2
 8005a04:	d89d      	bhi.n	8005942 <HAL_RCC_OscConfig+0x2de>
 8005a06:	682b      	ldr	r3, [r5, #0]
 8005a08:	0199      	lsls	r1, r3, #6
 8005a0a:	d4f7      	bmi.n	80059fc <HAL_RCC_OscConfig+0x398>
 8005a0c:	68e9      	ldr	r1, [r5, #12]
 8005a0e:	4b3a      	ldr	r3, [pc, #232]	; (8005af8 <HAL_RCC_OscConfig+0x494>)
 8005a10:	6a22      	ldr	r2, [r4, #32]
 8005a12:	6aa7      	ldr	r7, [r4, #40]	; 0x28
 8005a14:	6ae6      	ldr	r6, [r4, #44]	; 0x2c
 8005a16:	6a60      	ldr	r0, [r4, #36]	; 0x24
 8005a18:	400b      	ands	r3, r1
 8005a1a:	4313      	orrs	r3, r2
 8005a1c:	e9d4 120c 	ldrd	r1, r2, [r4, #48]	; 0x30
 8005a20:	ea43 2307 	orr.w	r3, r3, r7, lsl #8
 8005a24:	ea43 63c6 	orr.w	r3, r3, r6, lsl #27
 8005a28:	3801      	subs	r0, #1
 8005a2a:	0849      	lsrs	r1, r1, #1
 8005a2c:	ea43 1300 	orr.w	r3, r3, r0, lsl #4
 8005a30:	3901      	subs	r1, #1
 8005a32:	0852      	lsrs	r2, r2, #1
 8005a34:	ea43 5341 	orr.w	r3, r3, r1, lsl #21
 8005a38:	3a01      	subs	r2, #1
 8005a3a:	ea43 6342 	orr.w	r3, r3, r2, lsl #25
 8005a3e:	60eb      	str	r3, [r5, #12]
 8005a40:	682b      	ldr	r3, [r5, #0]
 8005a42:	4e2c      	ldr	r6, [pc, #176]	; (8005af4 <HAL_RCC_OscConfig+0x490>)
 8005a44:	f043 7380 	orr.w	r3, r3, #16777216	; 0x1000000
 8005a48:	602b      	str	r3, [r5, #0]
 8005a4a:	68eb      	ldr	r3, [r5, #12]
 8005a4c:	f043 7380 	orr.w	r3, r3, #16777216	; 0x1000000
 8005a50:	60eb      	str	r3, [r5, #12]
 8005a52:	f7fe f9dd 	bl	8003e10 <HAL_GetTick>
 8005a56:	4604      	mov	r4, r0
 8005a58:	e005      	b.n	8005a66 <HAL_RCC_OscConfig+0x402>
 8005a5a:	f7fe f9d9 	bl	8003e10 <HAL_GetTick>
 8005a5e:	1b00      	subs	r0, r0, r4
 8005a60:	2802      	cmp	r0, #2
 8005a62:	f63f af6e 	bhi.w	8005942 <HAL_RCC_OscConfig+0x2de>
 8005a66:	6833      	ldr	r3, [r6, #0]
 8005a68:	019a      	lsls	r2, r3, #6
 8005a6a:	d5f6      	bpl.n	8005a5a <HAL_RCC_OscConfig+0x3f6>
 8005a6c:	e6fe      	b.n	800586c <HAL_RCC_OscConfig+0x208>
 8005a6e:	4b21      	ldr	r3, [pc, #132]	; (8005af4 <HAL_RCC_OscConfig+0x490>)
 8005a70:	f8d3 2090 	ldr.w	r2, [r3, #144]	; 0x90
 8005a74:	f042 0204 	orr.w	r2, r2, #4
 8005a78:	f8c3 2090 	str.w	r2, [r3, #144]	; 0x90
 8005a7c:	f8d3 2090 	ldr.w	r2, [r3, #144]	; 0x90
 8005a80:	f042 0201 	orr.w	r2, r2, #1
 8005a84:	f8c3 2090 	str.w	r2, [r3, #144]	; 0x90
 8005a88:	e76f      	b.n	800596a <HAL_RCC_OscConfig+0x306>
 8005a8a:	2801      	cmp	r0, #1
 8005a8c:	f43f aeef 	beq.w	800586e <HAL_RCC_OscConfig+0x20a>
 8005a90:	68eb      	ldr	r3, [r5, #12]
 8005a92:	6a22      	ldr	r2, [r4, #32]
 8005a94:	f003 0103 	and.w	r1, r3, #3
 8005a98:	4291      	cmp	r1, r2
 8005a9a:	f47f af0d 	bne.w	80058b8 <HAL_RCC_OscConfig+0x254>
 8005a9e:	6a61      	ldr	r1, [r4, #36]	; 0x24
 8005aa0:	f003 02f0 	and.w	r2, r3, #240	; 0xf0
 8005aa4:	3901      	subs	r1, #1
 8005aa6:	ebb2 1f01 	cmp.w	r2, r1, lsl #4
 8005aaa:	f47f af05 	bne.w	80058b8 <HAL_RCC_OscConfig+0x254>
 8005aae:	6aa1      	ldr	r1, [r4, #40]	; 0x28
 8005ab0:	f403 42fe 	and.w	r2, r3, #32512	; 0x7f00
 8005ab4:	ebb2 2f01 	cmp.w	r2, r1, lsl #8
 8005ab8:	f47f aefe 	bne.w	80058b8 <HAL_RCC_OscConfig+0x254>
 8005abc:	6ae1      	ldr	r1, [r4, #44]	; 0x2c
 8005abe:	f003 4278 	and.w	r2, r3, #4160749568	; 0xf8000000
 8005ac2:	ebb2 6fc1 	cmp.w	r2, r1, lsl #27
 8005ac6:	f47f aef7 	bne.w	80058b8 <HAL_RCC_OscConfig+0x254>
 8005aca:	6b22      	ldr	r2, [r4, #48]	; 0x30
 8005acc:	0852      	lsrs	r2, r2, #1
 8005ace:	3a01      	subs	r2, #1
 8005ad0:	f403 01c0 	and.w	r1, r3, #6291456	; 0x600000
 8005ad4:	ebb1 5f42 	cmp.w	r1, r2, lsl #21
 8005ad8:	f47f aeee 	bne.w	80058b8 <HAL_RCC_OscConfig+0x254>
 8005adc:	6b62      	ldr	r2, [r4, #52]	; 0x34
 8005ade:	0852      	lsrs	r2, r2, #1
 8005ae0:	3a01      	subs	r2, #1
 8005ae2:	f003 63c0 	and.w	r3, r3, #100663296	; 0x6000000
 8005ae6:	ebb3 6f42 	cmp.w	r3, r2, lsl #25
 8005aea:	bf14      	ite	ne
 8005aec:	2001      	movne	r0, #1
 8005aee:	2000      	moveq	r0, #0
 8005af0:	e6bd      	b.n	800586e <HAL_RCC_OscConfig+0x20a>
 8005af2:	bf00      	nop
 8005af4:	40021000 	.word	0x40021000
 8005af8:	019f800c 	.word	0x019f800c

08005afc <HAL_RCC_GetSysClockFreq>:
 8005afc:	4b18      	ldr	r3, [pc, #96]	; (8005b60 <HAL_RCC_GetSysClockFreq+0x64>)
 8005afe:	689a      	ldr	r2, [r3, #8]
 8005b00:	f002 020c 	and.w	r2, r2, #12
 8005b04:	2a04      	cmp	r2, #4
 8005b06:	d027      	beq.n	8005b58 <HAL_RCC_GetSysClockFreq+0x5c>
 8005b08:	689a      	ldr	r2, [r3, #8]
 8005b0a:	f002 020c 	and.w	r2, r2, #12
 8005b0e:	2a08      	cmp	r2, #8
 8005b10:	d024      	beq.n	8005b5c <HAL_RCC_GetSysClockFreq+0x60>
 8005b12:	689a      	ldr	r2, [r3, #8]
 8005b14:	f002 020c 	and.w	r2, r2, #12
 8005b18:	2a0c      	cmp	r2, #12
 8005b1a:	d001      	beq.n	8005b20 <HAL_RCC_GetSysClockFreq+0x24>
 8005b1c:	2000      	movs	r0, #0
 8005b1e:	4770      	bx	lr
 8005b20:	68d9      	ldr	r1, [r3, #12]
 8005b22:	68d8      	ldr	r0, [r3, #12]
 8005b24:	68db      	ldr	r3, [r3, #12]
 8005b26:	f001 0103 	and.w	r1, r1, #3
 8005b2a:	f3c0 1003 	ubfx	r0, r0, #4, #4
 8005b2e:	2903      	cmp	r1, #3
 8005b30:	f3c3 2306 	ubfx	r3, r3, #8, #7
 8005b34:	f100 0201 	add.w	r2, r0, #1
 8005b38:	bf0c      	ite	eq
 8005b3a:	480a      	ldreq	r0, [pc, #40]	; (8005b64 <HAL_RCC_GetSysClockFreq+0x68>)
 8005b3c:	480a      	ldrne	r0, [pc, #40]	; (8005b68 <HAL_RCC_GetSysClockFreq+0x6c>)
 8005b3e:	fbb0 f0f2 	udiv	r0, r0, r2
 8005b42:	fb00 f003 	mul.w	r0, r0, r3
 8005b46:	4b06      	ldr	r3, [pc, #24]	; (8005b60 <HAL_RCC_GetSysClockFreq+0x64>)
 8005b48:	68db      	ldr	r3, [r3, #12]
 8005b4a:	f3c3 6341 	ubfx	r3, r3, #25, #2
 8005b4e:	3301      	adds	r3, #1
 8005b50:	005b      	lsls	r3, r3, #1
 8005b52:	fbb0 f0f3 	udiv	r0, r0, r3
 8005b56:	4770      	bx	lr
 8005b58:	4803      	ldr	r0, [pc, #12]	; (8005b68 <HAL_RCC_GetSysClockFreq+0x6c>)
 8005b5a:	4770      	bx	lr
 8005b5c:	4801      	ldr	r0, [pc, #4]	; (8005b64 <HAL_RCC_GetSysClockFreq+0x68>)
 8005b5e:	4770      	bx	lr
 8005b60:	40021000 	.word	0x40021000
 8005b64:	007a1200 	.word	0x007a1200
 8005b68:	00f42400 	.word	0x00f42400

08005b6c <HAL_RCC_ClockConfig>:
 8005b6c:	2800      	cmp	r0, #0
 8005b6e:	f000 80ef 	beq.w	8005d50 <HAL_RCC_ClockConfig+0x1e4>
 8005b72:	4a7f      	ldr	r2, [pc, #508]	; (8005d70 <HAL_RCC_ClockConfig+0x204>)
 8005b74:	e92d 43f8 	stmdb	sp!, {r3, r4, r5, r6, r7, r8, r9, lr}
 8005b78:	6813      	ldr	r3, [r2, #0]
 8005b7a:	f003 030f 	and.w	r3, r3, #15
 8005b7e:	428b      	cmp	r3, r1
 8005b80:	460d      	mov	r5, r1
 8005b82:	4604      	mov	r4, r0
 8005b84:	d20c      	bcs.n	8005ba0 <HAL_RCC_ClockConfig+0x34>
 8005b86:	6813      	ldr	r3, [r2, #0]
 8005b88:	f023 030f 	bic.w	r3, r3, #15
 8005b8c:	430b      	orrs	r3, r1
 8005b8e:	6013      	str	r3, [r2, #0]
 8005b90:	6813      	ldr	r3, [r2, #0]
 8005b92:	f003 030f 	and.w	r3, r3, #15
 8005b96:	428b      	cmp	r3, r1
 8005b98:	d002      	beq.n	8005ba0 <HAL_RCC_ClockConfig+0x34>
 8005b9a:	2001      	movs	r0, #1
 8005b9c:	e8bd 83f8 	ldmia.w	sp!, {r3, r4, r5, r6, r7, r8, r9, pc}
 8005ba0:	6823      	ldr	r3, [r4, #0]
 8005ba2:	07de      	lsls	r6, r3, #31
 8005ba4:	d563      	bpl.n	8005c6e <HAL_RCC_ClockConfig+0x102>
 8005ba6:	6862      	ldr	r2, [r4, #4]
 8005ba8:	2a03      	cmp	r2, #3
 8005baa:	f000 809a 	beq.w	8005ce2 <HAL_RCC_ClockConfig+0x176>
 8005bae:	4b71      	ldr	r3, [pc, #452]	; (8005d74 <HAL_RCC_ClockConfig+0x208>)
 8005bb0:	2a02      	cmp	r2, #2
 8005bb2:	681b      	ldr	r3, [r3, #0]
 8005bb4:	f000 8091 	beq.w	8005cda <HAL_RCC_ClockConfig+0x16e>
 8005bb8:	055b      	lsls	r3, r3, #21
 8005bba:	d5ee      	bpl.n	8005b9a <HAL_RCC_ClockConfig+0x2e>
 8005bbc:	f7ff ff9e 	bl	8005afc <HAL_RCC_GetSysClockFreq>
 8005bc0:	4b6d      	ldr	r3, [pc, #436]	; (8005d78 <HAL_RCC_ClockConfig+0x20c>)
 8005bc2:	4298      	cmp	r0, r3
 8005bc4:	f200 80c6 	bhi.w	8005d54 <HAL_RCC_ClockConfig+0x1e8>
 8005bc8:	6862      	ldr	r2, [r4, #4]
 8005bca:	f04f 0900 	mov.w	r9, #0
 8005bce:	4e69      	ldr	r6, [pc, #420]	; (8005d74 <HAL_RCC_ClockConfig+0x208>)
 8005bd0:	68b3      	ldr	r3, [r6, #8]
 8005bd2:	f023 0303 	bic.w	r3, r3, #3
 8005bd6:	431a      	orrs	r2, r3
 8005bd8:	60b2      	str	r2, [r6, #8]
 8005bda:	f7fe f919 	bl	8003e10 <HAL_GetTick>
 8005bde:	f241 3888 	movw	r8, #5000	; 0x1388
 8005be2:	4607      	mov	r7, r0
 8005be4:	e004      	b.n	8005bf0 <HAL_RCC_ClockConfig+0x84>
 8005be6:	f7fe f913 	bl	8003e10 <HAL_GetTick>
 8005bea:	1bc0      	subs	r0, r0, r7
 8005bec:	4540      	cmp	r0, r8
 8005bee:	d871      	bhi.n	8005cd4 <HAL_RCC_ClockConfig+0x168>
 8005bf0:	68b3      	ldr	r3, [r6, #8]
 8005bf2:	6862      	ldr	r2, [r4, #4]
 8005bf4:	f003 030c 	and.w	r3, r3, #12
 8005bf8:	ebb3 0f82 	cmp.w	r3, r2, lsl #2
 8005bfc:	d1f3      	bne.n	8005be6 <HAL_RCC_ClockConfig+0x7a>
 8005bfe:	6823      	ldr	r3, [r4, #0]
 8005c00:	079f      	lsls	r7, r3, #30
 8005c02:	d436      	bmi.n	8005c72 <HAL_RCC_ClockConfig+0x106>
 8005c04:	f1b9 0f80 	cmp.w	r9, #128	; 0x80
 8005c08:	d103      	bne.n	8005c12 <HAL_RCC_ClockConfig+0xa6>
 8005c0a:	68b3      	ldr	r3, [r6, #8]
 8005c0c:	f023 03f0 	bic.w	r3, r3, #240	; 0xf0
 8005c10:	60b3      	str	r3, [r6, #8]
 8005c12:	4e57      	ldr	r6, [pc, #348]	; (8005d70 <HAL_RCC_ClockConfig+0x204>)
 8005c14:	6833      	ldr	r3, [r6, #0]
 8005c16:	f003 030f 	and.w	r3, r3, #15
 8005c1a:	42ab      	cmp	r3, r5
 8005c1c:	d846      	bhi.n	8005cac <HAL_RCC_ClockConfig+0x140>
 8005c1e:	6823      	ldr	r3, [r4, #0]
 8005c20:	075a      	lsls	r2, r3, #29
 8005c22:	d506      	bpl.n	8005c32 <HAL_RCC_ClockConfig+0xc6>
 8005c24:	4953      	ldr	r1, [pc, #332]	; (8005d74 <HAL_RCC_ClockConfig+0x208>)
 8005c26:	68e0      	ldr	r0, [r4, #12]
 8005c28:	688a      	ldr	r2, [r1, #8]
 8005c2a:	f422 62e0 	bic.w	r2, r2, #1792	; 0x700
 8005c2e:	4302      	orrs	r2, r0
 8005c30:	608a      	str	r2, [r1, #8]
 8005c32:	071b      	lsls	r3, r3, #28
 8005c34:	d507      	bpl.n	8005c46 <HAL_RCC_ClockConfig+0xda>
 8005c36:	4a4f      	ldr	r2, [pc, #316]	; (8005d74 <HAL_RCC_ClockConfig+0x208>)
 8005c38:	6921      	ldr	r1, [r4, #16]
 8005c3a:	6893      	ldr	r3, [r2, #8]
 8005c3c:	f423 5360 	bic.w	r3, r3, #14336	; 0x3800
 8005c40:	ea43 03c1 	orr.w	r3, r3, r1, lsl #3
 8005c44:	6093      	str	r3, [r2, #8]
 8005c46:	f7ff ff59 	bl	8005afc <HAL_RCC_GetSysClockFreq>
 8005c4a:	4a4a      	ldr	r2, [pc, #296]	; (8005d74 <HAL_RCC_ClockConfig+0x208>)
 8005c4c:	4c4b      	ldr	r4, [pc, #300]	; (8005d7c <HAL_RCC_ClockConfig+0x210>)
 8005c4e:	6892      	ldr	r2, [r2, #8]
 8005c50:	494b      	ldr	r1, [pc, #300]	; (8005d80 <HAL_RCC_ClockConfig+0x214>)
 8005c52:	f3c2 1203 	ubfx	r2, r2, #4, #4
 8005c56:	4603      	mov	r3, r0
 8005c58:	5ca2      	ldrb	r2, [r4, r2]
 8005c5a:	484a      	ldr	r0, [pc, #296]	; (8005d84 <HAL_RCC_ClockConfig+0x218>)
 8005c5c:	f002 021f 	and.w	r2, r2, #31
 8005c60:	40d3      	lsrs	r3, r2
 8005c62:	600b      	str	r3, [r1, #0]
 8005c64:	6800      	ldr	r0, [r0, #0]
 8005c66:	e8bd 43f8 	ldmia.w	sp!, {r3, r4, r5, r6, r7, r8, r9, lr}
 8005c6a:	f7fe b88f 	b.w	8003d8c <HAL_InitTick>
 8005c6e:	0798      	lsls	r0, r3, #30
 8005c70:	d5cf      	bpl.n	8005c12 <HAL_RCC_ClockConfig+0xa6>
 8005c72:	0758      	lsls	r0, r3, #29
 8005c74:	d504      	bpl.n	8005c80 <HAL_RCC_ClockConfig+0x114>
 8005c76:	493f      	ldr	r1, [pc, #252]	; (8005d74 <HAL_RCC_ClockConfig+0x208>)
 8005c78:	688a      	ldr	r2, [r1, #8]
 8005c7a:	f442 62e0 	orr.w	r2, r2, #1792	; 0x700
 8005c7e:	608a      	str	r2, [r1, #8]
 8005c80:	0719      	lsls	r1, r3, #28
 8005c82:	d506      	bpl.n	8005c92 <HAL_RCC_ClockConfig+0x126>
 8005c84:	4a3b      	ldr	r2, [pc, #236]	; (8005d74 <HAL_RCC_ClockConfig+0x208>)
 8005c86:	6893      	ldr	r3, [r2, #8]
 8005c88:	f423 537c 	bic.w	r3, r3, #16128	; 0x3f00
 8005c8c:	f443 63e0 	orr.w	r3, r3, #1792	; 0x700
 8005c90:	6093      	str	r3, [r2, #8]
 8005c92:	4a38      	ldr	r2, [pc, #224]	; (8005d74 <HAL_RCC_ClockConfig+0x208>)
 8005c94:	68a1      	ldr	r1, [r4, #8]
 8005c96:	6893      	ldr	r3, [r2, #8]
 8005c98:	4e35      	ldr	r6, [pc, #212]	; (8005d70 <HAL_RCC_ClockConfig+0x204>)
 8005c9a:	f023 03f0 	bic.w	r3, r3, #240	; 0xf0
 8005c9e:	430b      	orrs	r3, r1
 8005ca0:	6093      	str	r3, [r2, #8]
 8005ca2:	6833      	ldr	r3, [r6, #0]
 8005ca4:	f003 030f 	and.w	r3, r3, #15
 8005ca8:	42ab      	cmp	r3, r5
 8005caa:	d9b8      	bls.n	8005c1e <HAL_RCC_ClockConfig+0xb2>
 8005cac:	6833      	ldr	r3, [r6, #0]
 8005cae:	f023 030f 	bic.w	r3, r3, #15
 8005cb2:	432b      	orrs	r3, r5
 8005cb4:	6033      	str	r3, [r6, #0]
 8005cb6:	f7fe f8ab 	bl	8003e10 <HAL_GetTick>
 8005cba:	f241 3888 	movw	r8, #5000	; 0x1388
 8005cbe:	4607      	mov	r7, r0
 8005cc0:	6833      	ldr	r3, [r6, #0]
 8005cc2:	f003 030f 	and.w	r3, r3, #15
 8005cc6:	42ab      	cmp	r3, r5
 8005cc8:	d0a9      	beq.n	8005c1e <HAL_RCC_ClockConfig+0xb2>
 8005cca:	f7fe f8a1 	bl	8003e10 <HAL_GetTick>
 8005cce:	1bc0      	subs	r0, r0, r7
 8005cd0:	4540      	cmp	r0, r8
 8005cd2:	d9f5      	bls.n	8005cc0 <HAL_RCC_ClockConfig+0x154>
 8005cd4:	2003      	movs	r0, #3
 8005cd6:	e8bd 83f8 	ldmia.w	sp!, {r3, r4, r5, r6, r7, r8, r9, pc}
 8005cda:	039a      	lsls	r2, r3, #14
 8005cdc:	f53f af6e 	bmi.w	8005bbc <HAL_RCC_ClockConfig+0x50>
 8005ce0:	e75b      	b.n	8005b9a <HAL_RCC_ClockConfig+0x2e>
 8005ce2:	4824      	ldr	r0, [pc, #144]	; (8005d74 <HAL_RCC_ClockConfig+0x208>)
 8005ce4:	6801      	ldr	r1, [r0, #0]
 8005ce6:	0189      	lsls	r1, r1, #6
 8005ce8:	f57f af57 	bpl.w	8005b9a <HAL_RCC_ClockConfig+0x2e>
 8005cec:	68c7      	ldr	r7, [r0, #12]
 8005cee:	68c1      	ldr	r1, [r0, #12]
 8005cf0:	68c0      	ldr	r0, [r0, #12]
 8005cf2:	f007 0703 	and.w	r7, r7, #3
 8005cf6:	f3c1 1103 	ubfx	r1, r1, #4, #4
 8005cfa:	2f03      	cmp	r7, #3
 8005cfc:	f101 0601 	add.w	r6, r1, #1
 8005d00:	bf0c      	ite	eq
 8005d02:	4921      	ldreq	r1, [pc, #132]	; (8005d88 <HAL_RCC_ClockConfig+0x21c>)
 8005d04:	4921      	ldrne	r1, [pc, #132]	; (8005d8c <HAL_RCC_ClockConfig+0x220>)
 8005d06:	fbb1 f1f6 	udiv	r1, r1, r6
 8005d0a:	4e1a      	ldr	r6, [pc, #104]	; (8005d74 <HAL_RCC_ClockConfig+0x208>)
 8005d0c:	4f1a      	ldr	r7, [pc, #104]	; (8005d78 <HAL_RCC_ClockConfig+0x20c>)
 8005d0e:	f3c0 2006 	ubfx	r0, r0, #8, #7
 8005d12:	fb01 f100 	mul.w	r1, r1, r0
 8005d16:	68f0      	ldr	r0, [r6, #12]
 8005d18:	f3c0 6041 	ubfx	r0, r0, #25, #2
 8005d1c:	3001      	adds	r0, #1
 8005d1e:	0040      	lsls	r0, r0, #1
 8005d20:	fbb1 f1f0 	udiv	r1, r1, r0
 8005d24:	42b9      	cmp	r1, r7
 8005d26:	d920      	bls.n	8005d6a <HAL_RCC_ClockConfig+0x1fe>
 8005d28:	68b1      	ldr	r1, [r6, #8]
 8005d2a:	f011 0ff0 	tst.w	r1, #240	; 0xf0
 8005d2e:	d005      	beq.n	8005d3c <HAL_RCC_ClockConfig+0x1d0>
 8005d30:	f013 0902 	ands.w	r9, r3, #2
 8005d34:	f43f af4b 	beq.w	8005bce <HAL_RCC_ClockConfig+0x62>
 8005d38:	68a3      	ldr	r3, [r4, #8]
 8005d3a:	b9b3      	cbnz	r3, 8005d6a <HAL_RCC_ClockConfig+0x1fe>
 8005d3c:	490d      	ldr	r1, [pc, #52]	; (8005d74 <HAL_RCC_ClockConfig+0x208>)
 8005d3e:	688b      	ldr	r3, [r1, #8]
 8005d40:	f023 03f0 	bic.w	r3, r3, #240	; 0xf0
 8005d44:	f043 0380 	orr.w	r3, r3, #128	; 0x80
 8005d48:	608b      	str	r3, [r1, #8]
 8005d4a:	f04f 0980 	mov.w	r9, #128	; 0x80
 8005d4e:	e73e      	b.n	8005bce <HAL_RCC_ClockConfig+0x62>
 8005d50:	2001      	movs	r0, #1
 8005d52:	4770      	bx	lr
 8005d54:	4a07      	ldr	r2, [pc, #28]	; (8005d74 <HAL_RCC_ClockConfig+0x208>)
 8005d56:	6893      	ldr	r3, [r2, #8]
 8005d58:	f023 03f0 	bic.w	r3, r3, #240	; 0xf0
 8005d5c:	f043 0380 	orr.w	r3, r3, #128	; 0x80
 8005d60:	6093      	str	r3, [r2, #8]
 8005d62:	6862      	ldr	r2, [r4, #4]
 8005d64:	f04f 0980 	mov.w	r9, #128	; 0x80
 8005d68:	e731      	b.n	8005bce <HAL_RCC_ClockConfig+0x62>
 8005d6a:	f04f 0900 	mov.w	r9, #0
 8005d6e:	e72e      	b.n	8005bce <HAL_RCC_ClockConfig+0x62>
 8005d70:	40022000 	.word	0x40022000
 8005d74:	40021000 	.word	0x40021000
 8005d78:	04c4b400 	.word	0x04c4b400
 8005d7c:	08008d10 	.word	0x08008d10
 8005d80:	20000638 	.word	0x20000638
 8005d84:	20000640 	.word	0x20000640
 8005d88:	007a1200 	.word	0x007a1200
 8005d8c:	00f42400 	.word	0x00f42400

08005d90 <HAL_RCC_GetHCLKFreq>:
 8005d90:	4b01      	ldr	r3, [pc, #4]	; (8005d98 <HAL_RCC_GetHCLKFreq+0x8>)
 8005d92:	6818      	ldr	r0, [r3, #0]
 8005d94:	4770      	bx	lr
 8005d96:	bf00      	nop
 8005d98:	20000638 	.word	0x20000638

08005d9c <HAL_RCCEx_PeriphCLKConfig>:
 8005d9c:	e92d 41f0 	stmdb	sp!, {r4, r5, r6, r7, r8, lr}
 8005da0:	6803      	ldr	r3, [r0, #0]
 8005da2:	4604      	mov	r4, r0
 8005da4:	f413 2000 	ands.w	r0, r3, #524288	; 0x80000
 8005da8:	b082      	sub	sp, #8
 8005daa:	d056      	beq.n	8005e5a <HAL_RCCEx_PeriphCLKConfig+0xbe>
 8005dac:	4b9f      	ldr	r3, [pc, #636]	; (800602c <HAL_RCCEx_PeriphCLKConfig+0x290>)
 8005dae:	6d9a      	ldr	r2, [r3, #88]	; 0x58
 8005db0:	00d5      	lsls	r5, r2, #3
 8005db2:	f140 810c 	bpl.w	8005fce <HAL_RCCEx_PeriphCLKConfig+0x232>
 8005db6:	2700      	movs	r7, #0
 8005db8:	4d9d      	ldr	r5, [pc, #628]	; (8006030 <HAL_RCCEx_PeriphCLKConfig+0x294>)
 8005dba:	682b      	ldr	r3, [r5, #0]
 8005dbc:	f443 7380 	orr.w	r3, r3, #256	; 0x100
 8005dc0:	602b      	str	r3, [r5, #0]
 8005dc2:	f7fe f825 	bl	8003e10 <HAL_GetTick>
 8005dc6:	4606      	mov	r6, r0
 8005dc8:	e005      	b.n	8005dd6 <HAL_RCCEx_PeriphCLKConfig+0x3a>
 8005dca:	f7fe f821 	bl	8003e10 <HAL_GetTick>
 8005dce:	1b83      	subs	r3, r0, r6
 8005dd0:	2b02      	cmp	r3, #2
 8005dd2:	f200 8107 	bhi.w	8005fe4 <HAL_RCCEx_PeriphCLKConfig+0x248>
 8005dd6:	682b      	ldr	r3, [r5, #0]
 8005dd8:	05d8      	lsls	r0, r3, #23
 8005dda:	d5f6      	bpl.n	8005dca <HAL_RCCEx_PeriphCLKConfig+0x2e>
 8005ddc:	4d93      	ldr	r5, [pc, #588]	; (800602c <HAL_RCCEx_PeriphCLKConfig+0x290>)
 8005dde:	f8d5 3090 	ldr.w	r3, [r5, #144]	; 0x90
 8005de2:	f413 7340 	ands.w	r3, r3, #768	; 0x300
 8005de6:	d027      	beq.n	8005e38 <HAL_RCCEx_PeriphCLKConfig+0x9c>
 8005de8:	6c22      	ldr	r2, [r4, #64]	; 0x40
 8005dea:	429a      	cmp	r2, r3
 8005dec:	d025      	beq.n	8005e3a <HAL_RCCEx_PeriphCLKConfig+0x9e>
 8005dee:	f8d5 1090 	ldr.w	r1, [r5, #144]	; 0x90
 8005df2:	f8d5 3090 	ldr.w	r3, [r5, #144]	; 0x90
 8005df6:	f443 3380 	orr.w	r3, r3, #65536	; 0x10000
 8005dfa:	f8c5 3090 	str.w	r3, [r5, #144]	; 0x90
 8005dfe:	f8d5 3090 	ldr.w	r3, [r5, #144]	; 0x90
 8005e02:	f421 7040 	bic.w	r0, r1, #768	; 0x300
 8005e06:	f423 3380 	bic.w	r3, r3, #65536	; 0x10000
 8005e0a:	07c9      	lsls	r1, r1, #31
 8005e0c:	f8c5 3090 	str.w	r3, [r5, #144]	; 0x90
 8005e10:	f8c5 0090 	str.w	r0, [r5, #144]	; 0x90
 8005e14:	f140 8108 	bpl.w	8006028 <HAL_RCCEx_PeriphCLKConfig+0x28c>
 8005e18:	f7fd fffa 	bl	8003e10 <HAL_GetTick>
 8005e1c:	f241 3888 	movw	r8, #5000	; 0x1388
 8005e20:	4606      	mov	r6, r0
 8005e22:	e005      	b.n	8005e30 <HAL_RCCEx_PeriphCLKConfig+0x94>
 8005e24:	f7fd fff4 	bl	8003e10 <HAL_GetTick>
 8005e28:	1b80      	subs	r0, r0, r6
 8005e2a:	4540      	cmp	r0, r8
 8005e2c:	f200 80da 	bhi.w	8005fe4 <HAL_RCCEx_PeriphCLKConfig+0x248>
 8005e30:	f8d5 3090 	ldr.w	r3, [r5, #144]	; 0x90
 8005e34:	079b      	lsls	r3, r3, #30
 8005e36:	d5f5      	bpl.n	8005e24 <HAL_RCCEx_PeriphCLKConfig+0x88>
 8005e38:	6c23      	ldr	r3, [r4, #64]	; 0x40
 8005e3a:	497c      	ldr	r1, [pc, #496]	; (800602c <HAL_RCCEx_PeriphCLKConfig+0x290>)
 8005e3c:	f8d1 2090 	ldr.w	r2, [r1, #144]	; 0x90
 8005e40:	f422 7240 	bic.w	r2, r2, #768	; 0x300
 8005e44:	4313      	orrs	r3, r2
 8005e46:	f8c1 3090 	str.w	r3, [r1, #144]	; 0x90
 8005e4a:	2000      	movs	r0, #0
 8005e4c:	b127      	cbz	r7, 8005e58 <HAL_RCCEx_PeriphCLKConfig+0xbc>
 8005e4e:	4a77      	ldr	r2, [pc, #476]	; (800602c <HAL_RCCEx_PeriphCLKConfig+0x290>)
 8005e50:	6d93      	ldr	r3, [r2, #88]	; 0x58
 8005e52:	f023 5380 	bic.w	r3, r3, #268435456	; 0x10000000
 8005e56:	6593      	str	r3, [r2, #88]	; 0x58
 8005e58:	6823      	ldr	r3, [r4, #0]
 8005e5a:	07de      	lsls	r6, r3, #31
 8005e5c:	d508      	bpl.n	8005e70 <HAL_RCCEx_PeriphCLKConfig+0xd4>
 8005e5e:	4973      	ldr	r1, [pc, #460]	; (800602c <HAL_RCCEx_PeriphCLKConfig+0x290>)
 8005e60:	6865      	ldr	r5, [r4, #4]
 8005e62:	f8d1 2088 	ldr.w	r2, [r1, #136]	; 0x88
 8005e66:	f022 0203 	bic.w	r2, r2, #3
 8005e6a:	432a      	orrs	r2, r5
 8005e6c:	f8c1 2088 	str.w	r2, [r1, #136]	; 0x88
 8005e70:	079d      	lsls	r5, r3, #30
 8005e72:	d508      	bpl.n	8005e86 <HAL_RCCEx_PeriphCLKConfig+0xea>
 8005e74:	496d      	ldr	r1, [pc, #436]	; (800602c <HAL_RCCEx_PeriphCLKConfig+0x290>)
 8005e76:	68a5      	ldr	r5, [r4, #8]
 8005e78:	f8d1 2088 	ldr.w	r2, [r1, #136]	; 0x88
 8005e7c:	f022 020c 	bic.w	r2, r2, #12
 8005e80:	432a      	orrs	r2, r5
 8005e82:	f8c1 2088 	str.w	r2, [r1, #136]	; 0x88
 8005e86:	0759      	lsls	r1, r3, #29
 8005e88:	d508      	bpl.n	8005e9c <HAL_RCCEx_PeriphCLKConfig+0x100>
 8005e8a:	4968      	ldr	r1, [pc, #416]	; (800602c <HAL_RCCEx_PeriphCLKConfig+0x290>)
 8005e8c:	68e5      	ldr	r5, [r4, #12]
 8005e8e:	f8d1 2088 	ldr.w	r2, [r1, #136]	; 0x88
 8005e92:	f022 0230 	bic.w	r2, r2, #48	; 0x30
 8005e96:	432a      	orrs	r2, r5
 8005e98:	f8c1 2088 	str.w	r2, [r1, #136]	; 0x88
 8005e9c:	071a      	lsls	r2, r3, #28
 8005e9e:	d508      	bpl.n	8005eb2 <HAL_RCCEx_PeriphCLKConfig+0x116>
 8005ea0:	4962      	ldr	r1, [pc, #392]	; (800602c <HAL_RCCEx_PeriphCLKConfig+0x290>)
 8005ea2:	6925      	ldr	r5, [r4, #16]
 8005ea4:	f8d1 2088 	ldr.w	r2, [r1, #136]	; 0x88
 8005ea8:	f022 02c0 	bic.w	r2, r2, #192	; 0xc0
 8005eac:	432a      	orrs	r2, r5
 8005eae:	f8c1 2088 	str.w	r2, [r1, #136]	; 0x88
 8005eb2:	069f      	lsls	r7, r3, #26
 8005eb4:	d508      	bpl.n	8005ec8 <HAL_RCCEx_PeriphCLKConfig+0x12c>
 8005eb6:	495d      	ldr	r1, [pc, #372]	; (800602c <HAL_RCCEx_PeriphCLKConfig+0x290>)
 8005eb8:	6965      	ldr	r5, [r4, #20]
 8005eba:	f8d1 2088 	ldr.w	r2, [r1, #136]	; 0x88
 8005ebe:	f422 6240 	bic.w	r2, r2, #3072	; 0xc00
 8005ec2:	432a      	orrs	r2, r5
 8005ec4:	f8c1 2088 	str.w	r2, [r1, #136]	; 0x88
 8005ec8:	065e      	lsls	r6, r3, #25
 8005eca:	d508      	bpl.n	8005ede <HAL_RCCEx_PeriphCLKConfig+0x142>
 8005ecc:	4957      	ldr	r1, [pc, #348]	; (800602c <HAL_RCCEx_PeriphCLKConfig+0x290>)
 8005ece:	69a5      	ldr	r5, [r4, #24]
 8005ed0:	f8d1 2088 	ldr.w	r2, [r1, #136]	; 0x88
 8005ed4:	f422 5240 	bic.w	r2, r2, #12288	; 0x3000
 8005ed8:	432a      	orrs	r2, r5
 8005eda:	f8c1 2088 	str.w	r2, [r1, #136]	; 0x88
 8005ede:	061d      	lsls	r5, r3, #24
 8005ee0:	d508      	bpl.n	8005ef4 <HAL_RCCEx_PeriphCLKConfig+0x158>
 8005ee2:	4952      	ldr	r1, [pc, #328]	; (800602c <HAL_RCCEx_PeriphCLKConfig+0x290>)
 8005ee4:	69e5      	ldr	r5, [r4, #28]
 8005ee6:	f8d1 2088 	ldr.w	r2, [r1, #136]	; 0x88
 8005eea:	f422 4240 	bic.w	r2, r2, #49152	; 0xc000
 8005eee:	432a      	orrs	r2, r5
 8005ef0:	f8c1 2088 	str.w	r2, [r1, #136]	; 0x88
 8005ef4:	05d9      	lsls	r1, r3, #23
 8005ef6:	d508      	bpl.n	8005f0a <HAL_RCCEx_PeriphCLKConfig+0x16e>
 8005ef8:	494c      	ldr	r1, [pc, #304]	; (800602c <HAL_RCCEx_PeriphCLKConfig+0x290>)
 8005efa:	6a25      	ldr	r5, [r4, #32]
 8005efc:	f8d1 2088 	ldr.w	r2, [r1, #136]	; 0x88
 8005f00:	f422 3240 	bic.w	r2, r2, #196608	; 0x30000
 8005f04:	432a      	orrs	r2, r5
 8005f06:	f8c1 2088 	str.w	r2, [r1, #136]	; 0x88
 8005f0a:	059a      	lsls	r2, r3, #22
 8005f0c:	d508      	bpl.n	8005f20 <HAL_RCCEx_PeriphCLKConfig+0x184>
 8005f0e:	4947      	ldr	r1, [pc, #284]	; (800602c <HAL_RCCEx_PeriphCLKConfig+0x290>)
 8005f10:	6a65      	ldr	r5, [r4, #36]	; 0x24
 8005f12:	f8d1 2088 	ldr.w	r2, [r1, #136]	; 0x88
 8005f16:	f422 2240 	bic.w	r2, r2, #786432	; 0xc0000
 8005f1a:	432a      	orrs	r2, r5
 8005f1c:	f8c1 2088 	str.w	r2, [r1, #136]	; 0x88
 8005f20:	055f      	lsls	r7, r3, #21
 8005f22:	d50b      	bpl.n	8005f3c <HAL_RCCEx_PeriphCLKConfig+0x1a0>
 8005f24:	4941      	ldr	r1, [pc, #260]	; (800602c <HAL_RCCEx_PeriphCLKConfig+0x290>)
 8005f26:	6aa5      	ldr	r5, [r4, #40]	; 0x28
 8005f28:	f8d1 2088 	ldr.w	r2, [r1, #136]	; 0x88
 8005f2c:	f422 1240 	bic.w	r2, r2, #3145728	; 0x300000
 8005f30:	432a      	orrs	r2, r5
 8005f32:	f5b5 1f80 	cmp.w	r5, #1048576	; 0x100000
 8005f36:	f8c1 2088 	str.w	r2, [r1, #136]	; 0x88
 8005f3a:	d055      	beq.n	8005fe8 <HAL_RCCEx_PeriphCLKConfig+0x24c>
 8005f3c:	051e      	lsls	r6, r3, #20
 8005f3e:	d50b      	bpl.n	8005f58 <HAL_RCCEx_PeriphCLKConfig+0x1bc>
 8005f40:	493a      	ldr	r1, [pc, #232]	; (800602c <HAL_RCCEx_PeriphCLKConfig+0x290>)
 8005f42:	6ae5      	ldr	r5, [r4, #44]	; 0x2c
 8005f44:	f8d1 2088 	ldr.w	r2, [r1, #136]	; 0x88
 8005f48:	f422 0240 	bic.w	r2, r2, #12582912	; 0xc00000
 8005f4c:	432a      	orrs	r2, r5
 8005f4e:	f5b5 0f80 	cmp.w	r5, #4194304	; 0x400000
 8005f52:	f8c1 2088 	str.w	r2, [r1, #136]	; 0x88
 8005f56:	d04c      	beq.n	8005ff2 <HAL_RCCEx_PeriphCLKConfig+0x256>
 8005f58:	04dd      	lsls	r5, r3, #19
 8005f5a:	d50b      	bpl.n	8005f74 <HAL_RCCEx_PeriphCLKConfig+0x1d8>
 8005f5c:	4933      	ldr	r1, [pc, #204]	; (800602c <HAL_RCCEx_PeriphCLKConfig+0x290>)
 8005f5e:	6b25      	ldr	r5, [r4, #48]	; 0x30
 8005f60:	f8d1 2088 	ldr.w	r2, [r1, #136]	; 0x88
 8005f64:	f022 7240 	bic.w	r2, r2, #50331648	; 0x3000000
 8005f68:	432a      	orrs	r2, r5
 8005f6a:	f1b5 7f80 	cmp.w	r5, #16777216	; 0x1000000
 8005f6e:	f8c1 2088 	str.w	r2, [r1, #136]	; 0x88
 8005f72:	d043      	beq.n	8005ffc <HAL_RCCEx_PeriphCLKConfig+0x260>
 8005f74:	0499      	lsls	r1, r3, #18
 8005f76:	d50b      	bpl.n	8005f90 <HAL_RCCEx_PeriphCLKConfig+0x1f4>
 8005f78:	492c      	ldr	r1, [pc, #176]	; (800602c <HAL_RCCEx_PeriphCLKConfig+0x290>)
 8005f7a:	6b65      	ldr	r5, [r4, #52]	; 0x34
 8005f7c:	f8d1 2088 	ldr.w	r2, [r1, #136]	; 0x88
 8005f80:	f022 6240 	bic.w	r2, r2, #201326592	; 0xc000000
 8005f84:	432a      	orrs	r2, r5
 8005f86:	f1b5 6f00 	cmp.w	r5, #134217728	; 0x8000000
 8005f8a:	f8c1 2088 	str.w	r2, [r1, #136]	; 0x88
 8005f8e:	d03a      	beq.n	8006006 <HAL_RCCEx_PeriphCLKConfig+0x26a>
 8005f90:	045a      	lsls	r2, r3, #17
 8005f92:	d50b      	bpl.n	8005fac <HAL_RCCEx_PeriphCLKConfig+0x210>
 8005f94:	4925      	ldr	r1, [pc, #148]	; (800602c <HAL_RCCEx_PeriphCLKConfig+0x290>)
 8005f96:	6ba5      	ldr	r5, [r4, #56]	; 0x38
 8005f98:	f8d1 2088 	ldr.w	r2, [r1, #136]	; 0x88
 8005f9c:	f022 6240 	bic.w	r2, r2, #201326592	; 0xc000000
 8005fa0:	432a      	orrs	r2, r5
 8005fa2:	f1b5 6f00 	cmp.w	r5, #134217728	; 0x8000000
 8005fa6:	f8c1 2088 	str.w	r2, [r1, #136]	; 0x88
 8005faa:	d031      	beq.n	8006010 <HAL_RCCEx_PeriphCLKConfig+0x274>
 8005fac:	041b      	lsls	r3, r3, #16
 8005fae:	d50b      	bpl.n	8005fc8 <HAL_RCCEx_PeriphCLKConfig+0x22c>
 8005fb0:	4a1e      	ldr	r2, [pc, #120]	; (800602c <HAL_RCCEx_PeriphCLKConfig+0x290>)
 8005fb2:	6be1      	ldr	r1, [r4, #60]	; 0x3c
 8005fb4:	f8d2 3088 	ldr.w	r3, [r2, #136]	; 0x88
 8005fb8:	f023 5340 	bic.w	r3, r3, #805306368	; 0x30000000
 8005fbc:	430b      	orrs	r3, r1
 8005fbe:	f1b1 5f80 	cmp.w	r1, #268435456	; 0x10000000
 8005fc2:	f8c2 3088 	str.w	r3, [r2, #136]	; 0x88
 8005fc6:	d028      	beq.n	800601a <HAL_RCCEx_PeriphCLKConfig+0x27e>
 8005fc8:	b002      	add	sp, #8
 8005fca:	e8bd 81f0 	ldmia.w	sp!, {r4, r5, r6, r7, r8, pc}
 8005fce:	6d9a      	ldr	r2, [r3, #88]	; 0x58
 8005fd0:	f042 5280 	orr.w	r2, r2, #268435456	; 0x10000000
 8005fd4:	659a      	str	r2, [r3, #88]	; 0x58
 8005fd6:	6d9b      	ldr	r3, [r3, #88]	; 0x58
 8005fd8:	f003 5380 	and.w	r3, r3, #268435456	; 0x10000000
 8005fdc:	9301      	str	r3, [sp, #4]
 8005fde:	9b01      	ldr	r3, [sp, #4]
 8005fe0:	2701      	movs	r7, #1
 8005fe2:	e6e9      	b.n	8005db8 <HAL_RCCEx_PeriphCLKConfig+0x1c>
 8005fe4:	2003      	movs	r0, #3
 8005fe6:	e731      	b.n	8005e4c <HAL_RCCEx_PeriphCLKConfig+0xb0>
 8005fe8:	68ca      	ldr	r2, [r1, #12]
 8005fea:	f442 1280 	orr.w	r2, r2, #1048576	; 0x100000
 8005fee:	60ca      	str	r2, [r1, #12]
 8005ff0:	e7a4      	b.n	8005f3c <HAL_RCCEx_PeriphCLKConfig+0x1a0>
 8005ff2:	68ca      	ldr	r2, [r1, #12]
 8005ff4:	f442 1280 	orr.w	r2, r2, #1048576	; 0x100000
 8005ff8:	60ca      	str	r2, [r1, #12]
 8005ffa:	e7ad      	b.n	8005f58 <HAL_RCCEx_PeriphCLKConfig+0x1bc>
 8005ffc:	68ca      	ldr	r2, [r1, #12]
 8005ffe:	f442 1280 	orr.w	r2, r2, #1048576	; 0x100000
 8006002:	60ca      	str	r2, [r1, #12]
 8006004:	e7b6      	b.n	8005f74 <HAL_RCCEx_PeriphCLKConfig+0x1d8>
 8006006:	68ca      	ldr	r2, [r1, #12]
 8006008:	f442 1280 	orr.w	r2, r2, #1048576	; 0x100000
 800600c:	60ca      	str	r2, [r1, #12]
 800600e:	e7bf      	b.n	8005f90 <HAL_RCCEx_PeriphCLKConfig+0x1f4>
 8006010:	68ca      	ldr	r2, [r1, #12]
 8006012:	f442 1280 	orr.w	r2, r2, #1048576	; 0x100000
 8006016:	60ca      	str	r2, [r1, #12]
 8006018:	e7c8      	b.n	8005fac <HAL_RCCEx_PeriphCLKConfig+0x210>
 800601a:	68d3      	ldr	r3, [r2, #12]
 800601c:	f443 3380 	orr.w	r3, r3, #65536	; 0x10000
 8006020:	60d3      	str	r3, [r2, #12]
 8006022:	b002      	add	sp, #8
 8006024:	e8bd 81f0 	ldmia.w	sp!, {r4, r5, r6, r7, r8, pc}
 8006028:	4613      	mov	r3, r2
 800602a:	e706      	b.n	8005e3a <HAL_RCCEx_PeriphCLKConfig+0x9e>
 800602c:	40021000 	.word	0x40021000
 8006030:	40007000 	.word	0x40007000

08006034 <TIM_OC1_SetConfig>:
 8006034:	6a03      	ldr	r3, [r0, #32]
 8006036:	f023 0301 	bic.w	r3, r3, #1
 800603a:	6203      	str	r3, [r0, #32]
 800603c:	b4f0      	push	{r4, r5, r6, r7}
 800603e:	6a03      	ldr	r3, [r0, #32]
 8006040:	6846      	ldr	r6, [r0, #4]
 8006042:	6982      	ldr	r2, [r0, #24]
 8006044:	4f18      	ldr	r7, [pc, #96]	; (80060a8 <TIM_OC1_SetConfig+0x74>)
 8006046:	688d      	ldr	r5, [r1, #8]
 8006048:	680c      	ldr	r4, [r1, #0]
 800604a:	f422 3280 	bic.w	r2, r2, #65536	; 0x10000
 800604e:	f023 0302 	bic.w	r3, r3, #2
 8006052:	f022 0273 	bic.w	r2, r2, #115	; 0x73
 8006056:	42b8      	cmp	r0, r7
 8006058:	ea43 0305 	orr.w	r3, r3, r5
 800605c:	ea42 0204 	orr.w	r2, r2, r4
 8006060:	d00e      	beq.n	8006080 <TIM_OC1_SetConfig+0x4c>
 8006062:	4c12      	ldr	r4, [pc, #72]	; (80060ac <TIM_OC1_SetConfig+0x78>)
 8006064:	42a0      	cmp	r0, r4
 8006066:	d00b      	beq.n	8006080 <TIM_OC1_SetConfig+0x4c>
 8006068:	f504 6440 	add.w	r4, r4, #3072	; 0xc00
 800606c:	42a0      	cmp	r0, r4
 800606e:	d007      	beq.n	8006080 <TIM_OC1_SetConfig+0x4c>
 8006070:	f504 6480 	add.w	r4, r4, #1024	; 0x400
 8006074:	42a0      	cmp	r0, r4
 8006076:	d003      	beq.n	8006080 <TIM_OC1_SetConfig+0x4c>
 8006078:	f504 6480 	add.w	r4, r4, #1024	; 0x400
 800607c:	42a0      	cmp	r0, r4
 800607e:	d10b      	bne.n	8006098 <TIM_OC1_SetConfig+0x64>
 8006080:	68cc      	ldr	r4, [r1, #12]
 8006082:	f023 0308 	bic.w	r3, r3, #8
 8006086:	4323      	orrs	r3, r4
 8006088:	e9d1 4505 	ldrd	r4, r5, [r1, #20]
 800608c:	f426 7640 	bic.w	r6, r6, #768	; 0x300
 8006090:	432c      	orrs	r4, r5
 8006092:	f023 0304 	bic.w	r3, r3, #4
 8006096:	4326      	orrs	r6, r4
 8006098:	6849      	ldr	r1, [r1, #4]
 800609a:	6046      	str	r6, [r0, #4]
 800609c:	6182      	str	r2, [r0, #24]
 800609e:	bcf0      	pop	{r4, r5, r6, r7}
 80060a0:	6341      	str	r1, [r0, #52]	; 0x34
 80060a2:	6203      	str	r3, [r0, #32]
 80060a4:	4770      	bx	lr
 80060a6:	bf00      	nop
 80060a8:	40012c00 	.word	0x40012c00
 80060ac:	40013400 	.word	0x40013400

080060b0 <TIM_OC3_SetConfig>:
 80060b0:	6a03      	ldr	r3, [r0, #32]
 80060b2:	f423 7380 	bic.w	r3, r3, #256	; 0x100
 80060b6:	6203      	str	r3, [r0, #32]
 80060b8:	b4f0      	push	{r4, r5, r6, r7}
 80060ba:	6a03      	ldr	r3, [r0, #32]
 80060bc:	6846      	ldr	r6, [r0, #4]
 80060be:	69c2      	ldr	r2, [r0, #28]
 80060c0:	4f19      	ldr	r7, [pc, #100]	; (8006128 <TIM_OC3_SetConfig+0x78>)
 80060c2:	688d      	ldr	r5, [r1, #8]
 80060c4:	680c      	ldr	r4, [r1, #0]
 80060c6:	f422 3280 	bic.w	r2, r2, #65536	; 0x10000
 80060ca:	f423 7300 	bic.w	r3, r3, #512	; 0x200
 80060ce:	f022 0273 	bic.w	r2, r2, #115	; 0x73
 80060d2:	42b8      	cmp	r0, r7
 80060d4:	ea43 2305 	orr.w	r3, r3, r5, lsl #8
 80060d8:	ea42 0204 	orr.w	r2, r2, r4
 80060dc:	d00f      	beq.n	80060fe <TIM_OC3_SetConfig+0x4e>
 80060de:	4c13      	ldr	r4, [pc, #76]	; (800612c <TIM_OC3_SetConfig+0x7c>)
 80060e0:	42a0      	cmp	r0, r4
 80060e2:	d00c      	beq.n	80060fe <TIM_OC3_SetConfig+0x4e>
 80060e4:	f504 6440 	add.w	r4, r4, #3072	; 0xc00
 80060e8:	42a0      	cmp	r0, r4
 80060ea:	d00f      	beq.n	800610c <TIM_OC3_SetConfig+0x5c>
 80060ec:	f504 6480 	add.w	r4, r4, #1024	; 0x400
 80060f0:	42a0      	cmp	r0, r4
 80060f2:	d00b      	beq.n	800610c <TIM_OC3_SetConfig+0x5c>
 80060f4:	f504 6480 	add.w	r4, r4, #1024	; 0x400
 80060f8:	42a0      	cmp	r0, r4
 80060fa:	d10e      	bne.n	800611a <TIM_OC3_SetConfig+0x6a>
 80060fc:	e006      	b.n	800610c <TIM_OC3_SetConfig+0x5c>
 80060fe:	68cc      	ldr	r4, [r1, #12]
 8006100:	f423 6300 	bic.w	r3, r3, #2048	; 0x800
 8006104:	ea43 2304 	orr.w	r3, r3, r4, lsl #8
 8006108:	f423 6380 	bic.w	r3, r3, #1024	; 0x400
 800610c:	e9d1 4505 	ldrd	r4, r5, [r1, #20]
 8006110:	f426 5640 	bic.w	r6, r6, #12288	; 0x3000
 8006114:	432c      	orrs	r4, r5
 8006116:	ea46 1604 	orr.w	r6, r6, r4, lsl #4
 800611a:	6849      	ldr	r1, [r1, #4]
 800611c:	6046      	str	r6, [r0, #4]
 800611e:	61c2      	str	r2, [r0, #28]
 8006120:	bcf0      	pop	{r4, r5, r6, r7}
 8006122:	63c1      	str	r1, [r0, #60]	; 0x3c
 8006124:	6203      	str	r3, [r0, #32]
 8006126:	4770      	bx	lr
 8006128:	40012c00 	.word	0x40012c00
 800612c:	40013400 	.word	0x40013400

08006130 <TIM_OC4_SetConfig>:
 8006130:	6a03      	ldr	r3, [r0, #32]
 8006132:	f423 5380 	bic.w	r3, r3, #4096	; 0x1000
 8006136:	6203      	str	r3, [r0, #32]
 8006138:	b4f0      	push	{r4, r5, r6, r7}
 800613a:	6a03      	ldr	r3, [r0, #32]
 800613c:	6846      	ldr	r6, [r0, #4]
 800613e:	69c2      	ldr	r2, [r0, #28]
 8006140:	4f19      	ldr	r7, [pc, #100]	; (80061a8 <TIM_OC4_SetConfig+0x78>)
 8006142:	688d      	ldr	r5, [r1, #8]
 8006144:	680c      	ldr	r4, [r1, #0]
 8006146:	f022 7280 	bic.w	r2, r2, #16777216	; 0x1000000
 800614a:	f423 5300 	bic.w	r3, r3, #8192	; 0x2000
 800614e:	f422 42e6 	bic.w	r2, r2, #29440	; 0x7300
 8006152:	42b8      	cmp	r0, r7
 8006154:	ea43 3305 	orr.w	r3, r3, r5, lsl #12
 8006158:	ea42 2204 	orr.w	r2, r2, r4, lsl #8
 800615c:	d00f      	beq.n	800617e <TIM_OC4_SetConfig+0x4e>
 800615e:	4c13      	ldr	r4, [pc, #76]	; (80061ac <TIM_OC4_SetConfig+0x7c>)
 8006160:	42a0      	cmp	r0, r4
 8006162:	d00c      	beq.n	800617e <TIM_OC4_SetConfig+0x4e>
 8006164:	f504 6440 	add.w	r4, r4, #3072	; 0xc00
 8006168:	42a0      	cmp	r0, r4
 800616a:	d00f      	beq.n	800618c <TIM_OC4_SetConfig+0x5c>
 800616c:	f504 6480 	add.w	r4, r4, #1024	; 0x400
 8006170:	42a0      	cmp	r0, r4
 8006172:	d00b      	beq.n	800618c <TIM_OC4_SetConfig+0x5c>
 8006174:	f504 6480 	add.w	r4, r4, #1024	; 0x400
 8006178:	42a0      	cmp	r0, r4
 800617a:	d10e      	bne.n	800619a <TIM_OC4_SetConfig+0x6a>
 800617c:	e006      	b.n	800618c <TIM_OC4_SetConfig+0x5c>
 800617e:	68cc      	ldr	r4, [r1, #12]
 8006180:	f423 4300 	bic.w	r3, r3, #32768	; 0x8000
 8006184:	ea43 3304 	orr.w	r3, r3, r4, lsl #12
 8006188:	f423 4380 	bic.w	r3, r3, #16384	; 0x4000
 800618c:	e9d1 4505 	ldrd	r4, r5, [r1, #20]
 8006190:	f426 4640 	bic.w	r6, r6, #49152	; 0xc000
 8006194:	432c      	orrs	r4, r5
 8006196:	ea46 1684 	orr.w	r6, r6, r4, lsl #6
 800619a:	6849      	ldr	r1, [r1, #4]
 800619c:	6046      	str	r6, [r0, #4]
 800619e:	61c2      	str	r2, [r0, #28]
 80061a0:	bcf0      	pop	{r4, r5, r6, r7}
 80061a2:	6401      	str	r1, [r0, #64]	; 0x40
 80061a4:	6203      	str	r3, [r0, #32]
 80061a6:	4770      	bx	lr
 80061a8:	40012c00 	.word	0x40012c00
 80061ac:	40013400 	.word	0x40013400

080061b0 <HAL_TIM_Base_Init>:
 80061b0:	2800      	cmp	r0, #0
 80061b2:	d07d      	beq.n	80062b0 <HAL_TIM_Base_Init+0x100>
 80061b4:	b538      	push	{r3, r4, r5, lr}
 80061b6:	f890 303d 	ldrb.w	r3, [r0, #61]	; 0x3d
 80061ba:	4604      	mov	r4, r0
 80061bc:	f003 02ff 	and.w	r2, r3, #255	; 0xff
 80061c0:	2b00      	cmp	r3, #0
 80061c2:	d06d      	beq.n	80062a0 <HAL_TIM_Base_Init+0xf0>
 80061c4:	6821      	ldr	r1, [r4, #0]
 80061c6:	4a3b      	ldr	r2, [pc, #236]	; (80062b4 <HAL_TIM_Base_Init+0x104>)
 80061c8:	2302      	movs	r3, #2
 80061ca:	f884 303d 	strb.w	r3, [r4, #61]	; 0x3d
 80061ce:	4291      	cmp	r1, r2
 80061d0:	680b      	ldr	r3, [r1, #0]
 80061d2:	d051      	beq.n	8006278 <HAL_TIM_Base_Init+0xc8>
 80061d4:	f1b1 4f80 	cmp.w	r1, #1073741824	; 0x40000000
 80061d8:	d021      	beq.n	800621e <HAL_TIM_Base_Init+0x6e>
 80061da:	f5a2 3294 	sub.w	r2, r2, #75776	; 0x12800
 80061de:	4291      	cmp	r1, r2
 80061e0:	d01d      	beq.n	800621e <HAL_TIM_Base_Init+0x6e>
 80061e2:	f502 6280 	add.w	r2, r2, #1024	; 0x400
 80061e6:	4291      	cmp	r1, r2
 80061e8:	d019      	beq.n	800621e <HAL_TIM_Base_Init+0x6e>
 80061ea:	f502 3296 	add.w	r2, r2, #76800	; 0x12c00
 80061ee:	4291      	cmp	r1, r2
 80061f0:	d042      	beq.n	8006278 <HAL_TIM_Base_Init+0xc8>
 80061f2:	f502 6240 	add.w	r2, r2, #3072	; 0xc00
 80061f6:	4291      	cmp	r1, r2
 80061f8:	d057      	beq.n	80062aa <HAL_TIM_Base_Init+0xfa>
 80061fa:	f502 6280 	add.w	r2, r2, #1024	; 0x400
 80061fe:	4291      	cmp	r1, r2
 8006200:	d053      	beq.n	80062aa <HAL_TIM_Base_Init+0xfa>
 8006202:	f502 6280 	add.w	r2, r2, #1024	; 0x400
 8006206:	4291      	cmp	r1, r2
 8006208:	d04f      	beq.n	80062aa <HAL_TIM_Base_Init+0xfa>
 800620a:	69a5      	ldr	r5, [r4, #24]
 800620c:	68e0      	ldr	r0, [r4, #12]
 800620e:	6862      	ldr	r2, [r4, #4]
 8006210:	f023 0380 	bic.w	r3, r3, #128	; 0x80
 8006214:	432b      	orrs	r3, r5
 8006216:	600b      	str	r3, [r1, #0]
 8006218:	62c8      	str	r0, [r1, #44]	; 0x2c
 800621a:	628a      	str	r2, [r1, #40]	; 0x28
 800621c:	e010      	b.n	8006240 <HAL_TIM_Base_Init+0x90>
 800621e:	68a2      	ldr	r2, [r4, #8]
 8006220:	6925      	ldr	r5, [r4, #16]
 8006222:	68e0      	ldr	r0, [r4, #12]
 8006224:	f023 0370 	bic.w	r3, r3, #112	; 0x70
 8006228:	4313      	orrs	r3, r2
 800622a:	f423 7340 	bic.w	r3, r3, #768	; 0x300
 800622e:	69a2      	ldr	r2, [r4, #24]
 8006230:	432b      	orrs	r3, r5
 8006232:	f023 0380 	bic.w	r3, r3, #128	; 0x80
 8006236:	4313      	orrs	r3, r2
 8006238:	6862      	ldr	r2, [r4, #4]
 800623a:	600b      	str	r3, [r1, #0]
 800623c:	62c8      	str	r0, [r1, #44]	; 0x2c
 800623e:	628a      	str	r2, [r1, #40]	; 0x28
 8006240:	2301      	movs	r3, #1
 8006242:	614b      	str	r3, [r1, #20]
 8006244:	f884 3048 	strb.w	r3, [r4, #72]	; 0x48
 8006248:	f884 303e 	strb.w	r3, [r4, #62]	; 0x3e
 800624c:	f884 303f 	strb.w	r3, [r4, #63]	; 0x3f
 8006250:	f884 3040 	strb.w	r3, [r4, #64]	; 0x40
 8006254:	f884 3041 	strb.w	r3, [r4, #65]	; 0x41
 8006258:	f884 3042 	strb.w	r3, [r4, #66]	; 0x42
 800625c:	f884 3043 	strb.w	r3, [r4, #67]	; 0x43
 8006260:	f884 3044 	strb.w	r3, [r4, #68]	; 0x44
 8006264:	f884 3045 	strb.w	r3, [r4, #69]	; 0x45
 8006268:	f884 3046 	strb.w	r3, [r4, #70]	; 0x46
 800626c:	f884 3047 	strb.w	r3, [r4, #71]	; 0x47
 8006270:	f884 303d 	strb.w	r3, [r4, #61]	; 0x3d
 8006274:	2000      	movs	r0, #0
 8006276:	bd38      	pop	{r3, r4, r5, pc}
 8006278:	68a5      	ldr	r5, [r4, #8]
 800627a:	6920      	ldr	r0, [r4, #16]
 800627c:	69a2      	ldr	r2, [r4, #24]
 800627e:	f023 0370 	bic.w	r3, r3, #112	; 0x70
 8006282:	432b      	orrs	r3, r5
 8006284:	f423 7340 	bic.w	r3, r3, #768	; 0x300
 8006288:	4303      	orrs	r3, r0
 800628a:	f023 0380 	bic.w	r3, r3, #128	; 0x80
 800628e:	4313      	orrs	r3, r2
 8006290:	600b      	str	r3, [r1, #0]
 8006292:	68e3      	ldr	r3, [r4, #12]
 8006294:	62cb      	str	r3, [r1, #44]	; 0x2c
 8006296:	6863      	ldr	r3, [r4, #4]
 8006298:	628b      	str	r3, [r1, #40]	; 0x28
 800629a:	6963      	ldr	r3, [r4, #20]
 800629c:	630b      	str	r3, [r1, #48]	; 0x30
 800629e:	e7cf      	b.n	8006240 <HAL_TIM_Base_Init+0x90>
 80062a0:	f880 203c 	strb.w	r2, [r0, #60]	; 0x3c
 80062a4:	f7fd fb14 	bl	80038d0 <HAL_TIM_Base_MspInit>
 80062a8:	e78c      	b.n	80061c4 <HAL_TIM_Base_Init+0x14>
 80062aa:	6920      	ldr	r0, [r4, #16]
 80062ac:	69a2      	ldr	r2, [r4, #24]
 80062ae:	e7e9      	b.n	8006284 <HAL_TIM_Base_Init+0xd4>
 80062b0:	2001      	movs	r0, #1
 80062b2:	4770      	bx	lr
 80062b4:	40012c00 	.word	0x40012c00

080062b8 <HAL_TIM_PWM_MspInit>:
 80062b8:	4770      	bx	lr
 80062ba:	bf00      	nop

080062bc <HAL_TIM_PWM_Init>:
 80062bc:	2800      	cmp	r0, #0
 80062be:	d07d      	beq.n	80063bc <HAL_TIM_PWM_Init+0x100>
 80062c0:	b538      	push	{r3, r4, r5, lr}
 80062c2:	f890 303d 	ldrb.w	r3, [r0, #61]	; 0x3d
 80062c6:	4604      	mov	r4, r0
 80062c8:	f003 02ff 	and.w	r2, r3, #255	; 0xff
 80062cc:	2b00      	cmp	r3, #0
 80062ce:	d06d      	beq.n	80063ac <HAL_TIM_PWM_Init+0xf0>
 80062d0:	6821      	ldr	r1, [r4, #0]
 80062d2:	4a3b      	ldr	r2, [pc, #236]	; (80063c0 <HAL_TIM_PWM_Init+0x104>)
 80062d4:	2302      	movs	r3, #2
 80062d6:	f884 303d 	strb.w	r3, [r4, #61]	; 0x3d
 80062da:	4291      	cmp	r1, r2
 80062dc:	680b      	ldr	r3, [r1, #0]
 80062de:	d051      	beq.n	8006384 <HAL_TIM_PWM_Init+0xc8>
 80062e0:	f1b1 4f80 	cmp.w	r1, #1073741824	; 0x40000000
 80062e4:	d021      	beq.n	800632a <HAL_TIM_PWM_Init+0x6e>
 80062e6:	f5a2 3294 	sub.w	r2, r2, #75776	; 0x12800
 80062ea:	4291      	cmp	r1, r2
 80062ec:	d01d      	beq.n	800632a <HAL_TIM_PWM_Init+0x6e>
 80062ee:	f502 6280 	add.w	r2, r2, #1024	; 0x400
 80062f2:	4291      	cmp	r1, r2
 80062f4:	d019      	beq.n	800632a <HAL_TIM_PWM_Init+0x6e>
 80062f6:	f502 3296 	add.w	r2, r2, #76800	; 0x12c00
 80062fa:	4291      	cmp	r1, r2
 80062fc:	d042      	beq.n	8006384 <HAL_TIM_PWM_Init+0xc8>
 80062fe:	f502 6240 	add.w	r2, r2, #3072	; 0xc00
 8006302:	4291      	cmp	r1, r2
 8006304:	d057      	beq.n	80063b6 <HAL_TIM_PWM_Init+0xfa>
 8006306:	f502 6280 	add.w	r2, r2, #1024	; 0x400
 800630a:	4291      	cmp	r1, r2
 800630c:	d053      	beq.n	80063b6 <HAL_TIM_PWM_Init+0xfa>
 800630e:	f502 6280 	add.w	r2, r2, #1024	; 0x400
 8006312:	4291      	cmp	r1, r2
 8006314:	d04f      	beq.n	80063b6 <HAL_TIM_PWM_Init+0xfa>
 8006316:	69a5      	ldr	r5, [r4, #24]
 8006318:	68e0      	ldr	r0, [r4, #12]
 800631a:	6862      	ldr	r2, [r4, #4]
 800631c:	f023 0380 	bic.w	r3, r3, #128	; 0x80
 8006320:	432b      	orrs	r3, r5
 8006322:	600b      	str	r3, [r1, #0]
 8006324:	62c8      	str	r0, [r1, #44]	; 0x2c
 8006326:	628a      	str	r2, [r1, #40]	; 0x28
 8006328:	e010      	b.n	800634c <HAL_TIM_PWM_Init+0x90>
 800632a:	68a2      	ldr	r2, [r4, #8]
 800632c:	6925      	ldr	r5, [r4, #16]
 800632e:	68e0      	ldr	r0, [r4, #12]
 8006330:	f023 0370 	bic.w	r3, r3, #112	; 0x70
 8006334:	4313      	orrs	r3, r2
 8006336:	f423 7340 	bic.w	r3, r3, #768	; 0x300
 800633a:	69a2      	ldr	r2, [r4, #24]
 800633c:	432b      	orrs	r3, r5
 800633e:	f023 0380 	bic.w	r3, r3, #128	; 0x80
 8006342:	4313      	orrs	r3, r2
 8006344:	6862      	ldr	r2, [r4, #4]
 8006346:	600b      	str	r3, [r1, #0]
 8006348:	62c8      	str	r0, [r1, #44]	; 0x2c
 800634a:	628a      	str	r2, [r1, #40]	; 0x28
 800634c:	2301      	movs	r3, #1
 800634e:	614b      	str	r3, [r1, #20]
 8006350:	f884 3048 	strb.w	r3, [r4, #72]	; 0x48
 8006354:	f884 303e 	strb.w	r3, [r4, #62]	; 0x3e
 8006358:	f884 303f 	strb.w	r3, [r4, #63]	; 0x3f
 800635c:	f884 3040 	strb.w	r3, [r4, #64]	; 0x40
 8006360:	f884 3041 	strb.w	r3, [r4, #65]	; 0x41
 8006364:	f884 3042 	strb.w	r3, [r4, #66]	; 0x42
 8006368:	f884 3043 	strb.w	r3, [r4, #67]	; 0x43
 800636c:	f884 3044 	strb.w	r3, [r4, #68]	; 0x44
 8006370:	f884 3045 	strb.w	r3, [r4, #69]	; 0x45
 8006374:	f884 3046 	strb.w	r3, [r4, #70]	; 0x46
 8006378:	f884 3047 	strb.w	r3, [r4, #71]	; 0x47
 800637c:	f884 303d 	strb.w	r3, [r4, #61]	; 0x3d
 8006380:	2000      	movs	r0, #0
 8006382:	bd38      	pop	{r3, r4, r5, pc}
 8006384:	68a5      	ldr	r5, [r4, #8]
 8006386:	6920      	ldr	r0, [r4, #16]
 8006388:	69a2      	ldr	r2, [r4, #24]
 800638a:	f023 0370 	bic.w	r3, r3, #112	; 0x70
 800638e:	432b      	orrs	r3, r5
 8006390:	f423 7340 	bic.w	r3, r3, #768	; 0x300
 8006394:	4303      	orrs	r3, r0
 8006396:	f023 0380 	bic.w	r3, r3, #128	; 0x80
 800639a:	4313      	orrs	r3, r2
 800639c:	600b      	str	r3, [r1, #0]
 800639e:	68e3      	ldr	r3, [r4, #12]
 80063a0:	62cb      	str	r3, [r1, #44]	; 0x2c
 80063a2:	6863      	ldr	r3, [r4, #4]
 80063a4:	628b      	str	r3, [r1, #40]	; 0x28
 80063a6:	6963      	ldr	r3, [r4, #20]
 80063a8:	630b      	str	r3, [r1, #48]	; 0x30
 80063aa:	e7cf      	b.n	800634c <HAL_TIM_PWM_Init+0x90>
 80063ac:	f880 203c 	strb.w	r2, [r0, #60]	; 0x3c
 80063b0:	f7ff ff82 	bl	80062b8 <HAL_TIM_PWM_MspInit>
 80063b4:	e78c      	b.n	80062d0 <HAL_TIM_PWM_Init+0x14>
 80063b6:	6920      	ldr	r0, [r4, #16]
 80063b8:	69a2      	ldr	r2, [r4, #24]
 80063ba:	e7e9      	b.n	8006390 <HAL_TIM_PWM_Init+0xd4>
 80063bc:	2001      	movs	r0, #1
 80063be:	4770      	bx	lr
 80063c0:	40012c00 	.word	0x40012c00

080063c4 <HAL_TIM_Encoder_Init>:
 80063c4:	2800      	cmp	r0, #0
 80063c6:	f000 80ab 	beq.w	8006520 <HAL_TIM_Encoder_Init+0x15c>
 80063ca:	e92d 41f0 	stmdb	sp!, {r4, r5, r6, r7, r8, lr}
 80063ce:	f890 303d 	ldrb.w	r3, [r0, #61]	; 0x3d
 80063d2:	460d      	mov	r5, r1
 80063d4:	4604      	mov	r4, r0
 80063d6:	f003 02ff 	and.w	r2, r3, #255	; 0xff
 80063da:	2b00      	cmp	r3, #0
 80063dc:	f000 8095 	beq.w	800650a <HAL_TIM_Encoder_Init+0x146>
 80063e0:	6823      	ldr	r3, [r4, #0]
 80063e2:	4950      	ldr	r1, [pc, #320]	; (8006524 <HAL_TIM_Encoder_Init+0x160>)
 80063e4:	2202      	movs	r2, #2
 80063e6:	f884 203d 	strb.w	r2, [r4, #61]	; 0x3d
 80063ea:	689a      	ldr	r2, [r3, #8]
 80063ec:	f422 32a0 	bic.w	r2, r2, #81920	; 0x14000
 80063f0:	f022 0207 	bic.w	r2, r2, #7
 80063f4:	609a      	str	r2, [r3, #8]
 80063f6:	428b      	cmp	r3, r1
 80063f8:	681a      	ldr	r2, [r3, #0]
 80063fa:	d072      	beq.n	80064e2 <HAL_TIM_Encoder_Init+0x11e>
 80063fc:	f1b3 4f80 	cmp.w	r3, #1073741824	; 0x40000000
 8006400:	d021      	beq.n	8006446 <HAL_TIM_Encoder_Init+0x82>
 8006402:	f5a1 3194 	sub.w	r1, r1, #75776	; 0x12800
 8006406:	428b      	cmp	r3, r1
 8006408:	d01d      	beq.n	8006446 <HAL_TIM_Encoder_Init+0x82>
 800640a:	f501 6180 	add.w	r1, r1, #1024	; 0x400
 800640e:	428b      	cmp	r3, r1
 8006410:	d019      	beq.n	8006446 <HAL_TIM_Encoder_Init+0x82>
 8006412:	f501 3196 	add.w	r1, r1, #76800	; 0x12c00
 8006416:	428b      	cmp	r3, r1
 8006418:	d063      	beq.n	80064e2 <HAL_TIM_Encoder_Init+0x11e>
 800641a:	f501 6140 	add.w	r1, r1, #3072	; 0xc00
 800641e:	428b      	cmp	r3, r1
 8006420:	d078      	beq.n	8006514 <HAL_TIM_Encoder_Init+0x150>
 8006422:	f501 6180 	add.w	r1, r1, #1024	; 0x400
 8006426:	428b      	cmp	r3, r1
 8006428:	d074      	beq.n	8006514 <HAL_TIM_Encoder_Init+0x150>
 800642a:	f501 6180 	add.w	r1, r1, #1024	; 0x400
 800642e:	428b      	cmp	r3, r1
 8006430:	d070      	beq.n	8006514 <HAL_TIM_Encoder_Init+0x150>
 8006432:	69a1      	ldr	r1, [r4, #24]
 8006434:	68e0      	ldr	r0, [r4, #12]
 8006436:	f022 0280 	bic.w	r2, r2, #128	; 0x80
 800643a:	430a      	orrs	r2, r1
 800643c:	6861      	ldr	r1, [r4, #4]
 800643e:	601a      	str	r2, [r3, #0]
 8006440:	62d8      	str	r0, [r3, #44]	; 0x2c
 8006442:	6299      	str	r1, [r3, #40]	; 0x28
 8006444:	e010      	b.n	8006468 <HAL_TIM_Encoder_Init+0xa4>
 8006446:	68a1      	ldr	r1, [r4, #8]
 8006448:	6920      	ldr	r0, [r4, #16]
 800644a:	f022 0270 	bic.w	r2, r2, #112	; 0x70
 800644e:	430a      	orrs	r2, r1
 8006450:	f422 7240 	bic.w	r2, r2, #768	; 0x300
 8006454:	69a1      	ldr	r1, [r4, #24]
 8006456:	4302      	orrs	r2, r0
 8006458:	f022 0280 	bic.w	r2, r2, #128	; 0x80
 800645c:	68e0      	ldr	r0, [r4, #12]
 800645e:	430a      	orrs	r2, r1
 8006460:	6861      	ldr	r1, [r4, #4]
 8006462:	601a      	str	r2, [r3, #0]
 8006464:	62d8      	str	r0, [r3, #44]	; 0x2c
 8006466:	6299      	str	r1, [r3, #40]	; 0x28
 8006468:	2601      	movs	r6, #1
 800646a:	615e      	str	r6, [r3, #20]
 800646c:	f8d3 c008 	ldr.w	ip, [r3, #8]
 8006470:	6998      	ldr	r0, [r3, #24]
 8006472:	692a      	ldr	r2, [r5, #16]
 8006474:	69af      	ldr	r7, [r5, #24]
 8006476:	68a9      	ldr	r1, [r5, #8]
 8006478:	f8d5 e000 	ldr.w	lr, [r5]
 800647c:	f420 7840 	bic.w	r8, r0, #768	; 0x300
 8006480:	69e8      	ldr	r0, [r5, #28]
 8006482:	0112      	lsls	r2, r2, #4
 8006484:	ea42 2200 	orr.w	r2, r2, r0, lsl #8
 8006488:	68e8      	ldr	r0, [r5, #12]
 800648a:	4302      	orrs	r2, r0
 800648c:	6a28      	ldr	r0, [r5, #32]
 800648e:	f028 0803 	bic.w	r8, r8, #3
 8006492:	ea41 2107 	orr.w	r1, r1, r7, lsl #8
 8006496:	ea41 0108 	orr.w	r1, r1, r8
 800649a:	6a1f      	ldr	r7, [r3, #32]
 800649c:	f8d5 8014 	ldr.w	r8, [r5, #20]
 80064a0:	ea42 3200 	orr.w	r2, r2, r0, lsl #12
 80064a4:	6868      	ldr	r0, [r5, #4]
 80064a6:	f421 417c 	bic.w	r1, r1, #64512	; 0xfc00
 80064aa:	ea40 1008 	orr.w	r0, r0, r8, lsl #4
 80064ae:	f021 01fc 	bic.w	r1, r1, #252	; 0xfc
 80064b2:	f027 07aa 	bic.w	r7, r7, #170	; 0xaa
 80064b6:	4307      	orrs	r7, r0
 80064b8:	ea4c 050e 	orr.w	r5, ip, lr
 80064bc:	430a      	orrs	r2, r1
 80064be:	609d      	str	r5, [r3, #8]
 80064c0:	619a      	str	r2, [r3, #24]
 80064c2:	621f      	str	r7, [r3, #32]
 80064c4:	f884 6048 	strb.w	r6, [r4, #72]	; 0x48
 80064c8:	f884 603e 	strb.w	r6, [r4, #62]	; 0x3e
 80064cc:	f884 603f 	strb.w	r6, [r4, #63]	; 0x3f
 80064d0:	f884 6044 	strb.w	r6, [r4, #68]	; 0x44
 80064d4:	f884 6045 	strb.w	r6, [r4, #69]	; 0x45
 80064d8:	f884 603d 	strb.w	r6, [r4, #61]	; 0x3d
 80064dc:	2000      	movs	r0, #0
 80064de:	e8bd 81f0 	ldmia.w	sp!, {r4, r5, r6, r7, r8, pc}
 80064e2:	68a0      	ldr	r0, [r4, #8]
 80064e4:	6921      	ldr	r1, [r4, #16]
 80064e6:	f022 0270 	bic.w	r2, r2, #112	; 0x70
 80064ea:	4302      	orrs	r2, r0
 80064ec:	f422 7240 	bic.w	r2, r2, #768	; 0x300
 80064f0:	430a      	orrs	r2, r1
 80064f2:	69a1      	ldr	r1, [r4, #24]
 80064f4:	f022 0280 	bic.w	r2, r2, #128	; 0x80
 80064f8:	430a      	orrs	r2, r1
 80064fa:	601a      	str	r2, [r3, #0]
 80064fc:	68e2      	ldr	r2, [r4, #12]
 80064fe:	62da      	str	r2, [r3, #44]	; 0x2c
 8006500:	6862      	ldr	r2, [r4, #4]
 8006502:	629a      	str	r2, [r3, #40]	; 0x28
 8006504:	6962      	ldr	r2, [r4, #20]
 8006506:	631a      	str	r2, [r3, #48]	; 0x30
 8006508:	e7ae      	b.n	8006468 <HAL_TIM_Encoder_Init+0xa4>
 800650a:	f880 203c 	strb.w	r2, [r0, #60]	; 0x3c
 800650e:	f7fd f9f5 	bl	80038fc <HAL_TIM_Encoder_MspInit>
 8006512:	e765      	b.n	80063e0 <HAL_TIM_Encoder_Init+0x1c>
 8006514:	6920      	ldr	r0, [r4, #16]
 8006516:	69a1      	ldr	r1, [r4, #24]
 8006518:	f422 7240 	bic.w	r2, r2, #768	; 0x300
 800651c:	4302      	orrs	r2, r0
 800651e:	e7e9      	b.n	80064f4 <HAL_TIM_Encoder_Init+0x130>
 8006520:	2001      	movs	r0, #1
 8006522:	4770      	bx	lr
 8006524:	40012c00 	.word	0x40012c00

08006528 <HAL_TIM_SlaveConfigSynchro>:
 8006528:	f890 303c 	ldrb.w	r3, [r0, #60]	; 0x3c
 800652c:	2b01      	cmp	r3, #1
 800652e:	d04d      	beq.n	80065cc <HAL_TIM_SlaveConfigSynchro+0xa4>
 8006530:	4602      	mov	r2, r0
 8006532:	b4f0      	push	{r4, r5, r6, r7}
 8006534:	6800      	ldr	r0, [r0, #0]
 8006536:	2401      	movs	r4, #1
 8006538:	2302      	movs	r3, #2
 800653a:	f882 403c 	strb.w	r4, [r2, #60]	; 0x3c
 800653e:	f882 303d 	strb.w	r3, [r2, #61]	; 0x3d
 8006542:	6883      	ldr	r3, [r0, #8]
 8006544:	e9d1 5400 	ldrd	r5, r4, [r1]
 8006548:	f423 1340 	bic.w	r3, r3, #3145728	; 0x300000
 800654c:	f023 0370 	bic.w	r3, r3, #112	; 0x70
 8006550:	4323      	orrs	r3, r4
 8006552:	f423 3380 	bic.w	r3, r3, #65536	; 0x10000
 8006556:	f023 0307 	bic.w	r3, r3, #7
 800655a:	432b      	orrs	r3, r5
 800655c:	2c60      	cmp	r4, #96	; 0x60
 800655e:	6083      	str	r3, [r0, #8]
 8006560:	d051      	beq.n	8006606 <HAL_TIM_SlaveConfigSynchro+0xde>
 8006562:	d825      	bhi.n	80065b0 <HAL_TIM_SlaveConfigSynchro+0x88>
 8006564:	2c40      	cmp	r4, #64	; 0x40
 8006566:	d033      	beq.n	80065d0 <HAL_TIM_SlaveConfigSynchro+0xa8>
 8006568:	2c50      	cmp	r4, #80	; 0x50
 800656a:	d110      	bne.n	800658e <HAL_TIM_SlaveConfigSynchro+0x66>
 800656c:	6a05      	ldr	r5, [r0, #32]
 800656e:	6a06      	ldr	r6, [r0, #32]
 8006570:	688c      	ldr	r4, [r1, #8]
 8006572:	690f      	ldr	r7, [r1, #16]
 8006574:	f026 0601 	bic.w	r6, r6, #1
 8006578:	6206      	str	r6, [r0, #32]
 800657a:	6983      	ldr	r3, [r0, #24]
 800657c:	f025 010a 	bic.w	r1, r5, #10
 8006580:	f023 03f0 	bic.w	r3, r3, #240	; 0xf0
 8006584:	4321      	orrs	r1, r4
 8006586:	ea43 1307 	orr.w	r3, r3, r7, lsl #4
 800658a:	6183      	str	r3, [r0, #24]
 800658c:	6201      	str	r1, [r0, #32]
 800658e:	68c3      	ldr	r3, [r0, #12]
 8006590:	f023 0340 	bic.w	r3, r3, #64	; 0x40
 8006594:	60c3      	str	r3, [r0, #12]
 8006596:	68c3      	ldr	r3, [r0, #12]
 8006598:	2401      	movs	r4, #1
 800659a:	2100      	movs	r1, #0
 800659c:	f423 4380 	bic.w	r3, r3, #16384	; 0x4000
 80065a0:	60c3      	str	r3, [r0, #12]
 80065a2:	f882 403d 	strb.w	r4, [r2, #61]	; 0x3d
 80065a6:	f882 103c 	strb.w	r1, [r2, #60]	; 0x3c
 80065aa:	4608      	mov	r0, r1
 80065ac:	bcf0      	pop	{r4, r5, r6, r7}
 80065ae:	4770      	bx	lr
 80065b0:	2c70      	cmp	r4, #112	; 0x70
 80065b2:	d1ec      	bne.n	800658e <HAL_TIM_SlaveConfigSynchro+0x66>
 80065b4:	e9d1 5302 	ldrd	r5, r3, [r1, #8]
 80065b8:	690c      	ldr	r4, [r1, #16]
 80065ba:	6881      	ldr	r1, [r0, #8]
 80065bc:	432b      	orrs	r3, r5
 80065be:	ea43 2304 	orr.w	r3, r3, r4, lsl #8
 80065c2:	f421 417f 	bic.w	r1, r1, #65280	; 0xff00
 80065c6:	430b      	orrs	r3, r1
 80065c8:	6083      	str	r3, [r0, #8]
 80065ca:	e7e0      	b.n	800658e <HAL_TIM_SlaveConfigSynchro+0x66>
 80065cc:	2002      	movs	r0, #2
 80065ce:	4770      	bx	lr
 80065d0:	2d05      	cmp	r5, #5
 80065d2:	d010      	beq.n	80065f6 <HAL_TIM_SlaveConfigSynchro+0xce>
 80065d4:	f1b5 1f01 	cmp.w	r5, #65537	; 0x10001
 80065d8:	d00d      	beq.n	80065f6 <HAL_TIM_SlaveConfigSynchro+0xce>
 80065da:	6a05      	ldr	r5, [r0, #32]
 80065dc:	6a04      	ldr	r4, [r0, #32]
 80065de:	690e      	ldr	r6, [r1, #16]
 80065e0:	f024 0401 	bic.w	r4, r4, #1
 80065e4:	6204      	str	r4, [r0, #32]
 80065e6:	6983      	ldr	r3, [r0, #24]
 80065e8:	f023 03f0 	bic.w	r3, r3, #240	; 0xf0
 80065ec:	ea43 1306 	orr.w	r3, r3, r6, lsl #4
 80065f0:	6183      	str	r3, [r0, #24]
 80065f2:	6205      	str	r5, [r0, #32]
 80065f4:	e7cb      	b.n	800658e <HAL_TIM_SlaveConfigSynchro+0x66>
 80065f6:	2001      	movs	r0, #1
 80065f8:	2300      	movs	r3, #0
 80065fa:	f882 003d 	strb.w	r0, [r2, #61]	; 0x3d
 80065fe:	f882 303c 	strb.w	r3, [r2, #60]	; 0x3c
 8006602:	bcf0      	pop	{r4, r5, r6, r7}
 8006604:	4770      	bx	lr
 8006606:	6a04      	ldr	r4, [r0, #32]
 8006608:	688d      	ldr	r5, [r1, #8]
 800660a:	690e      	ldr	r6, [r1, #16]
 800660c:	f024 0410 	bic.w	r4, r4, #16
 8006610:	6204      	str	r4, [r0, #32]
 8006612:	6981      	ldr	r1, [r0, #24]
 8006614:	6a03      	ldr	r3, [r0, #32]
 8006616:	f421 4170 	bic.w	r1, r1, #61440	; 0xf000
 800661a:	f023 03a0 	bic.w	r3, r3, #160	; 0xa0
 800661e:	ea41 3106 	orr.w	r1, r1, r6, lsl #12
 8006622:	ea43 1305 	orr.w	r3, r3, r5, lsl #4
 8006626:	6181      	str	r1, [r0, #24]
 8006628:	6203      	str	r3, [r0, #32]
 800662a:	e7b0      	b.n	800658e <HAL_TIM_SlaveConfigSynchro+0x66>

0800662c <TIM_OC2_SetConfig>:
 800662c:	6a03      	ldr	r3, [r0, #32]
 800662e:	f023 0310 	bic.w	r3, r3, #16
 8006632:	6203      	str	r3, [r0, #32]
 8006634:	b4f0      	push	{r4, r5, r6, r7}
 8006636:	6a03      	ldr	r3, [r0, #32]
 8006638:	6846      	ldr	r6, [r0, #4]
 800663a:	6982      	ldr	r2, [r0, #24]
 800663c:	4f19      	ldr	r7, [pc, #100]	; (80066a4 <TIM_OC2_SetConfig+0x78>)
 800663e:	688d      	ldr	r5, [r1, #8]
 8006640:	680c      	ldr	r4, [r1, #0]
 8006642:	f022 7280 	bic.w	r2, r2, #16777216	; 0x1000000
 8006646:	f023 0320 	bic.w	r3, r3, #32
 800664a:	f422 42e6 	bic.w	r2, r2, #29440	; 0x7300
 800664e:	42b8      	cmp	r0, r7
 8006650:	ea43 1305 	orr.w	r3, r3, r5, lsl #4
 8006654:	ea42 2204 	orr.w	r2, r2, r4, lsl #8
 8006658:	d00f      	beq.n	800667a <TIM_OC2_SetConfig+0x4e>
 800665a:	4c13      	ldr	r4, [pc, #76]	; (80066a8 <TIM_OC2_SetConfig+0x7c>)
 800665c:	42a0      	cmp	r0, r4
 800665e:	d00c      	beq.n	800667a <TIM_OC2_SetConfig+0x4e>
 8006660:	f504 6440 	add.w	r4, r4, #3072	; 0xc00
 8006664:	42a0      	cmp	r0, r4
 8006666:	d00f      	beq.n	8006688 <TIM_OC2_SetConfig+0x5c>
 8006668:	f504 6480 	add.w	r4, r4, #1024	; 0x400
 800666c:	42a0      	cmp	r0, r4
 800666e:	d00b      	beq.n	8006688 <TIM_OC2_SetConfig+0x5c>
 8006670:	f504 6480 	add.w	r4, r4, #1024	; 0x400
 8006674:	42a0      	cmp	r0, r4
 8006676:	d10e      	bne.n	8006696 <TIM_OC2_SetConfig+0x6a>
 8006678:	e006      	b.n	8006688 <TIM_OC2_SetConfig+0x5c>
 800667a:	68cc      	ldr	r4, [r1, #12]
 800667c:	f023 0380 	bic.w	r3, r3, #128	; 0x80
 8006680:	ea43 1304 	orr.w	r3, r3, r4, lsl #4
 8006684:	f023 0340 	bic.w	r3, r3, #64	; 0x40
 8006688:	e9d1 4505 	ldrd	r4, r5, [r1, #20]
 800668c:	f426 6640 	bic.w	r6, r6, #3072	; 0xc00
 8006690:	432c      	orrs	r4, r5
 8006692:	ea46 0684 	orr.w	r6, r6, r4, lsl #2
 8006696:	6849      	ldr	r1, [r1, #4]
 8006698:	6046      	str	r6, [r0, #4]
 800669a:	6182      	str	r2, [r0, #24]
 800669c:	bcf0      	pop	{r4, r5, r6, r7}
 800669e:	6381      	str	r1, [r0, #56]	; 0x38
 80066a0:	6203      	str	r3, [r0, #32]
 80066a2:	4770      	bx	lr
 80066a4:	40012c00 	.word	0x40012c00
 80066a8:	40013400 	.word	0x40013400

080066ac <HAL_TIM_PWM_ConfigChannel>:
 80066ac:	b5f8      	push	{r3, r4, r5, r6, r7, lr}
 80066ae:	f890 303c 	ldrb.w	r3, [r0, #60]	; 0x3c
 80066b2:	2b01      	cmp	r3, #1
 80066b4:	f000 80e4 	beq.w	8006880 <HAL_TIM_PWM_ConfigChannel+0x1d4>
 80066b8:	2301      	movs	r3, #1
 80066ba:	4604      	mov	r4, r0
 80066bc:	460d      	mov	r5, r1
 80066be:	f880 303c 	strb.w	r3, [r0, #60]	; 0x3c
 80066c2:	2a14      	cmp	r2, #20
 80066c4:	d844      	bhi.n	8006750 <HAL_TIM_PWM_ConfigChannel+0xa4>
 80066c6:	e8df f002 	tbb	[pc, r2]
 80066ca:	4347      	.short	0x4347
 80066cc:	435b4343 	.word	0x435b4343
 80066d0:	43704343 	.word	0x43704343
 80066d4:	43844343 	.word	0x43844343
 80066d8:	43994343 	.word	0x43994343
 80066dc:	4343      	.short	0x4343
 80066de:	0b          	.byte	0x0b
 80066df:	00          	.byte	0x00
 80066e0:	6803      	ldr	r3, [r0, #0]
 80066e2:	f8d1 c008 	ldr.w	ip, [r1, #8]
 80066e6:	6a18      	ldr	r0, [r3, #32]
 80066e8:	680f      	ldr	r7, [r1, #0]
 80066ea:	4e6c      	ldr	r6, [pc, #432]	; (800689c <HAL_TIM_PWM_ConfigChannel+0x1f0>)
 80066ec:	f420 1080 	bic.w	r0, r0, #1048576	; 0x100000
 80066f0:	6218      	str	r0, [r3, #32]
 80066f2:	6a19      	ldr	r1, [r3, #32]
 80066f4:	6858      	ldr	r0, [r3, #4]
 80066f6:	6d1a      	ldr	r2, [r3, #80]	; 0x50
 80066f8:	f022 7280 	bic.w	r2, r2, #16777216	; 0x1000000
 80066fc:	f421 1100 	bic.w	r1, r1, #2097152	; 0x200000
 8006700:	f422 42e0 	bic.w	r2, r2, #28672	; 0x7000
 8006704:	42b3      	cmp	r3, r6
 8006706:	ea41 510c 	orr.w	r1, r1, ip, lsl #20
 800670a:	ea42 2207 	orr.w	r2, r2, r7, lsl #8
 800670e:	d008      	beq.n	8006722 <HAL_TIM_PWM_ConfigChannel+0x76>
 8006710:	f506 6600 	add.w	r6, r6, #2048	; 0x800
 8006714:	42b3      	cmp	r3, r6
 8006716:	d004      	beq.n	8006722 <HAL_TIM_PWM_ConfigChannel+0x76>
 8006718:	f506 6640 	add.w	r6, r6, #3072	; 0xc00
 800671c:	42b3      	cmp	r3, r6
 800671e:	f040 80b1 	bne.w	8006884 <HAL_TIM_PWM_ConfigChannel+0x1d8>
 8006722:	696e      	ldr	r6, [r5, #20]
 8006724:	f420 2080 	bic.w	r0, r0, #262144	; 0x40000
 8006728:	ea40 2086 	orr.w	r0, r0, r6, lsl #10
 800672c:	686e      	ldr	r6, [r5, #4]
 800672e:	6058      	str	r0, [r3, #4]
 8006730:	651a      	str	r2, [r3, #80]	; 0x50
 8006732:	64de      	str	r6, [r3, #76]	; 0x4c
 8006734:	6219      	str	r1, [r3, #32]
 8006736:	6d19      	ldr	r1, [r3, #80]	; 0x50
 8006738:	6928      	ldr	r0, [r5, #16]
 800673a:	f441 6100 	orr.w	r1, r1, #2048	; 0x800
 800673e:	6519      	str	r1, [r3, #80]	; 0x50
 8006740:	6d19      	ldr	r1, [r3, #80]	; 0x50
 8006742:	f421 6180 	bic.w	r1, r1, #1024	; 0x400
 8006746:	6519      	str	r1, [r3, #80]	; 0x50
 8006748:	6d1a      	ldr	r2, [r3, #80]	; 0x50
 800674a:	ea42 2200 	orr.w	r2, r2, r0, lsl #8
 800674e:	651a      	str	r2, [r3, #80]	; 0x50
 8006750:	2000      	movs	r0, #0
 8006752:	f884 003c 	strb.w	r0, [r4, #60]	; 0x3c
 8006756:	bdf8      	pop	{r3, r4, r5, r6, r7, pc}
 8006758:	6800      	ldr	r0, [r0, #0]
 800675a:	f7ff fc6b 	bl	8006034 <TIM_OC1_SetConfig>
 800675e:	6823      	ldr	r3, [r4, #0]
 8006760:	6928      	ldr	r0, [r5, #16]
 8006762:	6999      	ldr	r1, [r3, #24]
 8006764:	f041 0108 	orr.w	r1, r1, #8
 8006768:	6199      	str	r1, [r3, #24]
 800676a:	6999      	ldr	r1, [r3, #24]
 800676c:	f021 0104 	bic.w	r1, r1, #4
 8006770:	6199      	str	r1, [r3, #24]
 8006772:	699a      	ldr	r2, [r3, #24]
 8006774:	4302      	orrs	r2, r0
 8006776:	2000      	movs	r0, #0
 8006778:	619a      	str	r2, [r3, #24]
 800677a:	f884 003c 	strb.w	r0, [r4, #60]	; 0x3c
 800677e:	e7ea      	b.n	8006756 <HAL_TIM_PWM_ConfigChannel+0xaa>
 8006780:	6800      	ldr	r0, [r0, #0]
 8006782:	f7ff ff53 	bl	800662c <TIM_OC2_SetConfig>
 8006786:	6823      	ldr	r3, [r4, #0]
 8006788:	6928      	ldr	r0, [r5, #16]
 800678a:	6999      	ldr	r1, [r3, #24]
 800678c:	f441 6100 	orr.w	r1, r1, #2048	; 0x800
 8006790:	6199      	str	r1, [r3, #24]
 8006792:	6999      	ldr	r1, [r3, #24]
 8006794:	f421 6180 	bic.w	r1, r1, #1024	; 0x400
 8006798:	6199      	str	r1, [r3, #24]
 800679a:	699a      	ldr	r2, [r3, #24]
 800679c:	ea42 2200 	orr.w	r2, r2, r0, lsl #8
 80067a0:	2000      	movs	r0, #0
 80067a2:	619a      	str	r2, [r3, #24]
 80067a4:	f884 003c 	strb.w	r0, [r4, #60]	; 0x3c
 80067a8:	e7d5      	b.n	8006756 <HAL_TIM_PWM_ConfigChannel+0xaa>
 80067aa:	6800      	ldr	r0, [r0, #0]
 80067ac:	f7ff fc80 	bl	80060b0 <TIM_OC3_SetConfig>
 80067b0:	6823      	ldr	r3, [r4, #0]
 80067b2:	6928      	ldr	r0, [r5, #16]
 80067b4:	69d9      	ldr	r1, [r3, #28]
 80067b6:	f041 0108 	orr.w	r1, r1, #8
 80067ba:	61d9      	str	r1, [r3, #28]
 80067bc:	69d9      	ldr	r1, [r3, #28]
 80067be:	f021 0104 	bic.w	r1, r1, #4
 80067c2:	61d9      	str	r1, [r3, #28]
 80067c4:	69da      	ldr	r2, [r3, #28]
 80067c6:	4302      	orrs	r2, r0
 80067c8:	2000      	movs	r0, #0
 80067ca:	61da      	str	r2, [r3, #28]
 80067cc:	f884 003c 	strb.w	r0, [r4, #60]	; 0x3c
 80067d0:	e7c1      	b.n	8006756 <HAL_TIM_PWM_ConfigChannel+0xaa>
 80067d2:	6800      	ldr	r0, [r0, #0]
 80067d4:	f7ff fcac 	bl	8006130 <TIM_OC4_SetConfig>
 80067d8:	6823      	ldr	r3, [r4, #0]
 80067da:	6928      	ldr	r0, [r5, #16]
 80067dc:	69d9      	ldr	r1, [r3, #28]
 80067de:	f441 6100 	orr.w	r1, r1, #2048	; 0x800
 80067e2:	61d9      	str	r1, [r3, #28]
 80067e4:	69d9      	ldr	r1, [r3, #28]
 80067e6:	f421 6180 	bic.w	r1, r1, #1024	; 0x400
 80067ea:	61d9      	str	r1, [r3, #28]
 80067ec:	69da      	ldr	r2, [r3, #28]
 80067ee:	ea42 2200 	orr.w	r2, r2, r0, lsl #8
 80067f2:	2000      	movs	r0, #0
 80067f4:	61da      	str	r2, [r3, #28]
 80067f6:	f884 003c 	strb.w	r0, [r4, #60]	; 0x3c
 80067fa:	e7ac      	b.n	8006756 <HAL_TIM_PWM_ConfigChannel+0xaa>
 80067fc:	6803      	ldr	r3, [r0, #0]
 80067fe:	f8d1 c008 	ldr.w	ip, [r1, #8]
 8006802:	6a18      	ldr	r0, [r3, #32]
 8006804:	680f      	ldr	r7, [r1, #0]
 8006806:	4e25      	ldr	r6, [pc, #148]	; (800689c <HAL_TIM_PWM_ConfigChannel+0x1f0>)
 8006808:	f420 3080 	bic.w	r0, r0, #65536	; 0x10000
 800680c:	6218      	str	r0, [r3, #32]
 800680e:	6a19      	ldr	r1, [r3, #32]
 8006810:	6858      	ldr	r0, [r3, #4]
 8006812:	6d1a      	ldr	r2, [r3, #80]	; 0x50
 8006814:	f422 3280 	bic.w	r2, r2, #65536	; 0x10000
 8006818:	f421 3100 	bic.w	r1, r1, #131072	; 0x20000
 800681c:	f022 0270 	bic.w	r2, r2, #112	; 0x70
 8006820:	42b3      	cmp	r3, r6
 8006822:	ea41 410c 	orr.w	r1, r1, ip, lsl #16
 8006826:	ea42 0207 	orr.w	r2, r2, r7
 800682a:	d00f      	beq.n	800684c <HAL_TIM_PWM_ConfigChannel+0x1a0>
 800682c:	f506 6600 	add.w	r6, r6, #2048	; 0x800
 8006830:	42b3      	cmp	r3, r6
 8006832:	d00b      	beq.n	800684c <HAL_TIM_PWM_ConfigChannel+0x1a0>
 8006834:	f506 6640 	add.w	r6, r6, #3072	; 0xc00
 8006838:	42b3      	cmp	r3, r6
 800683a:	d007      	beq.n	800684c <HAL_TIM_PWM_ConfigChannel+0x1a0>
 800683c:	f506 6680 	add.w	r6, r6, #1024	; 0x400
 8006840:	42b3      	cmp	r3, r6
 8006842:	d003      	beq.n	800684c <HAL_TIM_PWM_ConfigChannel+0x1a0>
 8006844:	f506 6680 	add.w	r6, r6, #1024	; 0x400
 8006848:	42b3      	cmp	r3, r6
 800684a:	d104      	bne.n	8006856 <HAL_TIM_PWM_ConfigChannel+0x1aa>
 800684c:	696e      	ldr	r6, [r5, #20]
 800684e:	f420 3080 	bic.w	r0, r0, #65536	; 0x10000
 8006852:	ea40 2006 	orr.w	r0, r0, r6, lsl #8
 8006856:	686e      	ldr	r6, [r5, #4]
 8006858:	6058      	str	r0, [r3, #4]
 800685a:	651a      	str	r2, [r3, #80]	; 0x50
 800685c:	649e      	str	r6, [r3, #72]	; 0x48
 800685e:	6219      	str	r1, [r3, #32]
 8006860:	6d19      	ldr	r1, [r3, #80]	; 0x50
 8006862:	6928      	ldr	r0, [r5, #16]
 8006864:	f041 0108 	orr.w	r1, r1, #8
 8006868:	6519      	str	r1, [r3, #80]	; 0x50
 800686a:	6d19      	ldr	r1, [r3, #80]	; 0x50
 800686c:	f021 0104 	bic.w	r1, r1, #4
 8006870:	6519      	str	r1, [r3, #80]	; 0x50
 8006872:	6d1a      	ldr	r2, [r3, #80]	; 0x50
 8006874:	4302      	orrs	r2, r0
 8006876:	2000      	movs	r0, #0
 8006878:	651a      	str	r2, [r3, #80]	; 0x50
 800687a:	f884 003c 	strb.w	r0, [r4, #60]	; 0x3c
 800687e:	e76a      	b.n	8006756 <HAL_TIM_PWM_ConfigChannel+0xaa>
 8006880:	2002      	movs	r0, #2
 8006882:	bdf8      	pop	{r3, r4, r5, r6, r7, pc}
 8006884:	f506 6680 	add.w	r6, r6, #1024	; 0x400
 8006888:	42b3      	cmp	r3, r6
 800688a:	f43f af4a 	beq.w	8006722 <HAL_TIM_PWM_ConfigChannel+0x76>
 800688e:	f506 6680 	add.w	r6, r6, #1024	; 0x400
 8006892:	42b3      	cmp	r3, r6
 8006894:	f47f af4a 	bne.w	800672c <HAL_TIM_PWM_ConfigChannel+0x80>
 8006898:	e743      	b.n	8006722 <HAL_TIM_PWM_ConfigChannel+0x76>
 800689a:	bf00      	nop
 800689c:	40012c00 	.word	0x40012c00

080068a0 <HAL_TIMEx_MasterConfigSynchronization>:
 80068a0:	f890 303c 	ldrb.w	r3, [r0, #60]	; 0x3c
 80068a4:	2b01      	cmp	r3, #1
 80068a6:	d03c      	beq.n	8006922 <HAL_TIMEx_MasterConfigSynchronization+0x82>
 80068a8:	b470      	push	{r4, r5, r6}
 80068aa:	6802      	ldr	r2, [r0, #0]
 80068ac:	4c1e      	ldr	r4, [pc, #120]	; (8006928 <HAL_TIMEx_MasterConfigSynchronization+0x88>)
 80068ae:	2302      	movs	r3, #2
 80068b0:	f880 303d 	strb.w	r3, [r0, #61]	; 0x3d
 80068b4:	42a2      	cmp	r2, r4
 80068b6:	6853      	ldr	r3, [r2, #4]
 80068b8:	6895      	ldr	r5, [r2, #8]
 80068ba:	d026      	beq.n	800690a <HAL_TIMEx_MasterConfigSynchronization+0x6a>
 80068bc:	f504 6400 	add.w	r4, r4, #2048	; 0x800
 80068c0:	42a2      	cmp	r2, r4
 80068c2:	d022      	beq.n	800690a <HAL_TIMEx_MasterConfigSynchronization+0x6a>
 80068c4:	680c      	ldr	r4, [r1, #0]
 80068c6:	f023 7300 	bic.w	r3, r3, #33554432	; 0x2000000
 80068ca:	f023 0370 	bic.w	r3, r3, #112	; 0x70
 80068ce:	4323      	orrs	r3, r4
 80068d0:	f1b2 4f80 	cmp.w	r2, #1073741824	; 0x40000000
 80068d4:	6053      	str	r3, [r2, #4]
 80068d6:	d00a      	beq.n	80068ee <HAL_TIMEx_MasterConfigSynchronization+0x4e>
 80068d8:	4b14      	ldr	r3, [pc, #80]	; (800692c <HAL_TIMEx_MasterConfigSynchronization+0x8c>)
 80068da:	429a      	cmp	r2, r3
 80068dc:	d007      	beq.n	80068ee <HAL_TIMEx_MasterConfigSynchronization+0x4e>
 80068de:	f503 6380 	add.w	r3, r3, #1024	; 0x400
 80068e2:	429a      	cmp	r2, r3
 80068e4:	d003      	beq.n	80068ee <HAL_TIMEx_MasterConfigSynchronization+0x4e>
 80068e6:	f503 339c 	add.w	r3, r3, #79872	; 0x13800
 80068ea:	429a      	cmp	r2, r3
 80068ec:	d104      	bne.n	80068f8 <HAL_TIMEx_MasterConfigSynchronization+0x58>
 80068ee:	688b      	ldr	r3, [r1, #8]
 80068f0:	f025 0580 	bic.w	r5, r5, #128	; 0x80
 80068f4:	431d      	orrs	r5, r3
 80068f6:	6095      	str	r5, [r2, #8]
 80068f8:	2300      	movs	r3, #0
 80068fa:	2201      	movs	r2, #1
 80068fc:	f880 203d 	strb.w	r2, [r0, #61]	; 0x3d
 8006900:	f880 303c 	strb.w	r3, [r0, #60]	; 0x3c
 8006904:	bc70      	pop	{r4, r5, r6}
 8006906:	4618      	mov	r0, r3
 8006908:	4770      	bx	lr
 800690a:	e9d1 4600 	ldrd	r4, r6, [r1]
 800690e:	f423 0370 	bic.w	r3, r3, #15728640	; 0xf00000
 8006912:	4333      	orrs	r3, r6
 8006914:	f023 7300 	bic.w	r3, r3, #33554432	; 0x2000000
 8006918:	f023 0370 	bic.w	r3, r3, #112	; 0x70
 800691c:	4323      	orrs	r3, r4
 800691e:	6053      	str	r3, [r2, #4]
 8006920:	e7e5      	b.n	80068ee <HAL_TIMEx_MasterConfigSynchronization+0x4e>
 8006922:	2002      	movs	r0, #2
 8006924:	4770      	bx	lr
 8006926:	bf00      	nop
 8006928:	40012c00 	.word	0x40012c00
 800692c:	40000400 	.word	0x40000400

08006930 <HAL_TIMEx_ConfigBreakDeadTime>:
 8006930:	f890 303c 	ldrb.w	r3, [r0, #60]	; 0x3c
 8006934:	2b01      	cmp	r3, #1
 8006936:	d044      	beq.n	80069c2 <HAL_TIMEx_ConfigBreakDeadTime+0x92>
 8006938:	b430      	push	{r4, r5}
 800693a:	e9d1 5302 	ldrd	r5, r3, [r1, #8]
 800693e:	4602      	mov	r2, r0
 8006940:	f423 7340 	bic.w	r3, r3, #768	; 0x300
 8006944:	e9d1 0400 	ldrd	r0, r4, [r1]
 8006948:	432b      	orrs	r3, r5
 800694a:	f423 6380 	bic.w	r3, r3, #1024	; 0x400
 800694e:	4323      	orrs	r3, r4
 8006950:	f423 6300 	bic.w	r3, r3, #2048	; 0x800
 8006954:	e9d1 5404 	ldrd	r5, r4, [r1, #16]
 8006958:	4303      	orrs	r3, r0
 800695a:	f423 5380 	bic.w	r3, r3, #4096	; 0x1000
 800695e:	432b      	orrs	r3, r5
 8006960:	f423 5300 	bic.w	r3, r3, #8192	; 0x2000
 8006964:	6b08      	ldr	r0, [r1, #48]	; 0x30
 8006966:	698d      	ldr	r5, [r1, #24]
 8006968:	4323      	orrs	r3, r4
 800696a:	f423 4380 	bic.w	r3, r3, #16384	; 0x4000
 800696e:	4303      	orrs	r3, r0
 8006970:	4c15      	ldr	r4, [pc, #84]	; (80069c8 <HAL_TIMEx_ConfigBreakDeadTime+0x98>)
 8006972:	6810      	ldr	r0, [r2, #0]
 8006974:	f423 2370 	bic.w	r3, r3, #983040	; 0xf0000
 8006978:	42a0      	cmp	r0, r4
 800697a:	ea43 4305 	orr.w	r3, r3, r5, lsl #16
 800697e:	d00a      	beq.n	8006996 <HAL_TIMEx_ConfigBreakDeadTime+0x66>
 8006980:	f504 6400 	add.w	r4, r4, #2048	; 0x800
 8006984:	42a0      	cmp	r0, r4
 8006986:	d006      	beq.n	8006996 <HAL_TIMEx_ConfigBreakDeadTime+0x66>
 8006988:	2100      	movs	r1, #0
 800698a:	6443      	str	r3, [r0, #68]	; 0x44
 800698c:	f882 103c 	strb.w	r1, [r2, #60]	; 0x3c
 8006990:	4608      	mov	r0, r1
 8006992:	bc30      	pop	{r4, r5}
 8006994:	4770      	bx	lr
 8006996:	69cd      	ldr	r5, [r1, #28]
 8006998:	6a8c      	ldr	r4, [r1, #40]	; 0x28
 800699a:	f023 5380 	bic.w	r3, r3, #268435456	; 0x10000000
 800699e:	432b      	orrs	r3, r5
 80069a0:	f423 0370 	bic.w	r3, r3, #15728640	; 0xf00000
 80069a4:	ea43 5304 	orr.w	r3, r3, r4, lsl #20
 80069a8:	e9d1 5408 	ldrd	r5, r4, [r1, #32]
 80069ac:	f023 7380 	bic.w	r3, r3, #16777216	; 0x1000000
 80069b0:	432b      	orrs	r3, r5
 80069b2:	f023 7300 	bic.w	r3, r3, #33554432	; 0x2000000
 80069b6:	6ac9      	ldr	r1, [r1, #44]	; 0x2c
 80069b8:	4323      	orrs	r3, r4
 80069ba:	f023 5300 	bic.w	r3, r3, #536870912	; 0x20000000
 80069be:	430b      	orrs	r3, r1
 80069c0:	e7e2      	b.n	8006988 <HAL_TIMEx_ConfigBreakDeadTime+0x58>
 80069c2:	2002      	movs	r0, #2
 80069c4:	4770      	bx	lr
 80069c6:	bf00      	nop
 80069c8:	40012c00 	.word	0x40012c00

080069cc <HAL_TIMEx_ConfigBreakInput>:
 80069cc:	f890 303c 	ldrb.w	r3, [r0, #60]	; 0x3c
 80069d0:	2b01      	cmp	r3, #1
 80069d2:	d048      	beq.n	8006a66 <HAL_TIMEx_ConfigBreakInput+0x9a>
 80069d4:	6813      	ldr	r3, [r2, #0]
 80069d6:	3b01      	subs	r3, #1
 80069d8:	2b0f      	cmp	r3, #15
 80069da:	b4f0      	push	{r4, r5, r6, r7}
 80069dc:	d826      	bhi.n	8006a2c <HAL_TIMEx_ConfigBreakInput+0x60>
 80069de:	4e23      	ldr	r6, [pc, #140]	; (8006a6c <HAL_TIMEx_ConfigBreakInput+0xa0>)
 80069e0:	4c23      	ldr	r4, [pc, #140]	; (8006a70 <HAL_TIMEx_ConfigBreakInput+0xa4>)
 80069e2:	4f24      	ldr	r7, [pc, #144]	; (8006a74 <HAL_TIMEx_ConfigBreakInput+0xa8>)
 80069e4:	4d24      	ldr	r5, [pc, #144]	; (8006a78 <HAL_TIMEx_ConfigBreakInput+0xac>)
 80069e6:	f856 6023 	ldr.w	r6, [r6, r3, lsl #2]
 80069ea:	f854 4023 	ldr.w	r4, [r4, r3, lsl #2]
 80069ee:	f857 7023 	ldr.w	r7, [r7, r3, lsl #2]
 80069f2:	f855 5023 	ldr.w	r5, [r5, r3, lsl #2]
 80069f6:	2901      	cmp	r1, #1
 80069f8:	d01e      	beq.n	8006a38 <HAL_TIMEx_ConfigBreakInput+0x6c>
 80069fa:	2902      	cmp	r1, #2
 80069fc:	d110      	bne.n	8006a20 <HAL_TIMEx_ConfigBreakInput+0x54>
 80069fe:	6801      	ldr	r1, [r0, #0]
 8006a00:	6853      	ldr	r3, [r2, #4]
 8006a02:	f8d1 c064 	ldr.w	ip, [r1, #100]	; 0x64
 8006a06:	6892      	ldr	r2, [r2, #8]
 8006a08:	40bb      	lsls	r3, r7
 8006a0a:	ea83 030c 	eor.w	r3, r3, ip
 8006a0e:	4033      	ands	r3, r6
 8006a10:	ea83 030c 	eor.w	r3, r3, ip
 8006a14:	fa02 f505 	lsl.w	r5, r2, r5
 8006a18:	405d      	eors	r5, r3
 8006a1a:	402c      	ands	r4, r5
 8006a1c:	4063      	eors	r3, r4
 8006a1e:	664b      	str	r3, [r1, #100]	; 0x64
 8006a20:	2300      	movs	r3, #0
 8006a22:	f880 303c 	strb.w	r3, [r0, #60]	; 0x3c
 8006a26:	bcf0      	pop	{r4, r5, r6, r7}
 8006a28:	4618      	mov	r0, r3
 8006a2a:	4770      	bx	lr
 8006a2c:	2500      	movs	r5, #0
 8006a2e:	2901      	cmp	r1, #1
 8006a30:	462f      	mov	r7, r5
 8006a32:	462c      	mov	r4, r5
 8006a34:	462e      	mov	r6, r5
 8006a36:	d1e0      	bne.n	80069fa <HAL_TIMEx_ConfigBreakInput+0x2e>
 8006a38:	6801      	ldr	r1, [r0, #0]
 8006a3a:	6853      	ldr	r3, [r2, #4]
 8006a3c:	f8d1 c060 	ldr.w	ip, [r1, #96]	; 0x60
 8006a40:	6892      	ldr	r2, [r2, #8]
 8006a42:	40bb      	lsls	r3, r7
 8006a44:	ea83 030c 	eor.w	r3, r3, ip
 8006a48:	4033      	ands	r3, r6
 8006a4a:	ea83 030c 	eor.w	r3, r3, ip
 8006a4e:	fa02 f505 	lsl.w	r5, r2, r5
 8006a52:	405d      	eors	r5, r3
 8006a54:	402c      	ands	r4, r5
 8006a56:	4063      	eors	r3, r4
 8006a58:	660b      	str	r3, [r1, #96]	; 0x60
 8006a5a:	2300      	movs	r3, #0
 8006a5c:	f880 303c 	strb.w	r3, [r0, #60]	; 0x3c
 8006a60:	bcf0      	pop	{r4, r5, r6, r7}
 8006a62:	4618      	mov	r0, r3
 8006a64:	4770      	bx	lr
 8006a66:	2002      	movs	r0, #2
 8006a68:	4770      	bx	lr
 8006a6a:	bf00      	nop
 8006a6c:	08008d20 	.word	0x08008d20
 8006a70:	08008d60 	.word	0x08008d60
 8006a74:	08008da0 	.word	0x08008da0
 8006a78:	08008de0 	.word	0x08008de0

08006a7c <VBS_GetAvBusVoltage_d>:
 8006a7c:	88c0      	ldrh	r0, [r0, #6]
 8006a7e:	4770      	bx	lr

08006a80 <VBS_GetAvBusVoltage_V>:
 8006a80:	88c3      	ldrh	r3, [r0, #6]
 8006a82:	8840      	ldrh	r0, [r0, #2]
 8006a84:	fb03 f000 	mul.w	r0, r3, r0
 8006a88:	0c00      	lsrs	r0, r0, #16
 8006a8a:	4770      	bx	lr

08006a8c <Circle_Limitation>:
 8006a8c:	b570      	push	{r4, r5, r6, lr}
 8006a8e:	8803      	ldrh	r3, [r0, #0]
 8006a90:	140c      	asrs	r4, r1, #16
 8006a92:	b084      	sub	sp, #16
 8006a94:	b20d      	sxth	r5, r1
 8006a96:	fb04 f204 	mul.w	r2, r4, r4
 8006a9a:	9101      	str	r1, [sp, #4]
 8006a9c:	fb03 f303 	mul.w	r3, r3, r3
 8006aa0:	fb05 2105 	mla	r1, r5, r5, r2
 8006aa4:	428b      	cmp	r3, r1
 8006aa6:	da10      	bge.n	8006aca <Circle_Limitation+0x3e>
 8006aa8:	8846      	ldrh	r6, [r0, #2]
 8006aaa:	fb06 f006 	mul.w	r0, r6, r6
 8006aae:	4282      	cmp	r2, r0
 8006ab0:	dd14      	ble.n	8006adc <Circle_Limitation+0x50>
 8006ab2:	2c00      	cmp	r4, #0
 8006ab4:	eba3 0000 	sub.w	r0, r3, r0
 8006ab8:	bfb8      	it	lt
 8006aba:	4276      	neglt	r6, r6
 8006abc:	f7fa fce4 	bl	8001488 <MCM_Sqrt>
 8006ac0:	2d00      	cmp	r5, #0
 8006ac2:	bfb8      	it	lt
 8006ac4:	4240      	neglt	r0, r0
 8006ac6:	b234      	sxth	r4, r6
 8006ac8:	b205      	sxth	r5, r0
 8006aca:	b2ad      	uxth	r5, r5
 8006acc:	2000      	movs	r0, #0
 8006ace:	b2a4      	uxth	r4, r4
 8006ad0:	f365 000f 	bfi	r0, r5, #0, #16
 8006ad4:	f364 401f 	bfi	r0, r4, #16, #16
 8006ad8:	b004      	add	sp, #16
 8006ada:	bd70      	pop	{r4, r5, r6, pc}
 8006adc:	1a98      	subs	r0, r3, r2
 8006ade:	f7fa fcd3 	bl	8001488 <MCM_Sqrt>
 8006ae2:	2d00      	cmp	r5, #0
 8006ae4:	daf0      	bge.n	8006ac8 <Circle_Limitation+0x3c>
 8006ae6:	4240      	negs	r0, r0
 8006ae8:	e7ee      	b.n	8006ac8 <Circle_Limitation+0x3c>
 8006aea:	bf00      	nop

08006aec <EAC_Init>:
 8006aec:	b410      	push	{r4}
 8006aee:	2400      	movs	r4, #0
 8006af0:	81c4      	strh	r4, [r0, #14]
 8006af2:	e9c0 1200 	strd	r1, r2, [r0]
 8006af6:	f85d 4b04 	ldr.w	r4, [sp], #4
 8006afa:	6083      	str	r3, [r0, #8]
 8006afc:	4770      	bx	lr
 8006afe:	bf00      	nop

08006b00 <EAC_StartAlignment>:
 8006b00:	b510      	push	{r4, lr}
 8006b02:	2200      	movs	r2, #0
 8006b04:	4604      	mov	r4, r0
 8006b06:	4611      	mov	r1, r2
 8006b08:	6840      	ldr	r0, [r0, #4]
 8006b0a:	f001 fe7d 	bl	8008808 <VSS_SetMecAcceleration>
 8006b0e:	f9b4 1014 	ldrsh.w	r1, [r4, #20]
 8006b12:	6860      	ldr	r0, [r4, #4]
 8006b14:	f001 fe70 	bl	80087f8 <VSS_SetMecAngle>
 8006b18:	6820      	ldr	r0, [r4, #0]
 8006b1a:	2100      	movs	r1, #0
 8006b1c:	f001 fd12 	bl	8008544 <STC_SetControlMode>
 8006b20:	2200      	movs	r2, #0
 8006b22:	4611      	mov	r1, r2
 8006b24:	6820      	ldr	r0, [r4, #0]
 8006b26:	f001 fd11 	bl	800854c <STC_ExecRamp>
 8006b2a:	8ae2      	ldrh	r2, [r4, #22]
 8006b2c:	f9b4 1012 	ldrsh.w	r1, [r4, #18]
 8006b30:	6820      	ldr	r0, [r4, #0]
 8006b32:	f001 fd0b 	bl	800854c <STC_ExecRamp>
 8006b36:	8ae1      	ldrh	r1, [r4, #22]
 8006b38:	8a23      	ldrh	r3, [r4, #16]
 8006b3a:	4a04      	ldr	r2, [pc, #16]	; (8006b4c <EAC_StartAlignment+0x4c>)
 8006b3c:	fb03 f301 	mul.w	r3, r3, r1
 8006b40:	fba2 2303 	umull	r2, r3, r2, r3
 8006b44:	099b      	lsrs	r3, r3, #6
 8006b46:	3301      	adds	r3, #1
 8006b48:	81a3      	strh	r3, [r4, #12]
 8006b4a:	bd10      	pop	{r4, pc}
 8006b4c:	10624dd3 	.word	0x10624dd3

08006b50 <EAC_Exec>:
 8006b50:	8983      	ldrh	r3, [r0, #12]
 8006b52:	b13b      	cbz	r3, 8006b64 <EAC_Exec+0x14>
 8006b54:	3b01      	subs	r3, #1
 8006b56:	b29b      	uxth	r3, r3
 8006b58:	b510      	push	{r4, lr}
 8006b5a:	4604      	mov	r4, r0
 8006b5c:	8183      	strh	r3, [r0, #12]
 8006b5e:	b11b      	cbz	r3, 8006b68 <EAC_Exec+0x18>
 8006b60:	2000      	movs	r0, #0
 8006b62:	bd10      	pop	{r4, pc}
 8006b64:	2001      	movs	r0, #1
 8006b66:	4770      	bx	lr
 8006b68:	7e03      	ldrb	r3, [r0, #24]
 8006b6a:	f9b0 1014 	ldrsh.w	r1, [r0, #20]
 8006b6e:	6880      	ldr	r0, [r0, #8]
 8006b70:	fb91 f1f3 	sdiv	r1, r1, r3
 8006b74:	f000 f948 	bl	8006e08 <ENC_SetMecAngle>
 8006b78:	2001      	movs	r0, #1
 8006b7a:	73a0      	strb	r0, [r4, #14]
 8006b7c:	bd10      	pop	{r4, pc}
 8006b7e:	bf00      	nop

08006b80 <EAC_IsAligned>:
 8006b80:	7b80      	ldrb	r0, [r0, #14]
 8006b82:	4770      	bx	lr

08006b84 <EAC_SetRestartState>:
 8006b84:	73c1      	strb	r1, [r0, #15]
 8006b86:	4770      	bx	lr

08006b88 <EAC_GetRestartState>:
 8006b88:	7bc0      	ldrb	r0, [r0, #15]
 8006b8a:	4770      	bx	lr

08006b8c <ENC_Init>:
 8006b8c:	6a03      	ldr	r3, [r0, #32]
 8006b8e:	f8b0 206c 	ldrh.w	r2, [r0, #108]	; 0x6c
 8006b92:	b470      	push	{r4, r5, r6}
 8006b94:	681d      	ldr	r5, [r3, #0]
 8006b96:	f8b0 606e 	ldrh.w	r6, [r0, #110]	; 0x6e
 8006b9a:	eb02 0282 	add.w	r2, r2, r2, lsl #2
 8006b9e:	0052      	lsls	r2, r2, #1
 8006ba0:	2100      	movs	r1, #0
 8006ba2:	f445 6500 	orr.w	r5, r5, #2048	; 0x800
 8006ba6:	601d      	str	r5, [r3, #0]
 8006ba8:	f04f 34ff 	mov.w	r4, #4294967295
 8006bac:	6259      	str	r1, [r3, #36]	; 0x24
 8006bae:	fbb4 f4f6 	udiv	r4, r4, r6
 8006bb2:	6242      	str	r2, [r0, #36]	; 0x24
 8006bb4:	6684      	str	r4, [r0, #104]	; 0x68
 8006bb6:	699a      	ldr	r2, [r3, #24]
 8006bb8:	f890 4077 	ldrb.w	r4, [r0, #119]	; 0x77
 8006bbc:	f022 02f0 	bic.w	r2, r2, #240	; 0xf0
 8006bc0:	ea42 1204 	orr.w	r2, r2, r4, lsl #4
 8006bc4:	619a      	str	r2, [r3, #24]
 8006bc6:	699a      	ldr	r2, [r3, #24]
 8006bc8:	f890 4077 	ldrb.w	r4, [r0, #119]	; 0x77
 8006bcc:	f422 4270 	bic.w	r2, r2, #61440	; 0xf000
 8006bd0:	ea42 3204 	orr.w	r2, r2, r4, lsl #12
 8006bd4:	f06f 0401 	mvn.w	r4, #1
 8006bd8:	619a      	str	r2, [r3, #24]
 8006bda:	611c      	str	r4, [r3, #16]
 8006bdc:	68da      	ldr	r2, [r3, #12]
 8006bde:	f042 0201 	orr.w	r2, r2, #1
 8006be2:	60da      	str	r2, [r3, #12]
 8006be4:	681a      	ldr	r2, [r3, #0]
 8006be6:	f042 0201 	orr.w	r2, r2, #1
 8006bea:	601a      	str	r2, [r3, #0]
 8006bec:	f890 2075 	ldrb.w	r2, [r0, #117]	; 0x75
 8006bf0:	b13a      	cbz	r2, 8006c02 <ENC_Init+0x76>
 8006bf2:	3a01      	subs	r2, #1
 8006bf4:	b2d2      	uxtb	r2, r2
 8006bf6:	3201      	adds	r2, #1
 8006bf8:	bc70      	pop	{r4, r5, r6}
 8006bfa:	0092      	lsls	r2, r2, #2
 8006bfc:	3028      	adds	r0, #40	; 0x28
 8006bfe:	f001 bf41 	b.w	8008a84 <memset>
 8006c02:	bc70      	pop	{r4, r5, r6}
 8006c04:	4770      	bx	lr
 8006c06:	bf00      	nop

08006c08 <ENC_Clear>:
 8006c08:	b510      	push	{r4, lr}
 8006c0a:	f890 2075 	ldrb.w	r2, [r0, #117]	; 0x75
 8006c0e:	4604      	mov	r4, r0
 8006c10:	b13a      	cbz	r2, 8006c22 <ENC_Clear+0x1a>
 8006c12:	3a01      	subs	r2, #1
 8006c14:	b2d2      	uxtb	r2, r2
 8006c16:	3201      	adds	r2, #1
 8006c18:	0092      	lsls	r2, r2, #2
 8006c1a:	2100      	movs	r1, #0
 8006c1c:	3028      	adds	r0, #40	; 0x28
 8006c1e:	f001 ff31 	bl	8008a84 <memset>
 8006c22:	2301      	movs	r3, #1
 8006c24:	f884 3076 	strb.w	r3, [r4, #118]	; 0x76
 8006c28:	bd10      	pop	{r4, pc}
 8006c2a:	bf00      	nop

08006c2c <ENC_CalcAngle>:
 8006c2c:	6a01      	ldr	r1, [r0, #32]
 8006c2e:	6e82      	ldr	r2, [r0, #104]	; 0x68
 8006c30:	6a49      	ldr	r1, [r1, #36]	; 0x24
 8006c32:	b410      	push	{r4}
 8006c34:	b289      	uxth	r1, r1
 8006c36:	fb02 f201 	mul.w	r2, r2, r1
 8006c3a:	4603      	mov	r3, r0
 8006c3c:	2a00      	cmp	r2, #0
 8006c3e:	bfb8      	it	lt
 8006c40:	f64f 70ff 	movwlt	r0, #65535	; 0xffff
 8006c44:	f9b3 1006 	ldrsh.w	r1, [r3, #6]
 8006c48:	689c      	ldr	r4, [r3, #8]
 8006c4a:	bfb8      	it	lt
 8006c4c:	1812      	addlt	r2, r2, r0
 8006c4e:	7858      	ldrb	r0, [r3, #1]
 8006c50:	1412      	asrs	r2, r2, #16
 8006c52:	fb00 f002 	mul.w	r0, r0, r2
 8006c56:	1a51      	subs	r1, r2, r1
 8006c58:	b200      	sxth	r0, r0
 8006c5a:	fa04 f181 	sxtah	r1, r4, r1
 8006c5e:	8098      	strh	r0, [r3, #4]
 8006c60:	f85d 4b04 	ldr.w	r4, [sp], #4
 8006c64:	80da      	strh	r2, [r3, #6]
 8006c66:	6099      	str	r1, [r3, #8]
 8006c68:	4770      	bx	lr
 8006c6a:	bf00      	nop

08006c6c <ENC_CalcAvrgMecSpeedUnit>:
 8006c6c:	b5f0      	push	{r4, r5, r6, r7, lr}
 8006c6e:	6a03      	ldr	r3, [r0, #32]
 8006c70:	f890 2075 	ldrb.w	r2, [r0, #117]	; 0x75
 8006c74:	68dc      	ldr	r4, [r3, #12]
 8006c76:	f024 0401 	bic.w	r4, r4, #1
 8006c7a:	60dc      	str	r4, [r3, #12]
 8006c7c:	2600      	movs	r6, #0
 8006c7e:	6a5d      	ldr	r5, [r3, #36]	; 0x24
 8006c80:	f8b0 4070 	ldrh.w	r4, [r0, #112]	; 0x70
 8006c84:	f8a0 6070 	strh.w	r6, [r0, #112]	; 0x70
 8006c88:	681e      	ldr	r6, [r3, #0]
 8006c8a:	0fef      	lsrs	r7, r5, #31
 8006c8c:	f006 0c10 	and.w	ip, r6, #16
 8006c90:	bf1c      	itt	ne
 8006c92:	f06f 0601 	mvnne.w	r6, #1
 8006c96:	611e      	strne	r6, [r3, #16]
 8006c98:	68de      	ldr	r6, [r3, #12]
 8006c9a:	b2a4      	uxth	r4, r4
 8006c9c:	443c      	add	r4, r7
 8006c9e:	f046 0601 	orr.w	r6, r6, #1
 8006ca2:	f5b4 6f00 	cmp.w	r4, #2048	; 0x800
 8006ca6:	60de      	str	r6, [r3, #12]
 8006ca8:	bf8a      	itet	hi
 8006caa:	2601      	movhi	r6, #1
 8006cac:	f890 6079 	ldrbls.w	r6, [r0, #121]	; 0x79
 8006cb0:	f880 6079 	strbhi.w	r6, [r0, #121]	; 0x79
 8006cb4:	f025 4500 	bic.w	r5, r5, #2147483648	; 0x80000000
 8006cb8:	f1bc 0f00 	cmp.w	ip, #0
 8006cbc:	f000 808d 	beq.w	8006dda <ENC_CalcAvrgMecSpeedUnit+0x16e>
 8006cc0:	f8b0 3072 	ldrh.w	r3, [r0, #114]	; 0x72
 8006cc4:	f890 c078 	ldrb.w	ip, [r0, #120]	; 0x78
 8006cc8:	f8b0 706e 	ldrh.w	r7, [r0, #110]	; 0x6e
 8006ccc:	1aeb      	subs	r3, r5, r3
 8006cce:	f10c 0c0a 	add.w	ip, ip, #10
 8006cd2:	fb07 3414 	mls	r4, r7, r4, r3
 8006cd6:	f840 402c 	str.w	r4, [r0, ip, lsl #2]
 8006cda:	2a00      	cmp	r2, #0
 8006cdc:	f000 808d 	beq.w	8006dfa <ENC_CalcAvrgMecSpeedUnit+0x18e>
 8006ce0:	2a01      	cmp	r2, #1
 8006ce2:	6a83      	ldr	r3, [r0, #40]	; 0x28
 8006ce4:	d939      	bls.n	8006d5a <ENC_CalcAvrgMecSpeedUnit+0xee>
 8006ce6:	6ac4      	ldr	r4, [r0, #44]	; 0x2c
 8006ce8:	2a02      	cmp	r2, #2
 8006cea:	4423      	add	r3, r4
 8006cec:	d035      	beq.n	8006d5a <ENC_CalcAvrgMecSpeedUnit+0xee>
 8006cee:	6b04      	ldr	r4, [r0, #48]	; 0x30
 8006cf0:	2a03      	cmp	r2, #3
 8006cf2:	4423      	add	r3, r4
 8006cf4:	d031      	beq.n	8006d5a <ENC_CalcAvrgMecSpeedUnit+0xee>
 8006cf6:	6b44      	ldr	r4, [r0, #52]	; 0x34
 8006cf8:	2a04      	cmp	r2, #4
 8006cfa:	4423      	add	r3, r4
 8006cfc:	d02d      	beq.n	8006d5a <ENC_CalcAvrgMecSpeedUnit+0xee>
 8006cfe:	6b84      	ldr	r4, [r0, #56]	; 0x38
 8006d00:	2a05      	cmp	r2, #5
 8006d02:	4423      	add	r3, r4
 8006d04:	d029      	beq.n	8006d5a <ENC_CalcAvrgMecSpeedUnit+0xee>
 8006d06:	6bc4      	ldr	r4, [r0, #60]	; 0x3c
 8006d08:	2a06      	cmp	r2, #6
 8006d0a:	4423      	add	r3, r4
 8006d0c:	d025      	beq.n	8006d5a <ENC_CalcAvrgMecSpeedUnit+0xee>
 8006d0e:	6c04      	ldr	r4, [r0, #64]	; 0x40
 8006d10:	2a07      	cmp	r2, #7
 8006d12:	4423      	add	r3, r4
 8006d14:	d021      	beq.n	8006d5a <ENC_CalcAvrgMecSpeedUnit+0xee>
 8006d16:	6c44      	ldr	r4, [r0, #68]	; 0x44
 8006d18:	2a08      	cmp	r2, #8
 8006d1a:	4423      	add	r3, r4
 8006d1c:	d01d      	beq.n	8006d5a <ENC_CalcAvrgMecSpeedUnit+0xee>
 8006d1e:	6c84      	ldr	r4, [r0, #72]	; 0x48
 8006d20:	2a09      	cmp	r2, #9
 8006d22:	4423      	add	r3, r4
 8006d24:	d019      	beq.n	8006d5a <ENC_CalcAvrgMecSpeedUnit+0xee>
 8006d26:	6cc4      	ldr	r4, [r0, #76]	; 0x4c
 8006d28:	2a0a      	cmp	r2, #10
 8006d2a:	4423      	add	r3, r4
 8006d2c:	d015      	beq.n	8006d5a <ENC_CalcAvrgMecSpeedUnit+0xee>
 8006d2e:	6d04      	ldr	r4, [r0, #80]	; 0x50
 8006d30:	2a0b      	cmp	r2, #11
 8006d32:	4423      	add	r3, r4
 8006d34:	d011      	beq.n	8006d5a <ENC_CalcAvrgMecSpeedUnit+0xee>
 8006d36:	6d44      	ldr	r4, [r0, #84]	; 0x54
 8006d38:	2a0c      	cmp	r2, #12
 8006d3a:	4423      	add	r3, r4
 8006d3c:	d00d      	beq.n	8006d5a <ENC_CalcAvrgMecSpeedUnit+0xee>
 8006d3e:	6d84      	ldr	r4, [r0, #88]	; 0x58
 8006d40:	2a0d      	cmp	r2, #13
 8006d42:	4423      	add	r3, r4
 8006d44:	d009      	beq.n	8006d5a <ENC_CalcAvrgMecSpeedUnit+0xee>
 8006d46:	6dc4      	ldr	r4, [r0, #92]	; 0x5c
 8006d48:	2a0e      	cmp	r2, #14
 8006d4a:	4423      	add	r3, r4
 8006d4c:	d005      	beq.n	8006d5a <ENC_CalcAvrgMecSpeedUnit+0xee>
 8006d4e:	6e04      	ldr	r4, [r0, #96]	; 0x60
 8006d50:	2a0f      	cmp	r2, #15
 8006d52:	4423      	add	r3, r4
 8006d54:	d001      	beq.n	8006d5a <ENC_CalcAvrgMecSpeedUnit+0xee>
 8006d56:	6e44      	ldr	r4, [r0, #100]	; 0x64
 8006d58:	4423      	add	r3, r4
 8006d5a:	6a44      	ldr	r4, [r0, #36]	; 0x24
 8006d5c:	fb07 f202 	mul.w	r2, r7, r2
 8006d60:	fb04 f303 	mul.w	r3, r4, r3
 8006d64:	fb93 f3f2 	sdiv	r3, r3, r2
 8006d68:	b21f      	sxth	r7, r3
 8006d6a:	800f      	strh	r7, [r1, #0]
 8006d6c:	f890 4078 	ldrb.w	r4, [r0, #120]	; 0x78
 8006d70:	f890 2078 	ldrb.w	r2, [r0, #120]	; 0x78
 8006d74:	f8b0 c00c 	ldrh.w	ip, [r0, #12]
 8006d78:	f8b0 e06c 	ldrh.w	lr, [r0, #108]	; 0x6c
 8006d7c:	8187      	strh	r7, [r0, #12]
 8006d7e:	340a      	adds	r4, #10
 8006d80:	3201      	adds	r2, #1
 8006d82:	f850 7024 	ldr.w	r7, [r0, r4, lsl #2]
 8006d86:	69c4      	ldr	r4, [r0, #28]
 8006d88:	f8a0 5072 	strh.w	r5, [r0, #114]	; 0x72
 8006d8c:	b2d2      	uxtb	r2, r2
 8006d8e:	f880 2078 	strb.w	r2, [r0, #120]	; 0x78
 8006d92:	eba3 020c 	sub.w	r2, r3, ip
 8006d96:	8242      	strh	r2, [r0, #18]
 8006d98:	fb07 f30e 	mul.w	r3, r7, lr
 8006d9c:	f890 2075 	ldrb.w	r2, [r0, #117]	; 0x75
 8006da0:	f890 7078 	ldrb.w	r7, [r0, #120]	; 0x78
 8006da4:	7845      	ldrb	r5, [r0, #1]
 8006da6:	42ba      	cmp	r2, r7
 8006da8:	fb05 f303 	mul.w	r3, r5, r3
 8006dac:	f8b0 506e 	ldrh.w	r5, [r0, #110]	; 0x6e
 8006db0:	fb93 f3f5 	sdiv	r3, r3, r5
 8006db4:	fb04 f403 	mul.w	r4, r4, r3
 8006db8:	8b43      	ldrh	r3, [r0, #26]
 8006dba:	fb94 f4f3 	sdiv	r4, r4, r3
 8006dbe:	bf08      	it	eq
 8006dc0:	2300      	moveq	r3, #0
 8006dc2:	81c4      	strh	r4, [r0, #14]
 8006dc4:	bf08      	it	eq
 8006dc6:	f880 3078 	strbeq.w	r3, [r0, #120]	; 0x78
 8006dca:	b1c6      	cbz	r6, 8006dfe <ENC_CalcAvrgMecSpeedUnit+0x192>
 8006dcc:	78c2      	ldrb	r2, [r0, #3]
 8006dce:	7002      	strb	r2, [r0, #0]
 8006dd0:	2300      	movs	r3, #0
 8006dd2:	f880 3076 	strb.w	r3, [r0, #118]	; 0x76
 8006dd6:	4618      	mov	r0, r3
 8006dd8:	bdf0      	pop	{r4, r5, r6, r7, pc}
 8006dda:	f8b0 c072 	ldrh.w	ip, [r0, #114]	; 0x72
 8006dde:	f890 3078 	ldrb.w	r3, [r0, #120]	; 0x78
 8006de2:	f8b0 706e 	ldrh.w	r7, [r0, #110]	; 0x6e
 8006de6:	eba5 0c0c 	sub.w	ip, r5, ip
 8006dea:	330a      	adds	r3, #10
 8006dec:	fb07 c404 	mla	r4, r7, r4, ip
 8006df0:	f840 4023 	str.w	r4, [r0, r3, lsl #2]
 8006df4:	2a00      	cmp	r2, #0
 8006df6:	f47f af73 	bne.w	8006ce0 <ENC_CalcAvrgMecSpeedUnit+0x74>
 8006dfa:	4613      	mov	r3, r2
 8006dfc:	e7ad      	b.n	8006d5a <ENC_CalcAvrgMecSpeedUnit+0xee>
 8006dfe:	e8bd 40f0 	ldmia.w	sp!, {r4, r5, r6, r7, lr}
 8006e02:	f001 bb39 	b.w	8008478 <SPD_IsMecSpeedReliable>
 8006e06:	bf00      	nop

08006e08 <ENC_SetMecAngle>:
 8006e08:	7843      	ldrb	r3, [r0, #1]
 8006e0a:	80c1      	strh	r1, [r0, #6]
 8006e0c:	fb03 f301 	mul.w	r3, r3, r1
 8006e10:	8083      	strh	r3, [r0, #4]
 8006e12:	2900      	cmp	r1, #0
 8006e14:	b28b      	uxth	r3, r1
 8006e16:	6a02      	ldr	r2, [r0, #32]
 8006e18:	f8b0 006e 	ldrh.w	r0, [r0, #110]	; 0x6e
 8006e1c:	4905      	ldr	r1, [pc, #20]	; (8006e34 <ENC_SetMecAngle+0x2c>)
 8006e1e:	bfbc      	itt	lt
 8006e20:	f103 33ff 	addlt.w	r3, r3, #4294967295
 8006e24:	b29b      	uxthlt	r3, r3
 8006e26:	fb03 f300 	mul.w	r3, r3, r0
 8006e2a:	fba1 1303 	umull	r1, r3, r1, r3
 8006e2e:	0bdb      	lsrs	r3, r3, #15
 8006e30:	6253      	str	r3, [r2, #36]	; 0x24
 8006e32:	4770      	bx	lr
 8006e34:	80008001 	.word	0x80008001

08006e38 <ENC_IRQHandler>:
 8006e38:	4602      	mov	r2, r0
 8006e3a:	2000      	movs	r0, #0
 8006e3c:	f8b2 3070 	ldrh.w	r3, [r2, #112]	; 0x70
 8006e40:	3301      	adds	r3, #1
 8006e42:	b29b      	uxth	r3, r3
 8006e44:	f8a2 3070 	strh.w	r3, [r2, #112]	; 0x70
 8006e48:	4770      	bx	lr
 8006e4a:	bf00      	nop

08006e4c <MCP_ReceivedPacket>:
 8006e4c:	b538      	push	{r3, r4, r5, lr}
 8006e4e:	8983      	ldrh	r3, [r0, #12]
 8006e50:	2b00      	cmp	r3, #0
 8006e52:	d03c      	beq.n	8006ece <MCP_ReceivedPacket+0x82>
 8006e54:	6843      	ldr	r3, [r0, #4]
 8006e56:	4d3a      	ldr	r5, [pc, #232]	; (8006f40 <MCP_ReceivedPacket+0xf4>)
 8006e58:	881a      	ldrh	r2, [r3, #0]
 8006e5a:	f002 0307 	and.w	r3, r2, #7
 8006e5e:	3b01      	subs	r3, #1
 8006e60:	b2db      	uxtb	r3, r3
 8006e62:	f022 0207 	bic.w	r2, r2, #7
 8006e66:	ebc3 03c3 	rsb	r3, r3, r3, lsl #3
 8006e6a:	2100      	movs	r1, #0
 8006e6c:	3a08      	subs	r2, #8
 8006e6e:	4604      	mov	r4, r0
 8006e70:	eb05 0583 	add.w	r5, r5, r3, lsl #2
 8006e74:	81c1      	strh	r1, [r0, #14]
 8006e76:	2a40      	cmp	r2, #64	; 0x40
 8006e78:	d822      	bhi.n	8006ec0 <MCP_ReceivedPacket+0x74>
 8006e7a:	e8df f002 	tbb	[pc, r2]
 8006e7e:	2141      	.short	0x2141
 8006e80:	21212121 	.word	0x21212121
 8006e84:	21452121 	.word	0x21452121
 8006e88:	21212121 	.word	0x21212121
 8006e8c:	21332121 	.word	0x21332121
 8006e90:	21212121 	.word	0x21212121
 8006e94:	212d2121 	.word	0x212d2121
 8006e98:	21212121 	.word	0x21212121
 8006e9c:	21492121 	.word	0x21492121
 8006ea0:	21212121 	.word	0x21212121
 8006ea4:	21292121 	.word	0x21292121
 8006ea8:	21212121 	.word	0x21212121
 8006eac:	21512121 	.word	0x21512121
 8006eb0:	21212121 	.word	0x21212121
 8006eb4:	21572121 	.word	0x21572121
 8006eb8:	21212121 	.word	0x21212121
 8006ebc:	2121      	.short	0x2121
 8006ebe:	3b          	.byte	0x3b
 8006ebf:	00          	.byte	0x00
 8006ec0:	2300      	movs	r3, #0
 8006ec2:	2002      	movs	r0, #2
 8006ec4:	68a2      	ldr	r2, [r4, #8]
 8006ec6:	54d0      	strb	r0, [r2, r3]
 8006ec8:	89e3      	ldrh	r3, [r4, #14]
 8006eca:	3301      	adds	r3, #1
 8006ecc:	81e3      	strh	r3, [r4, #14]
 8006ece:	bd38      	pop	{r3, r4, r5, pc}
 8006ed0:	4628      	mov	r0, r5
 8006ed2:	f7fa f9b3 	bl	800123c <MCI_GetSTMState>
 8006ed6:	b128      	cbz	r0, 8006ee4 <MCP_ReceivedPacket+0x98>
 8006ed8:	4628      	mov	r0, r5
 8006eda:	f7fa f967 	bl	80011ac <MCI_StopMotor>
 8006ede:	89e3      	ldrh	r3, [r4, #14]
 8006ee0:	2000      	movs	r0, #0
 8006ee2:	e7ef      	b.n	8006ec4 <MCP_ReceivedPacket+0x78>
 8006ee4:	4628      	mov	r0, r5
 8006ee6:	f7fa f957 	bl	8001198 <MCI_StartMotor>
 8006eea:	f080 0001 	eor.w	r0, r0, #1
 8006eee:	89e3      	ldrh	r3, [r4, #14]
 8006ef0:	b2c0      	uxtb	r0, r0
 8006ef2:	e7e7      	b.n	8006ec4 <MCP_ReceivedPacket+0x78>
 8006ef4:	4628      	mov	r0, r5
 8006ef6:	f7fa fa19 	bl	800132c <MCI_Clear_Iqdref>
 8006efa:	89e3      	ldrh	r3, [r4, #14]
 8006efc:	2000      	movs	r0, #0
 8006efe:	e7e1      	b.n	8006ec4 <MCP_ReceivedPacket+0x78>
 8006f00:	f7fb f93a 	bl	8002178 <RI_SetRegCommandParser>
 8006f04:	89e3      	ldrh	r3, [r4, #14]
 8006f06:	e7dd      	b.n	8006ec4 <MCP_ReceivedPacket+0x78>
 8006f08:	f7fb fc42 	bl	8002790 <RI_GetRegCommandParser>
 8006f0c:	89e3      	ldrh	r3, [r4, #14]
 8006f0e:	e7d9      	b.n	8006ec4 <MCP_ReceivedPacket+0x78>
 8006f10:	4628      	mov	r0, r5
 8006f12:	f7fa f993 	bl	800123c <MCI_GetSTMState>
 8006f16:	2806      	cmp	r0, #6
 8006f18:	d00c      	beq.n	8006f34 <MCP_ReceivedPacket+0xe8>
 8006f1a:	89e3      	ldrh	r3, [r4, #14]
 8006f1c:	2000      	movs	r0, #0
 8006f1e:	e7d1      	b.n	8006ec4 <MCP_ReceivedPacket+0x78>
 8006f20:	4628      	mov	r0, r5
 8006f22:	f7fa f947 	bl	80011b4 <MCI_FaultAcknowledged>
 8006f26:	89e3      	ldrh	r3, [r4, #14]
 8006f28:	2000      	movs	r0, #0
 8006f2a:	e7cb      	b.n	8006ec4 <MCP_ReceivedPacket+0x78>
 8006f2c:	4628      	mov	r0, r5
 8006f2e:	f7fa f945 	bl	80011bc <MCI_EncoderAlign>
 8006f32:	e7f2      	b.n	8006f1a <MCP_ReceivedPacket+0xce>
 8006f34:	4628      	mov	r0, r5
 8006f36:	f7fa f991 	bl	800125c <MCI_StopRamp>
 8006f3a:	89e3      	ldrh	r3, [r4, #14]
 8006f3c:	2000      	movs	r0, #0
 8006f3e:	e7c1      	b.n	8006ec4 <MCP_ReceivedPacket+0x78>
 8006f40:	200009ec 	.word	0x200009ec

08006f44 <MCPA_dataLog>:
 8006f44:	b570      	push	{r4, r5, r6, lr}
 8006f46:	f890 307e 	ldrb.w	r3, [r0, #126]	; 0x7e
 8006f4a:	f890 2081 	ldrb.w	r2, [r0, #129]	; 0x81
 8006f4e:	429a      	cmp	r2, r3
 8006f50:	4604      	mov	r4, r0
 8006f52:	d003      	beq.n	8006f5c <MCPA_dataLog+0x18>
 8006f54:	3301      	adds	r3, #1
 8006f56:	f880 307e 	strb.w	r3, [r0, #126]	; 0x7e
 8006f5a:	bd70      	pop	{r4, r5, r6, pc}
 8006f5c:	f8b0 5068 	ldrh.w	r5, [r0, #104]	; 0x68
 8006f60:	2300      	movs	r3, #0
 8006f62:	f880 307e 	strb.w	r3, [r0, #126]	; 0x7e
 8006f66:	b1bd      	cbz	r5, 8006f98 <MCPA_dataLog+0x54>
 8006f68:	6e61      	ldr	r1, [r4, #100]	; 0x64
 8006f6a:	f8b4 2070 	ldrh.w	r2, [r4, #112]	; 0x70
 8006f6e:	42aa      	cmp	r2, r5
 8006f70:	d25c      	bcs.n	800702c <MCPA_dataLog+0xe8>
 8006f72:	f894 3085 	ldrb.w	r3, [r4, #133]	; 0x85
 8006f76:	2bfe      	cmp	r3, #254	; 0xfe
 8006f78:	d07a      	beq.n	8007070 <MCPA_dataLog+0x12c>
 8006f7a:	f894 3089 	ldrb.w	r3, [r4, #137]	; 0x89
 8006f7e:	534b      	strh	r3, [r1, r5]
 8006f80:	f8b4 2068 	ldrh.w	r2, [r4, #104]	; 0x68
 8006f84:	6820      	ldr	r0, [r4, #0]
 8006f86:	3202      	adds	r2, #2
 8006f88:	2309      	movs	r3, #9
 8006f8a:	6845      	ldr	r5, [r0, #4]
 8006f8c:	b292      	uxth	r2, r2
 8006f8e:	47a8      	blx	r5
 8006f90:	2300      	movs	r3, #0
 8006f92:	f8a4 3068 	strh.w	r3, [r4, #104]	; 0x68
 8006f96:	bd70      	pop	{r4, r5, r6, pc}
 8006f98:	4601      	mov	r1, r0
 8006f9a:	2209      	movs	r2, #9
 8006f9c:	f851 0b64 	ldr.w	r0, [r1], #100
 8006fa0:	6803      	ldr	r3, [r0, #0]
 8006fa2:	4798      	blx	r3
 8006fa4:	2800      	cmp	r0, #0
 8006fa6:	d03c      	beq.n	8007022 <MCPA_dataLog+0xde>
 8006fa8:	4b76      	ldr	r3, [pc, #472]	; (8007184 <MCPA_dataLog+0x240>)
 8006faa:	6e61      	ldr	r1, [r4, #100]	; 0x64
 8006fac:	681b      	ldr	r3, [r3, #0]
 8006fae:	600b      	str	r3, [r1, #0]
 8006fb0:	f894 3088 	ldrb.w	r3, [r4, #136]	; 0x88
 8006fb4:	f894 2089 	ldrb.w	r2, [r4, #137]	; 0x89
 8006fb8:	f884 507f 	strb.w	r5, [r4, #127]	; 0x7f
 8006fbc:	429a      	cmp	r2, r3
 8006fbe:	f04f 0504 	mov.w	r5, #4
 8006fc2:	f8a4 5068 	strh.w	r5, [r4, #104]	; 0x68
 8006fc6:	d0d0      	beq.n	8006f6a <MCPA_dataLog+0x26>
 8006fc8:	f894 2082 	ldrb.w	r2, [r4, #130]	; 0x82
 8006fcc:	f894 0080 	ldrb.w	r0, [r4, #128]	; 0x80
 8006fd0:	f894 1084 	ldrb.w	r1, [r4, #132]	; 0x84
 8006fd4:	f894 5086 	ldrb.w	r5, [r4, #134]	; 0x86
 8006fd8:	f884 3089 	strb.w	r3, [r4, #137]	; 0x89
 8006fdc:	f8b4 306e 	ldrh.w	r3, [r4, #110]	; 0x6e
 8006fe0:	f884 2083 	strb.w	r2, [r4, #131]	; 0x83
 8006fe4:	f884 0081 	strb.w	r0, [r4, #129]	; 0x81
 8006fe8:	0092      	lsls	r2, r2, #2
 8006fea:	f884 1085 	strb.w	r1, [r4, #133]	; 0x85
 8006fee:	f8a4 3070 	strh.w	r3, [r4, #112]	; 0x70
 8006ff2:	1d21      	adds	r1, r4, #4
 8006ff4:	f884 5087 	strb.w	r5, [r4, #135]	; 0x87
 8006ff8:	f104 0034 	add.w	r0, r4, #52	; 0x34
 8006ffc:	f001 fd34 	bl	8008a68 <memcpy>
 8007000:	f894 2086 	ldrb.w	r2, [r4, #134]	; 0x86
 8007004:	f104 011c 	add.w	r1, r4, #28
 8007008:	0092      	lsls	r2, r2, #2
 800700a:	f104 004c 	add.w	r0, r4, #76	; 0x4c
 800700e:	f001 fd2b 	bl	8008a68 <memcpy>
 8007012:	f894 2086 	ldrb.w	r2, [r4, #134]	; 0x86
 8007016:	f104 0172 	add.w	r1, r4, #114	; 0x72
 800701a:	f104 0078 	add.w	r0, r4, #120	; 0x78
 800701e:	f001 fd23 	bl	8008a68 <memcpy>
 8007022:	f8b4 5068 	ldrh.w	r5, [r4, #104]	; 0x68
 8007026:	2d00      	cmp	r5, #0
 8007028:	d19e      	bne.n	8006f68 <MCPA_dataLog+0x24>
 800702a:	bd70      	pop	{r4, r5, r6, pc}
 800702c:	f894 3083 	ldrb.w	r3, [r4, #131]	; 0x83
 8007030:	1948      	adds	r0, r1, r5
 8007032:	2b00      	cmp	r3, #0
 8007034:	d057      	beq.n	80070e6 <MCPA_dataLog+0x1a2>
 8007036:	2200      	movs	r2, #0
 8007038:	4613      	mov	r3, r2
 800703a:	eb04 0383 	add.w	r3, r4, r3, lsl #2
 800703e:	3201      	adds	r2, #1
 8007040:	6b5b      	ldr	r3, [r3, #52]	; 0x34
 8007042:	881b      	ldrh	r3, [r3, #0]
 8007044:	f820 3b02 	strh.w	r3, [r0], #2
 8007048:	f8b4 5068 	ldrh.w	r5, [r4, #104]	; 0x68
 800704c:	f894 6083 	ldrb.w	r6, [r4, #131]	; 0x83
 8007050:	3502      	adds	r5, #2
 8007052:	b2d3      	uxtb	r3, r2
 8007054:	b2ad      	uxth	r5, r5
 8007056:	429e      	cmp	r6, r3
 8007058:	f8a4 5068 	strh.w	r5, [r4, #104]	; 0x68
 800705c:	d8ed      	bhi.n	800703a <MCPA_dataLog+0xf6>
 800705e:	f894 3085 	ldrb.w	r3, [r4, #133]	; 0x85
 8007062:	f8b4 2070 	ldrh.w	r2, [r4, #112]	; 0x70
 8007066:	2bfd      	cmp	r3, #253	; 0xfd
 8007068:	d942      	bls.n	80070f0 <MCPA_dataLog+0x1ac>
 800706a:	42aa      	cmp	r2, r5
 800706c:	d383      	bcc.n	8006f76 <MCPA_dataLog+0x32>
 800706e:	bd70      	pop	{r4, r5, r6, pc}
 8007070:	f894 3087 	ldrb.w	r3, [r4, #135]	; 0x87
 8007074:	2b00      	cmp	r3, #0
 8007076:	d080      	beq.n	8006f7a <MCPA_dataLog+0x36>
 8007078:	6ce2      	ldr	r2, [r4, #76]	; 0x4c
 800707a:	6812      	ldr	r2, [r2, #0]
 800707c:	514a      	str	r2, [r1, r5]
 800707e:	f894 2078 	ldrb.w	r2, [r4, #120]	; 0x78
 8007082:	2b01      	cmp	r3, #1
 8007084:	4415      	add	r5, r2
 8007086:	b2ad      	uxth	r5, r5
 8007088:	d92a      	bls.n	80070e0 <MCPA_dataLog+0x19c>
 800708a:	6d22      	ldr	r2, [r4, #80]	; 0x50
 800708c:	6812      	ldr	r2, [r2, #0]
 800708e:	514a      	str	r2, [r1, r5]
 8007090:	f894 2079 	ldrb.w	r2, [r4, #121]	; 0x79
 8007094:	2b02      	cmp	r3, #2
 8007096:	4415      	add	r5, r2
 8007098:	b2ad      	uxth	r5, r5
 800709a:	d021      	beq.n	80070e0 <MCPA_dataLog+0x19c>
 800709c:	6d62      	ldr	r2, [r4, #84]	; 0x54
 800709e:	6812      	ldr	r2, [r2, #0]
 80070a0:	514a      	str	r2, [r1, r5]
 80070a2:	f894 207a 	ldrb.w	r2, [r4, #122]	; 0x7a
 80070a6:	2b03      	cmp	r3, #3
 80070a8:	4415      	add	r5, r2
 80070aa:	b2ad      	uxth	r5, r5
 80070ac:	d018      	beq.n	80070e0 <MCPA_dataLog+0x19c>
 80070ae:	6da2      	ldr	r2, [r4, #88]	; 0x58
 80070b0:	6812      	ldr	r2, [r2, #0]
 80070b2:	514a      	str	r2, [r1, r5]
 80070b4:	f894 207b 	ldrb.w	r2, [r4, #123]	; 0x7b
 80070b8:	2b04      	cmp	r3, #4
 80070ba:	4415      	add	r5, r2
 80070bc:	b2ad      	uxth	r5, r5
 80070be:	d00f      	beq.n	80070e0 <MCPA_dataLog+0x19c>
 80070c0:	6de2      	ldr	r2, [r4, #92]	; 0x5c
 80070c2:	6812      	ldr	r2, [r2, #0]
 80070c4:	514a      	str	r2, [r1, r5]
 80070c6:	f894 207c 	ldrb.w	r2, [r4, #124]	; 0x7c
 80070ca:	2b05      	cmp	r3, #5
 80070cc:	4415      	add	r5, r2
 80070ce:	b2ad      	uxth	r5, r5
 80070d0:	d006      	beq.n	80070e0 <MCPA_dataLog+0x19c>
 80070d2:	6e23      	ldr	r3, [r4, #96]	; 0x60
 80070d4:	681b      	ldr	r3, [r3, #0]
 80070d6:	514b      	str	r3, [r1, r5]
 80070d8:	f894 307d 	ldrb.w	r3, [r4, #125]	; 0x7d
 80070dc:	441d      	add	r5, r3
 80070de:	b2ad      	uxth	r5, r5
 80070e0:	f8a4 5068 	strh.w	r5, [r4, #104]	; 0x68
 80070e4:	e749      	b.n	8006f7a <MCPA_dataLog+0x36>
 80070e6:	f894 3085 	ldrb.w	r3, [r4, #133]	; 0x85
 80070ea:	2bfd      	cmp	r3, #253	; 0xfd
 80070ec:	f63f af35 	bhi.w	8006f5a <MCPA_dataLog+0x16>
 80070f0:	f894 007f 	ldrb.w	r0, [r4, #127]	; 0x7f
 80070f4:	4298      	cmp	r0, r3
 80070f6:	d006      	beq.n	8007106 <MCPA_dataLog+0x1c2>
 80070f8:	3001      	adds	r0, #1
 80070fa:	f884 007f 	strb.w	r0, [r4, #127]	; 0x7f
 80070fe:	42aa      	cmp	r2, r5
 8007100:	f4ff af3b 	bcc.w	8006f7a <MCPA_dataLog+0x36>
 8007104:	bd70      	pop	{r4, r5, r6, pc}
 8007106:	f894 3087 	ldrb.w	r3, [r4, #135]	; 0x87
 800710a:	2000      	movs	r0, #0
 800710c:	f884 007f 	strb.w	r0, [r4, #127]	; 0x7f
 8007110:	2b00      	cmp	r3, #0
 8007112:	d0f4      	beq.n	80070fe <MCPA_dataLog+0x1ba>
 8007114:	6ce0      	ldr	r0, [r4, #76]	; 0x4c
 8007116:	6800      	ldr	r0, [r0, #0]
 8007118:	5148      	str	r0, [r1, r5]
 800711a:	f894 0078 	ldrb.w	r0, [r4, #120]	; 0x78
 800711e:	2b01      	cmp	r3, #1
 8007120:	4405      	add	r5, r0
 8007122:	b2ad      	uxth	r5, r5
 8007124:	d92a      	bls.n	800717c <MCPA_dataLog+0x238>
 8007126:	6d20      	ldr	r0, [r4, #80]	; 0x50
 8007128:	6800      	ldr	r0, [r0, #0]
 800712a:	5148      	str	r0, [r1, r5]
 800712c:	f894 0079 	ldrb.w	r0, [r4, #121]	; 0x79
 8007130:	2b02      	cmp	r3, #2
 8007132:	4405      	add	r5, r0
 8007134:	b2ad      	uxth	r5, r5
 8007136:	d021      	beq.n	800717c <MCPA_dataLog+0x238>
 8007138:	6d60      	ldr	r0, [r4, #84]	; 0x54
 800713a:	6800      	ldr	r0, [r0, #0]
 800713c:	5148      	str	r0, [r1, r5]
 800713e:	f894 007a 	ldrb.w	r0, [r4, #122]	; 0x7a
 8007142:	2b03      	cmp	r3, #3
 8007144:	4405      	add	r5, r0
 8007146:	b2ad      	uxth	r5, r5
 8007148:	d018      	beq.n	800717c <MCPA_dataLog+0x238>
 800714a:	6da0      	ldr	r0, [r4, #88]	; 0x58
 800714c:	6800      	ldr	r0, [r0, #0]
 800714e:	5148      	str	r0, [r1, r5]
 8007150:	f894 007b 	ldrb.w	r0, [r4, #123]	; 0x7b
 8007154:	2b04      	cmp	r3, #4
 8007156:	4405      	add	r5, r0
 8007158:	b2ad      	uxth	r5, r5
 800715a:	d00f      	beq.n	800717c <MCPA_dataLog+0x238>
 800715c:	6de0      	ldr	r0, [r4, #92]	; 0x5c
 800715e:	6800      	ldr	r0, [r0, #0]
 8007160:	5148      	str	r0, [r1, r5]
 8007162:	f894 007c 	ldrb.w	r0, [r4, #124]	; 0x7c
 8007166:	2b05      	cmp	r3, #5
 8007168:	4405      	add	r5, r0
 800716a:	b2ad      	uxth	r5, r5
 800716c:	d006      	beq.n	800717c <MCPA_dataLog+0x238>
 800716e:	6e23      	ldr	r3, [r4, #96]	; 0x60
 8007170:	681b      	ldr	r3, [r3, #0]
 8007172:	514b      	str	r3, [r1, r5]
 8007174:	f894 307d 	ldrb.w	r3, [r4, #125]	; 0x7d
 8007178:	441d      	add	r5, r3
 800717a:	b2ad      	uxth	r5, r5
 800717c:	f8a4 5068 	strh.w	r5, [r4, #104]	; 0x68
 8007180:	e7bd      	b.n	80070fe <MCPA_dataLog+0x1ba>
 8007182:	bf00      	nop
 8007184:	2000066c 	.word	0x2000066c

08007188 <MCPA_cfgLog>:
 8007188:	6803      	ldr	r3, [r0, #0]
 800718a:	e92d 47f0 	stmdb	sp!, {r4, r5, r6, r7, r8, r9, sl, lr}
 800718e:	89db      	ldrh	r3, [r3, #14]
 8007190:	f8b1 8000 	ldrh.w	r8, [r1]
 8007194:	4543      	cmp	r3, r8
 8007196:	d363      	bcc.n	8007260 <MCPA_cfgLog+0xd8>
 8007198:	788b      	ldrb	r3, [r1, #2]
 800719a:	f880 3080 	strb.w	r3, [r0, #128]	; 0x80
 800719e:	78cc      	ldrb	r4, [r1, #3]
 80071a0:	f880 4082 	strb.w	r4, [r0, #130]	; 0x82
 80071a4:	790b      	ldrb	r3, [r1, #4]
 80071a6:	f880 3084 	strb.w	r3, [r0, #132]	; 0x84
 80071aa:	794b      	ldrb	r3, [r1, #5]
 80071ac:	f880 3086 	strb.w	r3, [r0, #134]	; 0x86
 80071b0:	4605      	mov	r5, r0
 80071b2:	1d8f      	adds	r7, r1, #6
 80071b4:	b19c      	cbz	r4, 80071de <MCPA_cfgLog+0x56>
 80071b6:	2600      	movs	r6, #0
 80071b8:	4634      	mov	r4, r6
 80071ba:	4631      	mov	r1, r6
 80071bc:	3101      	adds	r1, #1
 80071be:	eb05 0181 	add.w	r1, r5, r1, lsl #2
 80071c2:	f837 0b02 	ldrh.w	r0, [r7], #2
 80071c6:	f7fb fea9 	bl	8002f1c <RI_GetPtrReg>
 80071ca:	3601      	adds	r6, #1
 80071cc:	f895 2082 	ldrb.w	r2, [r5, #130]	; 0x82
 80071d0:	b2f1      	uxtb	r1, r6
 80071d2:	1ca3      	adds	r3, r4, #2
 80071d4:	428a      	cmp	r2, r1
 80071d6:	b2dc      	uxtb	r4, r3
 80071d8:	d8f0      	bhi.n	80071bc <MCPA_cfgLog+0x34>
 80071da:	f895 3086 	ldrb.w	r3, [r5, #134]	; 0x86
 80071de:	b1d3      	cbz	r3, 8007216 <MCPA_cfgLog+0x8e>
 80071e0:	f04f 0900 	mov.w	r9, #0
 80071e4:	464e      	mov	r6, r9
 80071e6:	f837 ab02 	ldrh.w	sl, [r7], #2
 80071ea:	1df1      	adds	r1, r6, #7
 80071ec:	eb05 0181 	add.w	r1, r5, r1, lsl #2
 80071f0:	4650      	mov	r0, sl
 80071f2:	f7fb fe93 	bl	8002f1c <RI_GetPtrReg>
 80071f6:	4650      	mov	r0, sl
 80071f8:	f7fb fe84 	bl	8002f04 <RI_GetIDSize>
 80071fc:	442e      	add	r6, r5
 80071fe:	f109 0901 	add.w	r9, r9, #1
 8007202:	f886 0072 	strb.w	r0, [r6, #114]	; 0x72
 8007206:	f895 2086 	ldrb.w	r2, [r5, #134]	; 0x86
 800720a:	fa5f f689 	uxtb.w	r6, r9
 800720e:	1903      	adds	r3, r0, r4
 8007210:	42b2      	cmp	r2, r6
 8007212:	b2dc      	uxtb	r4, r3
 8007214:	d8e7      	bhi.n	80071e6 <MCPA_cfgLog+0x5e>
 8007216:	1d63      	adds	r3, r4, #5
 8007218:	4543      	cmp	r3, r8
 800721a:	da21      	bge.n	8007260 <MCPA_cfgLog+0xd8>
 800721c:	f1a8 0302 	sub.w	r3, r8, #2
 8007220:	1b1b      	subs	r3, r3, r4
 8007222:	f8a5 306e 	strh.w	r3, [r5, #110]	; 0x6e
 8007226:	783b      	ldrb	r3, [r7, #0]
 8007228:	f885 3088 	strb.w	r3, [r5, #136]	; 0x88
 800722c:	b9db      	cbnz	r3, 8007266 <MCPA_cfgLog+0xde>
 800722e:	f895 0089 	ldrb.w	r0, [r5, #137]	; 0x89
 8007232:	b1b0      	cbz	r0, 8007262 <MCPA_cfgLog+0xda>
 8007234:	f8b5 3068 	ldrh.w	r3, [r5, #104]	; 0x68
 8007238:	2b04      	cmp	r3, #4
 800723a:	d90a      	bls.n	8007252 <MCPA_cfgLog+0xca>
 800723c:	6e69      	ldr	r1, [r5, #100]	; 0x64
 800723e:	682c      	ldr	r4, [r5, #0]
 8007240:	52c8      	strh	r0, [r1, r3]
 8007242:	f8b5 2068 	ldrh.w	r2, [r5, #104]	; 0x68
 8007246:	6866      	ldr	r6, [r4, #4]
 8007248:	3202      	adds	r2, #2
 800724a:	b292      	uxth	r2, r2
 800724c:	4620      	mov	r0, r4
 800724e:	2309      	movs	r3, #9
 8007250:	47b0      	blx	r6
 8007252:	2000      	movs	r0, #0
 8007254:	f885 0089 	strb.w	r0, [r5, #137]	; 0x89
 8007258:	f8a5 0068 	strh.w	r0, [r5, #104]	; 0x68
 800725c:	e8bd 87f0 	ldmia.w	sp!, {r4, r5, r6, r7, r8, r9, sl, pc}
 8007260:	2009      	movs	r0, #9
 8007262:	e8bd 87f0 	ldmia.w	sp!, {r4, r5, r6, r7, r8, r9, sl, pc}
 8007266:	2000      	movs	r0, #0
 8007268:	e8bd 87f0 	ldmia.w	sp!, {r4, r5, r6, r7, r8, r9, sl, pc}

0800726c <MPM_Clear>:
 800726c:	b510      	push	{r4, lr}
 800726e:	f44f 7280 	mov.w	r2, #256	; 0x100
 8007272:	4604      	mov	r4, r0
 8007274:	2100      	movs	r1, #0
 8007276:	f001 fc05 	bl	8008a84 <memset>
 800727a:	2300      	movs	r3, #0
 800727c:	f8c4 3100 	str.w	r3, [r4, #256]	; 0x100
 8007280:	bd10      	pop	{r4, pc}
 8007282:	bf00      	nop

08007284 <MPM_CalcElMotorPower>:
 8007284:	f8b0 2100 	ldrh.w	r2, [r0, #256]	; 0x100
 8007288:	1c53      	adds	r3, r2, #1
 800728a:	b29b      	uxth	r3, r3
 800728c:	b470      	push	{r4, r5, r6}
 800728e:	2b7f      	cmp	r3, #127	; 0x7f
 8007290:	4606      	mov	r6, r0
 8007292:	bf88      	it	hi
 8007294:	2300      	movhi	r3, #0
 8007296:	f826 1012 	strh.w	r1, [r6, r2, lsl #1]
 800729a:	4608      	mov	r0, r1
 800729c:	f8a6 2102 	strh.w	r2, [r6, #258]	; 0x102
 80072a0:	f8a6 3100 	strh.w	r3, [r6, #256]	; 0x100
 80072a4:	f106 05fe 	add.w	r5, r6, #254	; 0xfe
 80072a8:	1eb3      	subs	r3, r6, #2
 80072aa:	2200      	movs	r2, #0
 80072ac:	f933 4f02 	ldrsh.w	r4, [r3, #2]!
 80072b0:	42ab      	cmp	r3, r5
 80072b2:	4422      	add	r2, r4
 80072b4:	d1fa      	bne.n	80072ac <MPM_CalcElMotorPower+0x28>
 80072b6:	2a00      	cmp	r2, #0
 80072b8:	bfb8      	it	lt
 80072ba:	327f      	addlt	r2, #127	; 0x7f
 80072bc:	11d2      	asrs	r2, r2, #7
 80072be:	f8a6 2104 	strh.w	r2, [r6, #260]	; 0x104
 80072c2:	bc70      	pop	{r4, r5, r6}
 80072c4:	4770      	bx	lr
 80072c6:	bf00      	nop

080072c8 <MPM_GetAvrgElMotorPowerW>:
 80072c8:	f9b0 0104 	ldrsh.w	r0, [r0, #260]	; 0x104
 80072cc:	4770      	bx	lr
 80072ce:	bf00      	nop

080072d0 <NTC_SetFaultState>:
 80072d0:	8a03      	ldrh	r3, [r0, #16]
 80072d2:	8b42      	ldrh	r2, [r0, #26]
 80072d4:	429a      	cmp	r2, r3
 80072d6:	d306      	bcc.n	80072e6 <NTC_SetFaultState+0x16>
 80072d8:	8b82      	ldrh	r2, [r0, #28]
 80072da:	429a      	cmp	r2, r3
 80072dc:	d901      	bls.n	80072e2 <NTC_SetFaultState+0x12>
 80072de:	2000      	movs	r0, #0
 80072e0:	4770      	bx	lr
 80072e2:	8ac0      	ldrh	r0, [r0, #22]
 80072e4:	4770      	bx	lr
 80072e6:	2008      	movs	r0, #8
 80072e8:	4770      	bx	lr
 80072ea:	bf00      	nop

080072ec <NTC_Clear>:
 80072ec:	2300      	movs	r3, #0
 80072ee:	8203      	strh	r3, [r0, #16]
 80072f0:	4770      	bx	lr
 80072f2:	bf00      	nop

080072f4 <NTC_Init>:
 80072f4:	b510      	push	{r4, lr}
 80072f6:	7803      	ldrb	r3, [r0, #0]
 80072f8:	4604      	mov	r4, r0
 80072fa:	b123      	cbz	r3, 8007306 <NTC_Init+0x12>
 80072fc:	8a43      	ldrh	r3, [r0, #18]
 80072fe:	8203      	strh	r3, [r0, #16]
 8007300:	2200      	movs	r2, #0
 8007302:	82c2      	strh	r2, [r0, #22]
 8007304:	bd10      	pop	{r4, pc}
 8007306:	3004      	adds	r0, #4
 8007308:	f7fb feaa 	bl	8003060 <RCM_RegisterRegConv>
 800730c:	f884 0026 	strb.w	r0, [r4, #38]	; 0x26
 8007310:	4620      	mov	r0, r4
 8007312:	f7ff ffeb 	bl	80072ec <NTC_Clear>
 8007316:	bd10      	pop	{r4, pc}

08007318 <NTC_CalcAvTemp>:
 8007318:	b510      	push	{r4, lr}
 800731a:	7803      	ldrb	r3, [r0, #0]
 800731c:	4604      	mov	r4, r0
 800731e:	b113      	cbz	r3, 8007326 <NTC_CalcAvTemp+0xe>
 8007320:	2000      	movs	r0, #0
 8007322:	82e0      	strh	r0, [r4, #22]
 8007324:	bd10      	pop	{r4, pc}
 8007326:	f890 0026 	ldrb.w	r0, [r0, #38]	; 0x26
 800732a:	f7fb ff6d 	bl	8003208 <RCM_ExecRegularConv>
 800732e:	f64f 73ff 	movw	r3, #65535	; 0xffff
 8007332:	4298      	cmp	r0, r3
 8007334:	d007      	beq.n	8007346 <NTC_CalcAvTemp+0x2e>
 8007336:	8b22      	ldrh	r2, [r4, #24]
 8007338:	8a23      	ldrh	r3, [r4, #16]
 800733a:	1e51      	subs	r1, r2, #1
 800733c:	fb01 0003 	mla	r0, r1, r3, r0
 8007340:	fbb0 f0f2 	udiv	r0, r0, r2
 8007344:	8220      	strh	r0, [r4, #16]
 8007346:	4620      	mov	r0, r4
 8007348:	f7ff ffc2 	bl	80072d0 <NTC_SetFaultState>
 800734c:	82e0      	strh	r0, [r4, #22]
 800734e:	bd10      	pop	{r4, pc}

08007350 <NTC_GetAvTemp_C>:
 8007350:	7803      	ldrb	r3, [r0, #0]
 8007352:	b983      	cbnz	r3, 8007376 <NTC_GetAvTemp_C+0x26>
 8007354:	8a03      	ldrh	r3, [r0, #16]
 8007356:	6a01      	ldr	r1, [r0, #32]
 8007358:	f9b0 201e 	ldrsh.w	r2, [r0, #30]
 800735c:	8c80      	ldrh	r0, [r0, #36]	; 0x24
 800735e:	1a5b      	subs	r3, r3, r1
 8007360:	fb03 f302 	mul.w	r3, r3, r2
 8007364:	2b00      	cmp	r3, #0
 8007366:	bfbc      	itt	lt
 8007368:	f503 437f 	addlt.w	r3, r3, #65280	; 0xff00
 800736c:	33ff      	addlt	r3, #255	; 0xff
 800736e:	eb00 4023 	add.w	r0, r0, r3, asr #16
 8007372:	b200      	sxth	r0, r0
 8007374:	4770      	bx	lr
 8007376:	8a80      	ldrh	r0, [r0, #20]
 8007378:	b200      	sxth	r0, r0
 800737a:	4770      	bx	lr

0800737c <PID_HandleInit>:
 800737c:	2300      	movs	r3, #0
 800737e:	6801      	ldr	r1, [r0, #0]
 8007380:	8c02      	ldrh	r2, [r0, #32]
 8007382:	6041      	str	r1, [r0, #4]
 8007384:	8442      	strh	r2, [r0, #34]	; 0x22
 8007386:	6083      	str	r3, [r0, #8]
 8007388:	6283      	str	r3, [r0, #40]	; 0x28
 800738a:	4770      	bx	lr

0800738c <PID_SetKP>:
 800738c:	8081      	strh	r1, [r0, #4]
 800738e:	4770      	bx	lr

08007390 <PID_SetKI>:
 8007390:	80c1      	strh	r1, [r0, #6]
 8007392:	4770      	bx	lr

08007394 <PID_GetKP>:
 8007394:	f9b0 0004 	ldrsh.w	r0, [r0, #4]
 8007398:	4770      	bx	lr
 800739a:	bf00      	nop

0800739c <PID_GetKI>:
 800739c:	f9b0 0006 	ldrsh.w	r0, [r0, #6]
 80073a0:	4770      	bx	lr
 80073a2:	bf00      	nop

080073a4 <PID_SetIntegralTerm>:
 80073a4:	6081      	str	r1, [r0, #8]
 80073a6:	4770      	bx	lr

080073a8 <PID_GetKPDivisor>:
 80073a8:	8b00      	ldrh	r0, [r0, #24]
 80073aa:	4770      	bx	lr

080073ac <PID_SetKPDivisorPOW2>:
 80073ac:	2301      	movs	r3, #1
 80073ae:	408b      	lsls	r3, r1
 80073b0:	8381      	strh	r1, [r0, #28]
 80073b2:	8303      	strh	r3, [r0, #24]
 80073b4:	4770      	bx	lr
 80073b6:	bf00      	nop

080073b8 <PID_GetKIDivisor>:
 80073b8:	8b40      	ldrh	r0, [r0, #26]
 80073ba:	4770      	bx	lr

080073bc <PID_SetLowerIntegralTermLimit>:
 80073bc:	6101      	str	r1, [r0, #16]
 80073be:	4770      	bx	lr

080073c0 <PID_SetUpperIntegralTermLimit>:
 80073c0:	60c1      	str	r1, [r0, #12]
 80073c2:	4770      	bx	lr

080073c4 <PID_SetKIDivisorPOW2>:
 80073c4:	b538      	push	{r3, r4, r5, lr}
 80073c6:	2301      	movs	r3, #1
 80073c8:	460c      	mov	r4, r1
 80073ca:	408b      	lsls	r3, r1
 80073cc:	f647 71ff 	movw	r1, #32767	; 0x7fff
 80073d0:	8343      	strh	r3, [r0, #26]
 80073d2:	83c4      	strh	r4, [r0, #30]
 80073d4:	40a1      	lsls	r1, r4
 80073d6:	4605      	mov	r5, r0
 80073d8:	f7ff fff2 	bl	80073c0 <PID_SetUpperIntegralTermLimit>
 80073dc:	4902      	ldr	r1, [pc, #8]	; (80073e8 <PID_SetKIDivisorPOW2+0x24>)
 80073de:	4628      	mov	r0, r5
 80073e0:	40a1      	lsls	r1, r4
 80073e2:	f7ff ffeb 	bl	80073bc <PID_SetLowerIntegralTermLimit>
 80073e6:	bd38      	pop	{r3, r4, r5, pc}
 80073e8:	ffff8001 	.word	0xffff8001

080073ec <PID_SetKD>:
 80073ec:	8441      	strh	r1, [r0, #34]	; 0x22
 80073ee:	4770      	bx	lr

080073f0 <PID_GetKD>:
 80073f0:	f9b0 0022 	ldrsh.w	r0, [r0, #34]	; 0x22
 80073f4:	4770      	bx	lr
 80073f6:	bf00      	nop

080073f8 <PID_GetKDDivisor>:
 80073f8:	8c80      	ldrh	r0, [r0, #36]	; 0x24
 80073fa:	4770      	bx	lr

080073fc <PID_SetKDDivisorPOW2>:
 80073fc:	2301      	movs	r3, #1
 80073fe:	408b      	lsls	r3, r1
 8007400:	84c1      	strh	r1, [r0, #38]	; 0x26
 8007402:	8483      	strh	r3, [r0, #36]	; 0x24
 8007404:	4770      	bx	lr
 8007406:	bf00      	nop

08007408 <PI_Controller>:
 8007408:	f9b0 3004 	ldrsh.w	r3, [r0, #4]
 800740c:	f9b0 2006 	ldrsh.w	r2, [r0, #6]
 8007410:	b470      	push	{r4, r5, r6}
 8007412:	fb01 f303 	mul.w	r3, r1, r3
 8007416:	f9b0 4014 	ldrsh.w	r4, [r0, #20]
 800741a:	f9b0 5016 	ldrsh.w	r5, [r0, #22]
 800741e:	b162      	cbz	r2, 800743a <PI_Controller+0x32>
 8007420:	6886      	ldr	r6, [r0, #8]
 8007422:	fb01 f102 	mul.w	r1, r1, r2
 8007426:	1872      	adds	r2, r6, r1
 8007428:	d420      	bmi.n	800746c <PI_Controller+0x64>
 800742a:	2e00      	cmp	r6, #0
 800742c:	db29      	blt.n	8007482 <PI_Controller+0x7a>
 800742e:	68c1      	ldr	r1, [r0, #12]
 8007430:	4291      	cmp	r1, r2
 8007432:	db03      	blt.n	800743c <PI_Controller+0x34>
 8007434:	6901      	ldr	r1, [r0, #16]
 8007436:	4291      	cmp	r1, r2
 8007438:	dc00      	bgt.n	800743c <PI_Controller+0x34>
 800743a:	4611      	mov	r1, r2
 800743c:	8b86      	ldrh	r6, [r0, #28]
 800743e:	8bc2      	ldrh	r2, [r0, #30]
 8007440:	4133      	asrs	r3, r6
 8007442:	fa41 f202 	asr.w	r2, r1, r2
 8007446:	4413      	add	r3, r2
 8007448:	429c      	cmp	r4, r3
 800744a:	da05      	bge.n	8007458 <PI_Controller+0x50>
 800744c:	1ae3      	subs	r3, r4, r3
 800744e:	4419      	add	r1, r3
 8007450:	6081      	str	r1, [r0, #8]
 8007452:	4620      	mov	r0, r4
 8007454:	bc70      	pop	{r4, r5, r6}
 8007456:	4770      	bx	lr
 8007458:	429d      	cmp	r5, r3
 800745a:	bfc9      	itett	gt
 800745c:	1aeb      	subgt	r3, r5, r3
 800745e:	b21c      	sxthle	r4, r3
 8007460:	462c      	movgt	r4, r5
 8007462:	18c9      	addgt	r1, r1, r3
 8007464:	6081      	str	r1, [r0, #8]
 8007466:	4620      	mov	r0, r4
 8007468:	bc70      	pop	{r4, r5, r6}
 800746a:	4770      	bx	lr
 800746c:	2e00      	cmp	r6, #0
 800746e:	ddde      	ble.n	800742e <PI_Controller+0x26>
 8007470:	2900      	cmp	r1, #0
 8007472:	dddc      	ble.n	800742e <PI_Controller+0x26>
 8007474:	68c1      	ldr	r1, [r0, #12]
 8007476:	f06f 4200 	mvn.w	r2, #2147483648	; 0x80000000
 800747a:	4291      	cmp	r1, r2
 800747c:	d1de      	bne.n	800743c <PI_Controller+0x34>
 800747e:	460a      	mov	r2, r1
 8007480:	e7db      	b.n	800743a <PI_Controller+0x32>
 8007482:	4e03      	ldr	r6, [pc, #12]	; (8007490 <PI_Controller+0x88>)
 8007484:	ea32 0221 	bics.w	r2, r2, r1, asr #32
 8007488:	bf28      	it	cs
 800748a:	4632      	movcs	r2, r6
 800748c:	e7cf      	b.n	800742e <PI_Controller+0x26>
 800748e:	bf00      	nop
 8007490:	80000001 	.word	0x80000001

08007494 <PQD_CalcElMotorPower>:
 8007494:	b570      	push	{r4, r5, r6, lr}
 8007496:	e9d0 4242 	ldrd	r4, r2, [r0, #264]	; 0x108
 800749a:	8b11      	ldrh	r1, [r2, #24]
 800749c:	89d3      	ldrh	r3, [r2, #14]
 800749e:	8995      	ldrh	r5, [r2, #12]
 80074a0:	8ad2      	ldrh	r2, [r2, #22]
 80074a2:	fb13 f301 	smulbb	r3, r3, r1
 80074a6:	4606      	mov	r6, r0
 80074a8:	f8d0 0110 	ldr.w	r0, [r0, #272]	; 0x110
 80074ac:	fb15 3502 	smlabb	r5, r5, r2, r3
 80074b0:	f7ff fae6 	bl	8006a80 <VBS_GetAvBusVoltage_V>
 80074b4:	fb04 f200 	mul.w	r2, r4, r0
 80074b8:	1e2c      	subs	r4, r5, #0
 80074ba:	480e      	ldr	r0, [pc, #56]	; (80074f4 <PQD_CalcElMotorPower+0x60>)
 80074bc:	490e      	ldr	r1, [pc, #56]	; (80074f8 <PQD_CalcElMotorPower+0x64>)
 80074be:	bfb8      	it	lt
 80074c0:	f504 447f 	addlt.w	r4, r4, #65280	; 0xff00
 80074c4:	fb80 3002 	smull	r3, r0, r0, r2
 80074c8:	bfb8      	it	lt
 80074ca:	34ff      	addlt	r4, #255	; 0xff
 80074cc:	17d3      	asrs	r3, r2, #31
 80074ce:	1424      	asrs	r4, r4, #16
 80074d0:	ebc3 13a0 	rsb	r3, r3, r0, asr #6
 80074d4:	fb03 f304 	mul.w	r3, r3, r4
 80074d8:	eb03 0343 	add.w	r3, r3, r3, lsl #1
 80074dc:	005b      	lsls	r3, r3, #1
 80074de:	fb81 2103 	smull	r2, r1, r1, r3
 80074e2:	17db      	asrs	r3, r3, #31
 80074e4:	4630      	mov	r0, r6
 80074e6:	ebc3 41a1 	rsb	r1, r3, r1, asr #18
 80074ea:	e8bd 4070 	ldmia.w	sp!, {r4, r5, r6, lr}
 80074ee:	f7ff bec9 	b.w	8007284 <MPM_CalcElMotorPower>
 80074f2:	bf00      	nop
 80074f4:	1b4e81b5 	.word	0x1b4e81b5
 80074f8:	66666667 	.word	0x66666667

080074fc <startTimers>:
 80074fc:	b430      	push	{r4, r5}
 80074fe:	4b18      	ldr	r3, [pc, #96]	; (8007560 <startTimers+0x64>)
 8007500:	6d9a      	ldr	r2, [r3, #88]	; 0x58
 8007502:	07d2      	lsls	r2, r2, #31
 8007504:	b082      	sub	sp, #8
 8007506:	d415      	bmi.n	8007534 <startTimers+0x38>
 8007508:	6d9a      	ldr	r2, [r3, #88]	; 0x58
 800750a:	f042 0201 	orr.w	r2, r2, #1
 800750e:	659a      	str	r2, [r3, #88]	; 0x58
 8007510:	6d9a      	ldr	r2, [r3, #88]	; 0x58
 8007512:	f04f 4180 	mov.w	r1, #1073741824	; 0x40000000
 8007516:	f002 0201 	and.w	r2, r2, #1
 800751a:	9201      	str	r2, [sp, #4]
 800751c:	9a01      	ldr	r2, [sp, #4]
 800751e:	694a      	ldr	r2, [r1, #20]
 8007520:	f042 0201 	orr.w	r2, r2, #1
 8007524:	614a      	str	r2, [r1, #20]
 8007526:	6d9a      	ldr	r2, [r3, #88]	; 0x58
 8007528:	f022 0201 	bic.w	r2, r2, #1
 800752c:	659a      	str	r2, [r3, #88]	; 0x58
 800752e:	b002      	add	sp, #8
 8007530:	bc30      	pop	{r4, r5}
 8007532:	4770      	bx	lr
 8007534:	f04f 4380 	mov.w	r3, #1073741824	; 0x40000000
 8007538:	4c0a      	ldr	r4, [pc, #40]	; (8007564 <startTimers+0x68>)
 800753a:	685a      	ldr	r2, [r3, #4]
 800753c:	6859      	ldr	r1, [r3, #4]
 800753e:	4d0a      	ldr	r5, [pc, #40]	; (8007568 <startTimers+0x6c>)
 8007540:	4021      	ands	r1, r4
 8007542:	f041 0120 	orr.w	r1, r1, #32
 8007546:	6059      	str	r1, [r3, #4]
 8007548:	6958      	ldr	r0, [r3, #20]
 800754a:	f040 0001 	orr.w	r0, r0, #1
 800754e:	6158      	str	r0, [r3, #20]
 8007550:	6859      	ldr	r1, [r3, #4]
 8007552:	402a      	ands	r2, r5
 8007554:	4021      	ands	r1, r4
 8007556:	430a      	orrs	r2, r1
 8007558:	605a      	str	r2, [r3, #4]
 800755a:	b002      	add	sp, #8
 800755c:	bc30      	pop	{r4, r5}
 800755e:	4770      	bx	lr
 8007560:	40021000 	.word	0x40021000
 8007564:	fdffff8f 	.word	0xfdffff8f
 8007568:	02000070 	.word	0x02000070

0800756c <waitForPolarizationEnd>:
 800756c:	b4f0      	push	{r4, r5, r6, r7}
 800756e:	1c56      	adds	r6, r2, #1
 8007570:	0876      	lsrs	r6, r6, #1
 8007572:	f06f 0702 	mvn.w	r7, #2
 8007576:	0176      	lsls	r6, r6, #5
 8007578:	6107      	str	r7, [r0, #16]
 800757a:	2200      	movs	r2, #0
 800757c:	781c      	ldrb	r4, [r3, #0]
 800757e:	2c0f      	cmp	r4, #15
 8007580:	f102 0501 	add.w	r5, r2, #1
 8007584:	d80b      	bhi.n	800759e <waitForPolarizationEnd+0x32>
 8007586:	6904      	ldr	r4, [r0, #16]
 8007588:	07a4      	lsls	r4, r4, #30
 800758a:	d5f7      	bpl.n	800757c <waitForPolarizationEnd+0x10>
 800758c:	b2aa      	uxth	r2, r5
 800758e:	4296      	cmp	r6, r2
 8007590:	6107      	str	r7, [r0, #16]
 8007592:	d8f3      	bhi.n	800757c <waitForPolarizationEnd+0x10>
 8007594:	781c      	ldrb	r4, [r3, #0]
 8007596:	2c0f      	cmp	r4, #15
 8007598:	d8f0      	bhi.n	800757c <waitForPolarizationEnd+0x10>
 800759a:	2301      	movs	r3, #1
 800759c:	800b      	strh	r3, [r1, #0]
 800759e:	bcf0      	pop	{r4, r5, r6, r7}
 80075a0:	4770      	bx	lr
 80075a2:	bf00      	nop

080075a4 <R3_2_ADCxInit>:
 80075a4:	6883      	ldr	r3, [r0, #8]
 80075a6:	f023 4320 	bic.w	r3, r3, #2684354560	; 0xa0000000
 80075aa:	f023 033f 	bic.w	r3, r3, #63	; 0x3f
 80075ae:	6083      	str	r3, [r0, #8]
 80075b0:	6883      	ldr	r3, [r0, #8]
 80075b2:	00d9      	lsls	r1, r3, #3
 80075b4:	b082      	sub	sp, #8
 80075b6:	d418      	bmi.n	80075ea <R3_2_ADCxInit+0x46>
 80075b8:	4b24      	ldr	r3, [pc, #144]	; (800764c <R3_2_ADCxInit+0xa8>)
 80075ba:	6882      	ldr	r2, [r0, #8]
 80075bc:	681b      	ldr	r3, [r3, #0]
 80075be:	4924      	ldr	r1, [pc, #144]	; (8007650 <R3_2_ADCxInit+0xac>)
 80075c0:	099b      	lsrs	r3, r3, #6
 80075c2:	fba1 1303 	umull	r1, r3, r1, r3
 80075c6:	f022 4210 	bic.w	r2, r2, #2415919104	; 0x90000000
 80075ca:	099b      	lsrs	r3, r3, #6
 80075cc:	f022 023f 	bic.w	r2, r2, #63	; 0x3f
 80075d0:	005b      	lsls	r3, r3, #1
 80075d2:	f042 5280 	orr.w	r2, r2, #268435456	; 0x10000000
 80075d6:	6082      	str	r2, [r0, #8]
 80075d8:	9301      	str	r3, [sp, #4]
 80075da:	9b01      	ldr	r3, [sp, #4]
 80075dc:	b12b      	cbz	r3, 80075ea <R3_2_ADCxInit+0x46>
 80075de:	9b01      	ldr	r3, [sp, #4]
 80075e0:	3b01      	subs	r3, #1
 80075e2:	9301      	str	r3, [sp, #4]
 80075e4:	9b01      	ldr	r3, [sp, #4]
 80075e6:	2b00      	cmp	r3, #0
 80075e8:	d1f9      	bne.n	80075de <R3_2_ADCxInit+0x3a>
 80075ea:	6883      	ldr	r3, [r0, #8]
 80075ec:	f023 4340 	bic.w	r3, r3, #3221225472	; 0xc0000000
 80075f0:	f023 033f 	bic.w	r3, r3, #63	; 0x3f
 80075f4:	f043 4300 	orr.w	r3, r3, #2147483648	; 0x80000000
 80075f8:	6083      	str	r3, [r0, #8]
 80075fa:	6883      	ldr	r3, [r0, #8]
 80075fc:	2b00      	cmp	r3, #0
 80075fe:	dbfc      	blt.n	80075fa <R3_2_ADCxInit+0x56>
 8007600:	6803      	ldr	r3, [r0, #0]
 8007602:	07da      	lsls	r2, r3, #31
 8007604:	d408      	bmi.n	8007618 <R3_2_ADCxInit+0x74>
 8007606:	4a13      	ldr	r2, [pc, #76]	; (8007654 <R3_2_ADCxInit+0xb0>)
 8007608:	6883      	ldr	r3, [r0, #8]
 800760a:	4013      	ands	r3, r2
 800760c:	f043 0301 	orr.w	r3, r3, #1
 8007610:	6083      	str	r3, [r0, #8]
 8007612:	6803      	ldr	r3, [r0, #0]
 8007614:	07db      	lsls	r3, r3, #31
 8007616:	d5f7      	bpl.n	8007608 <R3_2_ADCxInit+0x64>
 8007618:	6882      	ldr	r2, [r0, #8]
 800761a:	490e      	ldr	r1, [pc, #56]	; (8007654 <R3_2_ADCxInit+0xb0>)
 800761c:	400a      	ands	r2, r1
 800761e:	f042 0208 	orr.w	r2, r2, #8
 8007622:	6082      	str	r2, [r0, #8]
 8007624:	6882      	ldr	r2, [r0, #8]
 8007626:	400a      	ands	r2, r1
 8007628:	f042 0220 	orr.w	r2, r2, #32
 800762c:	6082      	str	r2, [r0, #8]
 800762e:	68c3      	ldr	r3, [r0, #12]
 8007630:	f023 4300 	bic.w	r3, r3, #2147483648	; 0x80000000
 8007634:	f423 1300 	bic.w	r3, r3, #2097152	; 0x200000
 8007638:	f443 1300 	orr.w	r3, r3, #2097152	; 0x200000
 800763c:	60c3      	str	r3, [r0, #12]
 800763e:	6883      	ldr	r3, [r0, #8]
 8007640:	400b      	ands	r3, r1
 8007642:	f043 0304 	orr.w	r3, r3, #4
 8007646:	6083      	str	r3, [r0, #8]
 8007648:	b002      	add	sp, #8
 800764a:	4770      	bx	lr
 800764c:	20000638 	.word	0x20000638
 8007650:	053e2d63 	.word	0x053e2d63
 8007654:	7fffffc0 	.word	0x7fffffc0

08007658 <R3_2_GetPhaseCurrents>:
 8007658:	f8d0 3088 	ldr.w	r3, [r0, #136]	; 0x88
 800765c:	f890 2068 	ldrb.w	r2, [r0, #104]	; 0x68
 8007660:	b4f0      	push	{r4, r5, r6, r7}
 8007662:	689c      	ldr	r4, [r3, #8]
 8007664:	eb03 0382 	add.w	r3, r3, r2, lsl #2
 8007668:	6cdd      	ldr	r5, [r3, #76]	; 0x4c
 800766a:	6e5b      	ldr	r3, [r3, #100]	; 0x64
 800766c:	682d      	ldr	r5, [r5, #0]
 800766e:	681e      	ldr	r6, [r3, #0]
 8007670:	6863      	ldr	r3, [r4, #4]
 8007672:	f023 7300 	bic.w	r3, r3, #33554432	; 0x2000000
 8007676:	f023 0370 	bic.w	r3, r3, #112	; 0x70
 800767a:	6063      	str	r3, [r4, #4]
 800767c:	2a05      	cmp	r2, #5
 800767e:	f200 8099 	bhi.w	80077b4 <R3_2_GetPhaseCurrents+0x15c>
 8007682:	e8df f002 	tbb	[pc, r2]
 8007686:	1e38      	.short	0x1e38
 8007688:	3803031e 	.word	0x3803031e
 800768c:	6f04      	ldr	r4, [r0, #112]	; 0x70
 800768e:	4b4d      	ldr	r3, [pc, #308]	; (80077c4 <R3_2_GetPhaseCurrents+0x16c>)
 8007690:	1b64      	subs	r4, r4, r5
 8007692:	429c      	cmp	r4, r3
 8007694:	da55      	bge.n	8007742 <R3_2_GetPhaseCurrents+0xea>
 8007696:	800b      	strh	r3, [r1, #0]
 8007698:	6f42      	ldr	r2, [r0, #116]	; 0x74
 800769a:	4f4a      	ldr	r7, [pc, #296]	; (80077c4 <R3_2_GetPhaseCurrents+0x16c>)
 800769c:	1b92      	subs	r2, r2, r6
 800769e:	42ba      	cmp	r2, r7
 80076a0:	da55      	bge.n	800774e <R3_2_GetPhaseCurrents+0xf6>
 80076a2:	f9b1 5000 	ldrsh.w	r5, [r1]
 80076a6:	804f      	strh	r7, [r1, #2]
 80076a8:	b2ab      	uxth	r3, r5
 80076aa:	f248 0201 	movw	r2, #32769	; 0x8001
 80076ae:	4413      	add	r3, r2
 80076b0:	425b      	negs	r3, r3
 80076b2:	f8a0 504c 	strh.w	r5, [r0, #76]	; 0x4c
 80076b6:	f8a0 704e 	strh.w	r7, [r0, #78]	; 0x4e
 80076ba:	f8a0 3050 	strh.w	r3, [r0, #80]	; 0x50
 80076be:	bcf0      	pop	{r4, r5, r6, r7}
 80076c0:	4770      	bx	lr
 80076c2:	6f04      	ldr	r4, [r0, #112]	; 0x70
 80076c4:	4b3f      	ldr	r3, [pc, #252]	; (80077c4 <R3_2_GetPhaseCurrents+0x16c>)
 80076c6:	1b64      	subs	r4, r4, r5
 80076c8:	429c      	cmp	r4, r3
 80076ca:	db34      	blt.n	8007736 <R3_2_GetPhaseCurrents+0xde>
 80076cc:	f5b4 4f00 	cmp.w	r4, #32768	; 0x8000
 80076d0:	db68      	blt.n	80077a4 <R3_2_GetPhaseCurrents+0x14c>
 80076d2:	f647 72ff 	movw	r2, #32767	; 0x7fff
 80076d6:	4613      	mov	r3, r2
 80076d8:	800a      	strh	r2, [r1, #0]
 80076da:	4614      	mov	r4, r2
 80076dc:	4615      	mov	r5, r2
 80076de:	6f82      	ldr	r2, [r0, #120]	; 0x78
 80076e0:	1ab2      	subs	r2, r6, r2
 80076e2:	1b12      	subs	r2, r2, r4
 80076e4:	f5b2 4f00 	cmp.w	r2, #32768	; 0x8000
 80076e8:	db44      	blt.n	8007774 <R3_2_GetPhaseCurrents+0x11c>
 80076ea:	f647 74ff 	movw	r4, #32767	; 0x7fff
 80076ee:	4622      	mov	r2, r4
 80076f0:	804c      	strh	r4, [r1, #2]
 80076f2:	4627      	mov	r7, r4
 80076f4:	e7db      	b.n	80076ae <R3_2_GetPhaseCurrents+0x56>
 80076f6:	6f44      	ldr	r4, [r0, #116]	; 0x74
 80076f8:	4b32      	ldr	r3, [pc, #200]	; (80077c4 <R3_2_GetPhaseCurrents+0x16c>)
 80076fa:	1b64      	subs	r4, r4, r5
 80076fc:	429c      	cmp	r4, r3
 80076fe:	db14      	blt.n	800772a <R3_2_GetPhaseCurrents+0xd2>
 8007700:	f5b4 4f00 	cmp.w	r4, #32768	; 0x8000
 8007704:	db43      	blt.n	800778e <R3_2_GetPhaseCurrents+0x136>
 8007706:	f647 73ff 	movw	r3, #32767	; 0x7fff
 800770a:	461a      	mov	r2, r3
 800770c:	804b      	strh	r3, [r1, #2]
 800770e:	461c      	mov	r4, r3
 8007710:	461f      	mov	r7, r3
 8007712:	6f85      	ldr	r5, [r0, #120]	; 0x78
 8007714:	1b73      	subs	r3, r6, r5
 8007716:	1b1c      	subs	r4, r3, r4
 8007718:	f5b4 4f00 	cmp.w	r4, #32768	; 0x8000
 800771c:	db23      	blt.n	8007766 <R3_2_GetPhaseCurrents+0x10e>
 800771e:	f647 74ff 	movw	r4, #32767	; 0x7fff
 8007722:	4623      	mov	r3, r4
 8007724:	800c      	strh	r4, [r1, #0]
 8007726:	4625      	mov	r5, r4
 8007728:	e7c1      	b.n	80076ae <R3_2_GetPhaseCurrents+0x56>
 800772a:	461c      	mov	r4, r3
 800772c:	804b      	strh	r3, [r1, #2]
 800772e:	461f      	mov	r7, r3
 8007730:	f248 0201 	movw	r2, #32769	; 0x8001
 8007734:	e7ed      	b.n	8007712 <R3_2_GetPhaseCurrents+0xba>
 8007736:	461c      	mov	r4, r3
 8007738:	800b      	strh	r3, [r1, #0]
 800773a:	461d      	mov	r5, r3
 800773c:	f248 0301 	movw	r3, #32769	; 0x8001
 8007740:	e7cd      	b.n	80076de <R3_2_GetPhaseCurrents+0x86>
 8007742:	f5b4 4f00 	cmp.w	r4, #32768	; 0x8000
 8007746:	db1c      	blt.n	8007782 <R3_2_GetPhaseCurrents+0x12a>
 8007748:	f647 73ff 	movw	r3, #32767	; 0x7fff
 800774c:	e7a3      	b.n	8007696 <R3_2_GetPhaseCurrents+0x3e>
 800774e:	f5b2 4f00 	cmp.w	r2, #32768	; 0x8000
 8007752:	db20      	blt.n	8007796 <R3_2_GetPhaseCurrents+0x13e>
 8007754:	f9b1 5000 	ldrsh.w	r5, [r1]
 8007758:	f647 73ff 	movw	r3, #32767	; 0x7fff
 800775c:	804b      	strh	r3, [r1, #2]
 800775e:	461a      	mov	r2, r3
 8007760:	461f      	mov	r7, r3
 8007762:	b2ab      	uxth	r3, r5
 8007764:	e7a3      	b.n	80076ae <R3_2_GetPhaseCurrents+0x56>
 8007766:	4d17      	ldr	r5, [pc, #92]	; (80077c4 <R3_2_GetPhaseCurrents+0x16c>)
 8007768:	42ac      	cmp	r4, r5
 800776a:	da1f      	bge.n	80077ac <R3_2_GetPhaseCurrents+0x154>
 800776c:	800d      	strh	r5, [r1, #0]
 800776e:	f248 0301 	movw	r3, #32769	; 0x8001
 8007772:	e79c      	b.n	80076ae <R3_2_GetPhaseCurrents+0x56>
 8007774:	4f13      	ldr	r7, [pc, #76]	; (80077c4 <R3_2_GetPhaseCurrents+0x16c>)
 8007776:	42ba      	cmp	r2, r7
 8007778:	da05      	bge.n	8007786 <R3_2_GetPhaseCurrents+0x12e>
 800777a:	804f      	strh	r7, [r1, #2]
 800777c:	f248 0201 	movw	r2, #32769	; 0x8001
 8007780:	e795      	b.n	80076ae <R3_2_GetPhaseCurrents+0x56>
 8007782:	800c      	strh	r4, [r1, #0]
 8007784:	e788      	b.n	8007698 <R3_2_GetPhaseCurrents+0x40>
 8007786:	b217      	sxth	r7, r2
 8007788:	804f      	strh	r7, [r1, #2]
 800778a:	b292      	uxth	r2, r2
 800778c:	e78f      	b.n	80076ae <R3_2_GetPhaseCurrents+0x56>
 800778e:	b227      	sxth	r7, r4
 8007790:	804f      	strh	r7, [r1, #2]
 8007792:	b2a2      	uxth	r2, r4
 8007794:	e7bd      	b.n	8007712 <R3_2_GetPhaseCurrents+0xba>
 8007796:	f9b1 5000 	ldrsh.w	r5, [r1]
 800779a:	b217      	sxth	r7, r2
 800779c:	b2ab      	uxth	r3, r5
 800779e:	804f      	strh	r7, [r1, #2]
 80077a0:	b292      	uxth	r2, r2
 80077a2:	e784      	b.n	80076ae <R3_2_GetPhaseCurrents+0x56>
 80077a4:	b225      	sxth	r5, r4
 80077a6:	800d      	strh	r5, [r1, #0]
 80077a8:	b2a3      	uxth	r3, r4
 80077aa:	e798      	b.n	80076de <R3_2_GetPhaseCurrents+0x86>
 80077ac:	b225      	sxth	r5, r4
 80077ae:	800d      	strh	r5, [r1, #0]
 80077b0:	b2a3      	uxth	r3, r4
 80077b2:	e77c      	b.n	80076ae <R3_2_GetPhaseCurrents+0x56>
 80077b4:	f9b1 5000 	ldrsh.w	r5, [r1]
 80077b8:	f9b1 7002 	ldrsh.w	r7, [r1, #2]
 80077bc:	880b      	ldrh	r3, [r1, #0]
 80077be:	884a      	ldrh	r2, [r1, #2]
 80077c0:	e775      	b.n	80076ae <R3_2_GetPhaseCurrents+0x56>
 80077c2:	bf00      	nop
 80077c4:	ffff8001 	.word	0xffff8001

080077c8 <R3_2_SetADCSampPointPolarization>:
 80077c8:	b410      	push	{r4}
 80077ca:	f8d0 3088 	ldr.w	r3, [r0, #136]	; 0x88
 80077ce:	f890 4081 	ldrb.w	r4, [r0, #129]	; 0x81
 80077d2:	f880 4068 	strb.w	r4, [r0, #104]	; 0x68
 80077d6:	f8b0 207c 	ldrh.w	r2, [r0, #124]	; 0x7c
 80077da:	689b      	ldr	r3, [r3, #8]
 80077dc:	8f44      	ldrh	r4, [r0, #58]	; 0x3a
 80077de:	635c      	str	r4, [r3, #52]	; 0x34
 80077e0:	3a01      	subs	r2, #1
 80077e2:	8f84      	ldrh	r4, [r0, #60]	; 0x3c
 80077e4:	8fc0      	ldrh	r0, [r0, #62]	; 0x3e
 80077e6:	639c      	str	r4, [r3, #56]	; 0x38
 80077e8:	b292      	uxth	r2, r2
 80077ea:	63d8      	str	r0, [r3, #60]	; 0x3c
 80077ec:	641a      	str	r2, [r3, #64]	; 0x40
 80077ee:	4904      	ldr	r1, [pc, #16]	; (8007800 <R3_2_SetADCSampPointPolarization+0x38>)
 80077f0:	685b      	ldr	r3, [r3, #4]
 80077f2:	f85d 4b04 	ldr.w	r4, [sp], #4
 80077f6:	420b      	tst	r3, r1
 80077f8:	bf14      	ite	ne
 80077fa:	2001      	movne	r0, #1
 80077fc:	2000      	moveq	r0, #0
 80077fe:	4770      	bx	lr
 8007800:	02000070 	.word	0x02000070

08007804 <R3_2_HFCurrentsPolarizationAB>:
 8007804:	b470      	push	{r4, r5, r6}
 8007806:	f8d0 3088 	ldr.w	r3, [r0, #136]	; 0x88
 800780a:	f890 4081 	ldrb.w	r4, [r0, #129]	; 0x81
 800780e:	689a      	ldr	r2, [r3, #8]
 8007810:	eb03 0384 	add.w	r3, r3, r4, lsl #2
 8007814:	6cdc      	ldr	r4, [r3, #76]	; 0x4c
 8007816:	6e5b      	ldr	r3, [r3, #100]	; 0x64
 8007818:	6826      	ldr	r6, [r4, #0]
 800781a:	681d      	ldr	r5, [r3, #0]
 800781c:	6853      	ldr	r3, [r2, #4]
 800781e:	f023 7300 	bic.w	r3, r3, #33554432	; 0x2000000
 8007822:	f023 0370 	bic.w	r3, r3, #112	; 0x70
 8007826:	6053      	str	r3, [r2, #4]
 8007828:	f890 3080 	ldrb.w	r3, [r0, #128]	; 0x80
 800782c:	2b0f      	cmp	r3, #15
 800782e:	d80b      	bhi.n	8007848 <R3_2_HFCurrentsPolarizationAB+0x44>
 8007830:	e9d0 421c 	ldrd	r4, r2, [r0, #112]	; 0x70
 8007834:	f890 3080 	ldrb.w	r3, [r0, #128]	; 0x80
 8007838:	4434      	add	r4, r6
 800783a:	442a      	add	r2, r5
 800783c:	3301      	adds	r3, #1
 800783e:	e9c0 421c 	strd	r4, r2, [r0, #112]	; 0x70
 8007842:	b2db      	uxtb	r3, r3
 8007844:	f880 3080 	strb.w	r3, [r0, #128]	; 0x80
 8007848:	2300      	movs	r3, #0
 800784a:	bc70      	pop	{r4, r5, r6}
 800784c:	600b      	str	r3, [r1, #0]
 800784e:	4770      	bx	lr

08007850 <R3_2_HFCurrentsPolarizationC>:
 8007850:	f8d0 3088 	ldr.w	r3, [r0, #136]	; 0x88
 8007854:	b410      	push	{r4}
 8007856:	f890 4081 	ldrb.w	r4, [r0, #129]	; 0x81
 800785a:	689a      	ldr	r2, [r3, #8]
 800785c:	eb03 0384 	add.w	r3, r3, r4, lsl #2
 8007860:	6e5b      	ldr	r3, [r3, #100]	; 0x64
 8007862:	681c      	ldr	r4, [r3, #0]
 8007864:	6853      	ldr	r3, [r2, #4]
 8007866:	f023 7300 	bic.w	r3, r3, #33554432	; 0x2000000
 800786a:	f023 0370 	bic.w	r3, r3, #112	; 0x70
 800786e:	6053      	str	r3, [r2, #4]
 8007870:	f890 3080 	ldrb.w	r3, [r0, #128]	; 0x80
 8007874:	2b0f      	cmp	r3, #15
 8007876:	d808      	bhi.n	800788a <R3_2_HFCurrentsPolarizationC+0x3a>
 8007878:	f890 3080 	ldrb.w	r3, [r0, #128]	; 0x80
 800787c:	6f82      	ldr	r2, [r0, #120]	; 0x78
 800787e:	3301      	adds	r3, #1
 8007880:	b2db      	uxtb	r3, r3
 8007882:	4422      	add	r2, r4
 8007884:	f880 3080 	strb.w	r3, [r0, #128]	; 0x80
 8007888:	6782      	str	r2, [r0, #120]	; 0x78
 800788a:	2300      	movs	r3, #0
 800788c:	f85d 4b04 	ldr.w	r4, [sp], #4
 8007890:	600b      	str	r3, [r1, #0]
 8007892:	4770      	bx	lr

08007894 <R3_2_TurnOnLowSides>:
 8007894:	f8d0 1088 	ldr.w	r1, [r0, #136]	; 0x88
 8007898:	2301      	movs	r3, #1
 800789a:	688a      	ldr	r2, [r1, #8]
 800789c:	f880 3069 	strb.w	r3, [r0, #105]	; 0x69
 80078a0:	2300      	movs	r3, #0
 80078a2:	f06f 0001 	mvn.w	r0, #1
 80078a6:	6110      	str	r0, [r2, #16]
 80078a8:	6353      	str	r3, [r2, #52]	; 0x34
 80078aa:	6393      	str	r3, [r2, #56]	; 0x38
 80078ac:	63d3      	str	r3, [r2, #60]	; 0x3c
 80078ae:	6913      	ldr	r3, [r2, #16]
 80078b0:	07db      	lsls	r3, r3, #31
 80078b2:	d5fc      	bpl.n	80078ae <R3_2_TurnOnLowSides+0x1a>
 80078b4:	6c53      	ldr	r3, [r2, #68]	; 0x44
 80078b6:	f443 4300 	orr.w	r3, r3, #32768	; 0x8000
 80078ba:	6453      	str	r3, [r2, #68]	; 0x44
 80078bc:	f891 30c0 	ldrb.w	r3, [r1, #192]	; 0xc0
 80078c0:	2b02      	cmp	r3, #2
 80078c2:	d000      	beq.n	80078c6 <R3_2_TurnOnLowSides+0x32>
 80078c4:	4770      	bx	lr
 80078c6:	b470      	push	{r4, r5, r6}
 80078c8:	e9d1 5008 	ldrd	r5, r0, [r1, #32]
 80078cc:	6a8b      	ldr	r3, [r1, #40]	; 0x28
 80078ce:	f8b1 60ac 	ldrh.w	r6, [r1, #172]	; 0xac
 80078d2:	f8b1 40ae 	ldrh.w	r4, [r1, #174]	; 0xae
 80078d6:	f8b1 20b0 	ldrh.w	r2, [r1, #176]	; 0xb0
 80078da:	61ae      	str	r6, [r5, #24]
 80078dc:	6184      	str	r4, [r0, #24]
 80078de:	bc70      	pop	{r4, r5, r6}
 80078e0:	619a      	str	r2, [r3, #24]
 80078e2:	4770      	bx	lr

080078e4 <R3_2_SwitchOnPWM>:
 80078e4:	f8d0 1088 	ldr.w	r1, [r0, #136]	; 0x88
 80078e8:	f8b0 207c 	ldrh.w	r2, [r0, #124]	; 0x7c
 80078ec:	688b      	ldr	r3, [r1, #8]
 80078ee:	b430      	push	{r4, r5}
 80078f0:	2401      	movs	r4, #1
 80078f2:	2500      	movs	r5, #0
 80078f4:	f880 408c 	strb.w	r4, [r0, #140]	; 0x8c
 80078f8:	f880 5069 	strb.w	r5, [r0, #105]	; 0x69
 80078fc:	fa22 f404 	lsr.w	r4, r2, r4
 8007900:	f06f 0001 	mvn.w	r0, #1
 8007904:	3a05      	subs	r2, #5
 8007906:	635c      	str	r4, [r3, #52]	; 0x34
 8007908:	639c      	str	r4, [r3, #56]	; 0x38
 800790a:	63dc      	str	r4, [r3, #60]	; 0x3c
 800790c:	641a      	str	r2, [r3, #64]	; 0x40
 800790e:	6118      	str	r0, [r3, #16]
 8007910:	691a      	ldr	r2, [r3, #16]
 8007912:	07d2      	lsls	r2, r2, #31
 8007914:	d5fc      	bpl.n	8007910 <R3_2_SwitchOnPWM+0x2c>
 8007916:	f06f 0201 	mvn.w	r2, #1
 800791a:	611a      	str	r2, [r3, #16]
 800791c:	6c5a      	ldr	r2, [r3, #68]	; 0x44
 800791e:	f442 6280 	orr.w	r2, r2, #1024	; 0x400
 8007922:	645a      	str	r2, [r3, #68]	; 0x44
 8007924:	6c5a      	ldr	r2, [r3, #68]	; 0x44
 8007926:	f442 4200 	orr.w	r2, r2, #32768	; 0x8000
 800792a:	645a      	str	r2, [r3, #68]	; 0x44
 800792c:	f891 20c0 	ldrb.w	r2, [r1, #192]	; 0xc0
 8007930:	2a02      	cmp	r2, #2
 8007932:	d008      	beq.n	8007946 <R3_2_SwitchOnPWM+0x62>
 8007934:	f06f 0201 	mvn.w	r2, #1
 8007938:	611a      	str	r2, [r3, #16]
 800793a:	68da      	ldr	r2, [r3, #12]
 800793c:	f042 0201 	orr.w	r2, r2, #1
 8007940:	bc30      	pop	{r4, r5}
 8007942:	60da      	str	r2, [r3, #12]
 8007944:	4770      	bx	lr
 8007946:	6a18      	ldr	r0, [r3, #32]
 8007948:	6a0c      	ldr	r4, [r1, #32]
 800794a:	f8b1 50ac 	ldrh.w	r5, [r1, #172]	; 0xac
 800794e:	f240 5255 	movw	r2, #1365	; 0x555
 8007952:	4210      	tst	r0, r2
 8007954:	e9d1 0209 	ldrd	r0, r2, [r1, #36]	; 0x24
 8007958:	d007      	beq.n	800796a <R3_2_SwitchOnPWM+0x86>
 800795a:	61a5      	str	r5, [r4, #24]
 800795c:	f8b1 40ae 	ldrh.w	r4, [r1, #174]	; 0xae
 8007960:	f8b1 10b0 	ldrh.w	r1, [r1, #176]	; 0xb0
 8007964:	6184      	str	r4, [r0, #24]
 8007966:	6191      	str	r1, [r2, #24]
 8007968:	e7e4      	b.n	8007934 <R3_2_SwitchOnPWM+0x50>
 800796a:	62a5      	str	r5, [r4, #40]	; 0x28
 800796c:	f8b1 40ae 	ldrh.w	r4, [r1, #174]	; 0xae
 8007970:	f8b1 10b0 	ldrh.w	r1, [r1, #176]	; 0xb0
 8007974:	6284      	str	r4, [r0, #40]	; 0x28
 8007976:	6291      	str	r1, [r2, #40]	; 0x28
 8007978:	e7dc      	b.n	8007934 <R3_2_SwitchOnPWM+0x50>
 800797a:	bf00      	nop

0800797c <R3_2_SwitchOffPWM>:
 800797c:	f8d0 1088 	ldr.w	r1, [r0, #136]	; 0x88
 8007980:	688a      	ldr	r2, [r1, #8]
 8007982:	68d3      	ldr	r3, [r2, #12]
 8007984:	f023 0301 	bic.w	r3, r3, #1
 8007988:	b430      	push	{r4, r5}
 800798a:	f890 4084 	ldrb.w	r4, [r0, #132]	; 0x84
 800798e:	60d3      	str	r3, [r2, #12]
 8007990:	6c53      	ldr	r3, [r2, #68]	; 0x44
 8007992:	2500      	movs	r5, #0
 8007994:	f423 4300 	bic.w	r3, r3, #32768	; 0x8000
 8007998:	f880 5069 	strb.w	r5, [r0, #105]	; 0x69
 800799c:	6453      	str	r3, [r2, #68]	; 0x44
 800799e:	b91c      	cbnz	r4, 80079a8 <R3_2_SwitchOffPWM+0x2c>
 80079a0:	f891 30c0 	ldrb.w	r3, [r1, #192]	; 0xc0
 80079a4:	2b02      	cmp	r3, #2
 80079a6:	d00d      	beq.n	80079c4 <R3_2_SwitchOffPWM+0x48>
 80079a8:	f06f 0301 	mvn.w	r3, #1
 80079ac:	6113      	str	r3, [r2, #16]
 80079ae:	6913      	ldr	r3, [r2, #16]
 80079b0:	07db      	lsls	r3, r3, #31
 80079b2:	d5fc      	bpl.n	80079ae <R3_2_SwitchOffPWM+0x32>
 80079b4:	f06f 0101 	mvn.w	r1, #1
 80079b8:	2300      	movs	r3, #0
 80079ba:	6111      	str	r1, [r2, #16]
 80079bc:	bc30      	pop	{r4, r5}
 80079be:	f880 308c 	strb.w	r3, [r0, #140]	; 0x8c
 80079c2:	4770      	bx	lr
 80079c4:	e9d1 3408 	ldrd	r3, r4, [r1, #32]
 80079c8:	f8b1 50ac 	ldrh.w	r5, [r1, #172]	; 0xac
 80079cc:	629d      	str	r5, [r3, #40]	; 0x28
 80079ce:	6a8b      	ldr	r3, [r1, #40]	; 0x28
 80079d0:	f8b1 50ae 	ldrh.w	r5, [r1, #174]	; 0xae
 80079d4:	f8b1 10b0 	ldrh.w	r1, [r1, #176]	; 0xb0
 80079d8:	62a5      	str	r5, [r4, #40]	; 0x28
 80079da:	6299      	str	r1, [r3, #40]	; 0x28
 80079dc:	e7e4      	b.n	80079a8 <R3_2_SwitchOffPWM+0x2c>
 80079de:	bf00      	nop

080079e0 <R3_2_RLGetPhaseCurrents>:
 80079e0:	b430      	push	{r4, r5}
 80079e2:	f8d0 4088 	ldr.w	r4, [r0, #136]	; 0x88
 80079e6:	6f43      	ldr	r3, [r0, #116]	; 0x74
 80079e8:	68a5      	ldr	r5, [r4, #8]
 80079ea:	686a      	ldr	r2, [r5, #4]
 80079ec:	f022 7200 	bic.w	r2, r2, #33554432	; 0x2000000
 80079f0:	f022 0270 	bic.w	r2, r2, #112	; 0x70
 80079f4:	606a      	str	r2, [r5, #4]
 80079f6:	f890 0068 	ldrb.w	r0, [r0, #104]	; 0x68
 80079fa:	4a0d      	ldr	r2, [pc, #52]	; (8007a30 <R3_2_RLGetPhaseCurrents+0x50>)
 80079fc:	eb04 0480 	add.w	r4, r4, r0, lsl #2
 8007a00:	6e60      	ldr	r0, [r4, #100]	; 0x64
 8007a02:	6800      	ldr	r0, [r0, #0]
 8007a04:	1a1b      	subs	r3, r3, r0
 8007a06:	4293      	cmp	r3, r2
 8007a08:	db05      	blt.n	8007a16 <R3_2_RLGetPhaseCurrents+0x36>
 8007a0a:	f647 72fe 	movw	r2, #32766	; 0x7ffe
 8007a0e:	4293      	cmp	r3, r2
 8007a10:	dc0a      	bgt.n	8007a28 <R3_2_RLGetPhaseCurrents+0x48>
 8007a12:	b21b      	sxth	r3, r3
 8007a14:	e000      	b.n	8007a18 <R3_2_RLGetPhaseCurrents+0x38>
 8007a16:	4b07      	ldr	r3, [pc, #28]	; (8007a34 <R3_2_RLGetPhaseCurrents+0x54>)
 8007a18:	2200      	movs	r2, #0
 8007a1a:	f363 020f 	bfi	r2, r3, #0, #16
 8007a1e:	f363 421f 	bfi	r2, r3, #16, #16
 8007a22:	bc30      	pop	{r4, r5}
 8007a24:	600a      	str	r2, [r1, #0]
 8007a26:	4770      	bx	lr
 8007a28:	f647 73ff 	movw	r3, #32767	; 0x7fff
 8007a2c:	e7f4      	b.n	8007a18 <R3_2_RLGetPhaseCurrents+0x38>
 8007a2e:	bf00      	nop
 8007a30:	ffff8002 	.word	0xffff8002
 8007a34:	ffff8001 	.word	0xffff8001

08007a38 <R3_2_RLTurnOnLowSides>:
 8007a38:	f8d0 1088 	ldr.w	r1, [r0, #136]	; 0x88
 8007a3c:	2301      	movs	r3, #1
 8007a3e:	688a      	ldr	r2, [r1, #8]
 8007a40:	f880 308c 	strb.w	r3, [r0, #140]	; 0x8c
 8007a44:	2000      	movs	r0, #0
 8007a46:	f06f 0301 	mvn.w	r3, #1
 8007a4a:	6350      	str	r0, [r2, #52]	; 0x34
 8007a4c:	6113      	str	r3, [r2, #16]
 8007a4e:	6913      	ldr	r3, [r2, #16]
 8007a50:	07db      	lsls	r3, r3, #31
 8007a52:	d5fc      	bpl.n	8007a4e <R3_2_RLTurnOnLowSides+0x16>
 8007a54:	6c53      	ldr	r3, [r2, #68]	; 0x44
 8007a56:	f443 4300 	orr.w	r3, r3, #32768	; 0x8000
 8007a5a:	6453      	str	r3, [r2, #68]	; 0x44
 8007a5c:	f891 30c0 	ldrb.w	r3, [r1, #192]	; 0xc0
 8007a60:	2b02      	cmp	r3, #2
 8007a62:	d000      	beq.n	8007a66 <R3_2_RLTurnOnLowSides+0x2e>
 8007a64:	4770      	bx	lr
 8007a66:	b470      	push	{r4, r5, r6}
 8007a68:	e9d1 5008 	ldrd	r5, r0, [r1, #32]
 8007a6c:	6a8b      	ldr	r3, [r1, #40]	; 0x28
 8007a6e:	f8b1 60ac 	ldrh.w	r6, [r1, #172]	; 0xac
 8007a72:	f8b1 40ae 	ldrh.w	r4, [r1, #174]	; 0xae
 8007a76:	f8b1 20b0 	ldrh.w	r2, [r1, #176]	; 0xb0
 8007a7a:	61ae      	str	r6, [r5, #24]
 8007a7c:	6284      	str	r4, [r0, #40]	; 0x28
 8007a7e:	bc70      	pop	{r4, r5, r6}
 8007a80:	629a      	str	r2, [r3, #40]	; 0x28
 8007a82:	4770      	bx	lr

08007a84 <R3_2_RLSwitchOnPWM>:
 8007a84:	f8d0 1088 	ldr.w	r1, [r0, #136]	; 0x88
 8007a88:	2201      	movs	r2, #1
 8007a8a:	688b      	ldr	r3, [r1, #8]
 8007a8c:	b4f0      	push	{r4, r5, r6, r7}
 8007a8e:	e9d1 5400 	ldrd	r5, r4, [r1]
 8007a92:	f880 208c 	strb.w	r2, [r0, #140]	; 0x8c
 8007a96:	f06f 0201 	mvn.w	r2, #1
 8007a9a:	611a      	str	r2, [r3, #16]
 8007a9c:	691a      	ldr	r2, [r3, #16]
 8007a9e:	07d6      	lsls	r6, r2, #31
 8007aa0:	d5fc      	bpl.n	8007a9c <R3_2_RLSwitchOnPWM+0x18>
 8007aa2:	f8b0 207c 	ldrh.w	r2, [r0, #124]	; 0x7c
 8007aa6:	f06f 0701 	mvn.w	r7, #1
 8007aaa:	3a05      	subs	r2, #5
 8007aac:	2601      	movs	r6, #1
 8007aae:	611f      	str	r7, [r3, #16]
 8007ab0:	635e      	str	r6, [r3, #52]	; 0x34
 8007ab2:	641a      	str	r2, [r3, #64]	; 0x40
 8007ab4:	691a      	ldr	r2, [r3, #16]
 8007ab6:	07d2      	lsls	r2, r2, #31
 8007ab8:	d5fc      	bpl.n	8007ab4 <R3_2_RLSwitchOnPWM+0x30>
 8007aba:	68da      	ldr	r2, [r3, #12]
 8007abc:	f042 0201 	orr.w	r2, r2, #1
 8007ac0:	60da      	str	r2, [r3, #12]
 8007ac2:	6c5a      	ldr	r2, [r3, #68]	; 0x44
 8007ac4:	f442 6280 	orr.w	r2, r2, #1024	; 0x400
 8007ac8:	645a      	str	r2, [r3, #68]	; 0x44
 8007aca:	6c5a      	ldr	r2, [r3, #68]	; 0x44
 8007acc:	f442 4200 	orr.w	r2, r2, #32768	; 0x8000
 8007ad0:	645a      	str	r2, [r3, #68]	; 0x44
 8007ad2:	f891 20c0 	ldrb.w	r2, [r1, #192]	; 0xc0
 8007ad6:	2a02      	cmp	r2, #2
 8007ad8:	d00f      	beq.n	8007afa <R3_2_RLSwitchOnPWM+0x76>
 8007ada:	2303      	movs	r3, #3
 8007adc:	f880 3068 	strb.w	r3, [r0, #104]	; 0x68
 8007ae0:	68aa      	ldr	r2, [r5, #8]
 8007ae2:	4913      	ldr	r1, [pc, #76]	; (8007b30 <R3_2_RLSwitchOnPWM+0xac>)
 8007ae4:	400a      	ands	r2, r1
 8007ae6:	f042 0208 	orr.w	r2, r2, #8
 8007aea:	60aa      	str	r2, [r5, #8]
 8007aec:	68a3      	ldr	r3, [r4, #8]
 8007aee:	400b      	ands	r3, r1
 8007af0:	f043 0308 	orr.w	r3, r3, #8
 8007af4:	60a3      	str	r3, [r4, #8]
 8007af6:	bcf0      	pop	{r4, r5, r6, r7}
 8007af8:	4770      	bx	lr
 8007afa:	6a1a      	ldr	r2, [r3, #32]
 8007afc:	f240 5355 	movw	r3, #1365	; 0x555
 8007b00:	421a      	tst	r2, r3
 8007b02:	e9d1 3608 	ldrd	r3, r6, [r1, #32]
 8007b06:	f8b1 20ac 	ldrh.w	r2, [r1, #172]	; 0xac
 8007b0a:	d008      	beq.n	8007b1e <R3_2_RLSwitchOnPWM+0x9a>
 8007b0c:	619a      	str	r2, [r3, #24]
 8007b0e:	6a8b      	ldr	r3, [r1, #40]	; 0x28
 8007b10:	f8b1 70ae 	ldrh.w	r7, [r1, #174]	; 0xae
 8007b14:	f8b1 20b0 	ldrh.w	r2, [r1, #176]	; 0xb0
 8007b18:	61b7      	str	r7, [r6, #24]
 8007b1a:	629a      	str	r2, [r3, #40]	; 0x28
 8007b1c:	e7dd      	b.n	8007ada <R3_2_RLSwitchOnPWM+0x56>
 8007b1e:	629a      	str	r2, [r3, #40]	; 0x28
 8007b20:	6a8b      	ldr	r3, [r1, #40]	; 0x28
 8007b22:	f8b1 70ae 	ldrh.w	r7, [r1, #174]	; 0xae
 8007b26:	f8b1 20b0 	ldrh.w	r2, [r1, #176]	; 0xb0
 8007b2a:	62b7      	str	r7, [r6, #40]	; 0x28
 8007b2c:	629a      	str	r2, [r3, #40]	; 0x28
 8007b2e:	e7d4      	b.n	8007ada <R3_2_RLSwitchOnPWM+0x56>
 8007b30:	7fffffc0 	.word	0x7fffffc0

08007b34 <R3_2_SetAOReferenceVoltage>:
 8007b34:	b430      	push	{r4, r5}
 8007b36:	0c84      	lsrs	r4, r0, #18
 8007b38:	f004 043c 	and.w	r4, r4, #60	; 0x3c
 8007b3c:	f101 0508 	add.w	r5, r1, #8
 8007b40:	b082      	sub	sp, #8
 8007b42:	5963      	ldr	r3, [r4, r5]
 8007b44:	f423 437f 	bic.w	r3, r3, #65280	; 0xff00
 8007b48:	f023 03f0 	bic.w	r3, r3, #240	; 0xf0
 8007b4c:	431a      	orrs	r2, r3
 8007b4e:	5162      	str	r2, [r4, r5]
 8007b50:	684a      	ldr	r2, [r1, #4]
 8007b52:	f000 0303 	and.w	r3, r0, #3
 8007b56:	4313      	orrs	r3, r2
 8007b58:	604b      	str	r3, [r1, #4]
 8007b5a:	680a      	ldr	r2, [r1, #0]
 8007b5c:	2301      	movs	r3, #1
 8007b5e:	f000 0010 	and.w	r0, r0, #16
 8007b62:	fa03 f000 	lsl.w	r0, r3, r0
 8007b66:	ea30 0302 	bics.w	r3, r0, r2
 8007b6a:	4b15      	ldr	r3, [pc, #84]	; (8007bc0 <R3_2_SetAOReferenceVoltage+0x8c>)
 8007b6c:	d014      	beq.n	8007b98 <R3_2_SetAOReferenceVoltage+0x64>
 8007b6e:	681b      	ldr	r3, [r3, #0]
 8007b70:	4c14      	ldr	r4, [pc, #80]	; (8007bc4 <R3_2_SetAOReferenceVoltage+0x90>)
 8007b72:	680a      	ldr	r2, [r1, #0]
 8007b74:	fba4 4303 	umull	r4, r3, r4, r3
 8007b78:	0cdb      	lsrs	r3, r3, #19
 8007b7a:	00db      	lsls	r3, r3, #3
 8007b7c:	4310      	orrs	r0, r2
 8007b7e:	6008      	str	r0, [r1, #0]
 8007b80:	9300      	str	r3, [sp, #0]
 8007b82:	9b00      	ldr	r3, [sp, #0]
 8007b84:	b12b      	cbz	r3, 8007b92 <R3_2_SetAOReferenceVoltage+0x5e>
 8007b86:	9b00      	ldr	r3, [sp, #0]
 8007b88:	3b01      	subs	r3, #1
 8007b8a:	9300      	str	r3, [sp, #0]
 8007b8c:	9b00      	ldr	r3, [sp, #0]
 8007b8e:	2b00      	cmp	r3, #0
 8007b90:	d1f9      	bne.n	8007b86 <R3_2_SetAOReferenceVoltage+0x52>
 8007b92:	b002      	add	sp, #8
 8007b94:	bc30      	pop	{r4, r5}
 8007b96:	4770      	bx	lr
 8007b98:	4a0a      	ldr	r2, [pc, #40]	; (8007bc4 <R3_2_SetAOReferenceVoltage+0x90>)
 8007b9a:	681b      	ldr	r3, [r3, #0]
 8007b9c:	fba2 2303 	umull	r2, r3, r2, r3
 8007ba0:	0cdb      	lsrs	r3, r3, #19
 8007ba2:	eb03 0343 	add.w	r3, r3, r3, lsl #1
 8007ba6:	9301      	str	r3, [sp, #4]
 8007ba8:	9b01      	ldr	r3, [sp, #4]
 8007baa:	2b00      	cmp	r3, #0
 8007bac:	d0f1      	beq.n	8007b92 <R3_2_SetAOReferenceVoltage+0x5e>
 8007bae:	9b01      	ldr	r3, [sp, #4]
 8007bb0:	3b01      	subs	r3, #1
 8007bb2:	9301      	str	r3, [sp, #4]
 8007bb4:	9b01      	ldr	r3, [sp, #4]
 8007bb6:	2b00      	cmp	r3, #0
 8007bb8:	d1f9      	bne.n	8007bae <R3_2_SetAOReferenceVoltage+0x7a>
 8007bba:	b002      	add	sp, #8
 8007bbc:	bc30      	pop	{r4, r5}
 8007bbe:	4770      	bx	lr
 8007bc0:	20000638 	.word	0x20000638
 8007bc4:	431bde83 	.word	0x431bde83

08007bc8 <R3_2_Init>:
 8007bc8:	e92d 4ff0 	stmdb	sp!, {r4, r5, r6, r7, r8, r9, sl, fp, lr}
 8007bcc:	4607      	mov	r7, r0
 8007bce:	b087      	sub	sp, #28
 8007bd0:	f8d7 3088 	ldr.w	r3, [r7, #136]	; 0x88
 8007bd4:	f8df e28c 	ldr.w	lr, [pc, #652]	; 8007e64 <R3_2_Init+0x29c>
 8007bd8:	681d      	ldr	r5, [r3, #0]
 8007bda:	6ad9      	ldr	r1, [r3, #44]	; 0x2c
 8007bdc:	686a      	ldr	r2, [r5, #4]
 8007bde:	9100      	str	r1, [sp, #0]
 8007be0:	6b19      	ldr	r1, [r3, #48]	; 0x30
 8007be2:	9101      	str	r1, [sp, #4]
 8007be4:	2004      	movs	r0, #4
 8007be6:	6b59      	ldr	r1, [r3, #52]	; 0x34
 8007be8:	f8d3 c00c 	ldr.w	ip, [r3, #12]
 8007bec:	9102      	str	r1, [sp, #8]
 8007bee:	f022 0204 	bic.w	r2, r2, #4
 8007bf2:	e9d3 6401 	ldrd	r6, r4, [r3, #4]
 8007bf6:	6b99      	ldr	r1, [r3, #56]	; 0x38
 8007bf8:	9103      	str	r1, [sp, #12]
 8007bfa:	e9d3 ba04 	ldrd	fp, sl, [r3, #16]
 8007bfe:	e9d3 9806 	ldrd	r9, r8, [r3, #24]
 8007c02:	606a      	str	r2, [r5, #4]
 8007c04:	6028      	str	r0, [r5, #0]
 8007c06:	686a      	ldr	r2, [r5, #4]
 8007c08:	2120      	movs	r1, #32
 8007c0a:	f022 0220 	bic.w	r2, r2, #32
 8007c0e:	606a      	str	r2, [r5, #4]
 8007c10:	6029      	str	r1, [r5, #0]
 8007c12:	6872      	ldr	r2, [r6, #4]
 8007c14:	f022 0204 	bic.w	r2, r2, #4
 8007c18:	6072      	str	r2, [r6, #4]
 8007c1a:	6030      	str	r0, [r6, #0]
 8007c1c:	6872      	ldr	r2, [r6, #4]
 8007c1e:	f022 0220 	bic.w	r2, r2, #32
 8007c22:	6072      	str	r2, [r6, #4]
 8007c24:	6031      	str	r1, [r6, #0]
 8007c26:	498e      	ldr	r1, [pc, #568]	; (8007e60 <R3_2_Init+0x298>)
 8007c28:	690a      	ldr	r2, [r1, #16]
 8007c2a:	4574      	cmp	r4, lr
 8007c2c:	bf0c      	ite	eq
 8007c2e:	f442 6200 	orreq.w	r2, r2, #2048	; 0x800
 8007c32:	f442 5200 	orrne.w	r2, r2, #8192	; 0x2000
 8007c36:	610a      	str	r2, [r1, #16]
 8007c38:	f1bc 0f00 	cmp.w	ip, #0
 8007c3c:	d014      	beq.n	8007c68 <R3_2_Init+0xa0>
 8007c3e:	f8dc 2000 	ldr.w	r2, [ip]
 8007c42:	b11a      	cbz	r2, 8007c4c <R3_2_Init+0x84>
 8007c44:	6811      	ldr	r1, [r2, #0]
 8007c46:	f041 0101 	orr.w	r1, r1, #1
 8007c4a:	6011      	str	r1, [r2, #0]
 8007c4c:	f8dc 2004 	ldr.w	r2, [ip, #4]
 8007c50:	b11a      	cbz	r2, 8007c5a <R3_2_Init+0x92>
 8007c52:	6811      	ldr	r1, [r2, #0]
 8007c54:	f041 0101 	orr.w	r1, r1, #1
 8007c58:	6011      	str	r1, [r2, #0]
 8007c5a:	f8dc 2008 	ldr.w	r2, [ip, #8]
 8007c5e:	b11a      	cbz	r2, 8007c68 <R3_2_Init+0xa0>
 8007c60:	6811      	ldr	r1, [r2, #0]
 8007c62:	f041 0101 	orr.w	r1, r1, #1
 8007c66:	6011      	str	r1, [r2, #0]
 8007c68:	f1bb 0f00 	cmp.w	fp, #0
 8007c6c:	d017      	beq.n	8007c9e <R3_2_Init+0xd6>
 8007c6e:	f893 20c3 	ldrb.w	r2, [r3, #195]	; 0xc3
 8007c72:	2a01      	cmp	r2, #1
 8007c74:	d007      	beq.n	8007c86 <R3_2_Init+0xbe>
 8007c76:	9a00      	ldr	r2, [sp, #0]
 8007c78:	b12a      	cbz	r2, 8007c86 <R3_2_Init+0xbe>
 8007c7a:	4611      	mov	r1, r2
 8007c7c:	6bd8      	ldr	r0, [r3, #60]	; 0x3c
 8007c7e:	f8b3 20bc 	ldrh.w	r2, [r3, #188]	; 0xbc
 8007c82:	f7ff ff57 	bl	8007b34 <R3_2_SetAOReferenceVoltage>
 8007c86:	f8db 3000 	ldr.w	r3, [fp]
 8007c8a:	f043 0301 	orr.w	r3, r3, #1
 8007c8e:	f8cb 3000 	str.w	r3, [fp]
 8007c92:	f8db 3000 	ldr.w	r3, [fp]
 8007c96:	f043 4300 	orr.w	r3, r3, #2147483648	; 0x80000000
 8007c9a:	f8cb 3000 	str.w	r3, [fp]
 8007c9e:	f1ba 0f00 	cmp.w	sl, #0
 8007ca2:	d019      	beq.n	8007cd8 <R3_2_Init+0x110>
 8007ca4:	f8d7 3088 	ldr.w	r3, [r7, #136]	; 0x88
 8007ca8:	f893 20c4 	ldrb.w	r2, [r3, #196]	; 0xc4
 8007cac:	2a01      	cmp	r2, #1
 8007cae:	d007      	beq.n	8007cc0 <R3_2_Init+0xf8>
 8007cb0:	9a01      	ldr	r2, [sp, #4]
 8007cb2:	b12a      	cbz	r2, 8007cc0 <R3_2_Init+0xf8>
 8007cb4:	4611      	mov	r1, r2
 8007cb6:	6c18      	ldr	r0, [r3, #64]	; 0x40
 8007cb8:	f8b3 20bc 	ldrh.w	r2, [r3, #188]	; 0xbc
 8007cbc:	f7ff ff3a 	bl	8007b34 <R3_2_SetAOReferenceVoltage>
 8007cc0:	f8da 3000 	ldr.w	r3, [sl]
 8007cc4:	f043 0301 	orr.w	r3, r3, #1
 8007cc8:	f8ca 3000 	str.w	r3, [sl]
 8007ccc:	f8da 3000 	ldr.w	r3, [sl]
 8007cd0:	f043 4300 	orr.w	r3, r3, #2147483648	; 0x80000000
 8007cd4:	f8ca 3000 	str.w	r3, [sl]
 8007cd8:	f1b9 0f00 	cmp.w	r9, #0
 8007cdc:	d019      	beq.n	8007d12 <R3_2_Init+0x14a>
 8007cde:	f8d7 3088 	ldr.w	r3, [r7, #136]	; 0x88
 8007ce2:	f893 20c5 	ldrb.w	r2, [r3, #197]	; 0xc5
 8007ce6:	2a01      	cmp	r2, #1
 8007ce8:	d007      	beq.n	8007cfa <R3_2_Init+0x132>
 8007cea:	9a02      	ldr	r2, [sp, #8]
 8007cec:	b12a      	cbz	r2, 8007cfa <R3_2_Init+0x132>
 8007cee:	4611      	mov	r1, r2
 8007cf0:	6c58      	ldr	r0, [r3, #68]	; 0x44
 8007cf2:	f8b3 20bc 	ldrh.w	r2, [r3, #188]	; 0xbc
 8007cf6:	f7ff ff1d 	bl	8007b34 <R3_2_SetAOReferenceVoltage>
 8007cfa:	f8d9 3000 	ldr.w	r3, [r9]
 8007cfe:	f043 0301 	orr.w	r3, r3, #1
 8007d02:	f8c9 3000 	str.w	r3, [r9]
 8007d06:	f8d9 3000 	ldr.w	r3, [r9]
 8007d0a:	f043 4300 	orr.w	r3, r3, #2147483648	; 0x80000000
 8007d0e:	f8c9 3000 	str.w	r3, [r9]
 8007d12:	f1b8 0f00 	cmp.w	r8, #0
 8007d16:	d019      	beq.n	8007d4c <R3_2_Init+0x184>
 8007d18:	f8d7 3088 	ldr.w	r3, [r7, #136]	; 0x88
 8007d1c:	f893 20c6 	ldrb.w	r2, [r3, #198]	; 0xc6
 8007d20:	2a01      	cmp	r2, #1
 8007d22:	d007      	beq.n	8007d34 <R3_2_Init+0x16c>
 8007d24:	9a03      	ldr	r2, [sp, #12]
 8007d26:	b12a      	cbz	r2, 8007d34 <R3_2_Init+0x16c>
 8007d28:	4611      	mov	r1, r2
 8007d2a:	6c98      	ldr	r0, [r3, #72]	; 0x48
 8007d2c:	f8b3 20be 	ldrh.w	r2, [r3, #190]	; 0xbe
 8007d30:	f7ff ff00 	bl	8007b34 <R3_2_SetAOReferenceVoltage>
 8007d34:	f8d8 3000 	ldr.w	r3, [r8]
 8007d38:	f043 0301 	orr.w	r3, r3, #1
 8007d3c:	f8c8 3000 	str.w	r3, [r8]
 8007d40:	f8d8 3000 	ldr.w	r3, [r8]
 8007d44:	f043 4300 	orr.w	r3, r3, #2147483648	; 0x80000000
 8007d48:	f8c8 3000 	str.w	r3, [r8]
 8007d4c:	68ab      	ldr	r3, [r5, #8]
 8007d4e:	07d8      	lsls	r0, r3, #31
 8007d50:	d56d      	bpl.n	8007e2e <R3_2_Init+0x266>
 8007d52:	68b3      	ldr	r3, [r6, #8]
 8007d54:	07d9      	lsls	r1, r3, #31
 8007d56:	d576      	bpl.n	8007e46 <R3_2_Init+0x27e>
 8007d58:	f44f 737a 	mov.w	r3, #1000	; 0x3e8
 8007d5c:	9305      	str	r3, [sp, #20]
 8007d5e:	6823      	ldr	r3, [r4, #0]
 8007d60:	f8d7 2088 	ldr.w	r2, [r7, #136]	; 0x88
 8007d64:	f023 0301 	bic.w	r3, r3, #1
 8007d68:	6023      	str	r3, [r4, #0]
 8007d6a:	6863      	ldr	r3, [r4, #4]
 8007d6c:	f023 7300 	bic.w	r3, r3, #33554432	; 0x2000000
 8007d70:	f023 0370 	bic.w	r3, r3, #112	; 0x70
 8007d74:	6063      	str	r3, [r4, #4]
 8007d76:	69a3      	ldr	r3, [r4, #24]
 8007d78:	f043 0308 	orr.w	r3, r3, #8
 8007d7c:	61a3      	str	r3, [r4, #24]
 8007d7e:	69a3      	ldr	r3, [r4, #24]
 8007d80:	f443 6300 	orr.w	r3, r3, #2048	; 0x800
 8007d84:	61a3      	str	r3, [r4, #24]
 8007d86:	69e3      	ldr	r3, [r4, #28]
 8007d88:	f043 0308 	orr.w	r3, r3, #8
 8007d8c:	61e3      	str	r3, [r4, #28]
 8007d8e:	69e3      	ldr	r3, [r4, #28]
 8007d90:	f443 6300 	orr.w	r3, r3, #2048	; 0x800
 8007d94:	61e3      	str	r3, [r4, #28]
 8007d96:	6963      	ldr	r3, [r4, #20]
 8007d98:	f043 0301 	orr.w	r3, r3, #1
 8007d9c:	6163      	str	r3, [r4, #20]
 8007d9e:	f892 30c7 	ldrb.w	r3, [r2, #199]	; 0xc7
 8007da2:	2b02      	cmp	r3, #2
 8007da4:	d029      	beq.n	8007dfa <R3_2_Init+0x232>
 8007da6:	f897 3066 	ldrb.w	r3, [r7, #102]	; 0x66
 8007daa:	b92b      	cbnz	r3, 8007db8 <R3_2_Init+0x1f0>
 8007dac:	f892 30c1 	ldrb.w	r3, [r2, #193]	; 0xc1
 8007db0:	2b01      	cmp	r3, #1
 8007db2:	d030      	beq.n	8007e16 <R3_2_Init+0x24e>
 8007db4:	2b03      	cmp	r3, #3
 8007db6:	d04a      	beq.n	8007e4e <R3_2_Init+0x286>
 8007db8:	f06f 0380 	mvn.w	r3, #128	; 0x80
 8007dbc:	6123      	str	r3, [r4, #16]
 8007dbe:	f892 30c2 	ldrb.w	r3, [r2, #194]	; 0xc2
 8007dc2:	b16b      	cbz	r3, 8007de0 <R3_2_Init+0x218>
 8007dc4:	6923      	ldr	r3, [r4, #16]
 8007dc6:	05da      	lsls	r2, r3, #23
 8007dc8:	d50a      	bpl.n	8007de0 <R3_2_Init+0x218>
 8007dca:	f46f 7280 	mvn.w	r2, #256	; 0x100
 8007dce:	9b05      	ldr	r3, [sp, #20]
 8007dd0:	b133      	cbz	r3, 8007de0 <R3_2_Init+0x218>
 8007dd2:	6122      	str	r2, [r4, #16]
 8007dd4:	9b05      	ldr	r3, [sp, #20]
 8007dd6:	3b01      	subs	r3, #1
 8007dd8:	9305      	str	r3, [sp, #20]
 8007dda:	6923      	ldr	r3, [r4, #16]
 8007ddc:	05db      	lsls	r3, r3, #23
 8007dde:	d4f6      	bmi.n	8007dce <R3_2_Init+0x206>
 8007de0:	68e3      	ldr	r3, [r4, #12]
 8007de2:	f043 0380 	orr.w	r3, r3, #128	; 0x80
 8007de6:	60e3      	str	r3, [r4, #12]
 8007de8:	6a23      	ldr	r3, [r4, #32]
 8007dea:	f443 63aa 	orr.w	r3, r3, #1360	; 0x550
 8007dee:	f043 0305 	orr.w	r3, r3, #5
 8007df2:	6223      	str	r3, [r4, #32]
 8007df4:	b007      	add	sp, #28
 8007df6:	e8bd 8ff0 	ldmia.w	sp!, {r4, r5, r6, r7, r8, r9, sl, fp, pc}
 8007dfa:	f892 30c8 	ldrb.w	r3, [r2, #200]	; 0xc8
 8007dfe:	2b01      	cmp	r3, #1
 8007e00:	d109      	bne.n	8007e16 <R3_2_Init+0x24e>
 8007e02:	f892 10c1 	ldrb.w	r1, [r2, #193]	; 0xc1
 8007e06:	2903      	cmp	r1, #3
 8007e08:	d105      	bne.n	8007e16 <R3_2_Init+0x24e>
 8007e0a:	6323      	str	r3, [r4, #48]	; 0x30
 8007e0c:	6963      	ldr	r3, [r4, #20]
 8007e0e:	f043 0301 	orr.w	r3, r3, #1
 8007e12:	6163      	str	r3, [r4, #20]
 8007e14:	6321      	str	r1, [r4, #48]	; 0x30
 8007e16:	f8b7 307c 	ldrh.w	r3, [r7, #124]	; 0x7c
 8007e1a:	3b01      	subs	r3, #1
 8007e1c:	6263      	str	r3, [r4, #36]	; 0x24
 8007e1e:	f06f 0380 	mvn.w	r3, #128	; 0x80
 8007e22:	6123      	str	r3, [r4, #16]
 8007e24:	f892 30c2 	ldrb.w	r3, [r2, #194]	; 0xc2
 8007e28:	2b00      	cmp	r3, #0
 8007e2a:	d1cb      	bne.n	8007dc4 <R3_2_Init+0x1fc>
 8007e2c:	e7d8      	b.n	8007de0 <R3_2_Init+0x218>
 8007e2e:	4628      	mov	r0, r5
 8007e30:	f7ff fbb8 	bl	80075a4 <R3_2_ADCxInit>
 8007e34:	2340      	movs	r3, #64	; 0x40
 8007e36:	602b      	str	r3, [r5, #0]
 8007e38:	686b      	ldr	r3, [r5, #4]
 8007e3a:	f043 0340 	orr.w	r3, r3, #64	; 0x40
 8007e3e:	606b      	str	r3, [r5, #4]
 8007e40:	68b3      	ldr	r3, [r6, #8]
 8007e42:	07d9      	lsls	r1, r3, #31
 8007e44:	d488      	bmi.n	8007d58 <R3_2_Init+0x190>
 8007e46:	4630      	mov	r0, r6
 8007e48:	f7ff fbac 	bl	80075a4 <R3_2_ADCxInit>
 8007e4c:	e784      	b.n	8007d58 <R3_2_Init+0x190>
 8007e4e:	2101      	movs	r1, #1
 8007e50:	6321      	str	r1, [r4, #48]	; 0x30
 8007e52:	6961      	ldr	r1, [r4, #20]
 8007e54:	f041 0101 	orr.w	r1, r1, #1
 8007e58:	6161      	str	r1, [r4, #20]
 8007e5a:	6323      	str	r3, [r4, #48]	; 0x30
 8007e5c:	e7ac      	b.n	8007db8 <R3_2_Init+0x1f0>
 8007e5e:	bf00      	nop
 8007e60:	e0042000 	.word	0xe0042000
 8007e64:	40012c00 	.word	0x40012c00

08007e68 <R3_2_CurrentReadingPolarization>:
 8007e68:	b5f0      	push	{r4, r5, r6, r7, lr}
 8007e6a:	f8d0 3088 	ldr.w	r3, [r0, #136]	; 0x88
 8007e6e:	6846      	ldr	r6, [r0, #4]
 8007e70:	689d      	ldr	r5, [r3, #8]
 8007e72:	6981      	ldr	r1, [r0, #24]
 8007e74:	b085      	sub	sp, #20
 8007e76:	2200      	movs	r2, #0
 8007e78:	9602      	str	r6, [sp, #8]
 8007e7a:	e9d3 7600 	ldrd	r7, r6, [r3]
 8007e7e:	9103      	str	r1, [sp, #12]
 8007e80:	f880 2080 	strb.w	r2, [r0, #128]	; 0x80
 8007e84:	6a2b      	ldr	r3, [r5, #32]
 8007e86:	6702      	str	r2, [r0, #112]	; 0x70
 8007e88:	f423 63aa 	bic.w	r3, r3, #1360	; 0x550
 8007e8c:	f023 0305 	bic.w	r3, r3, #5
 8007e90:	e9c0 221d 	strd	r2, r2, [r0, #116]	; 0x74
 8007e94:	622b      	str	r3, [r5, #32]
 8007e96:	4a3f      	ldr	r2, [pc, #252]	; (8007f94 <R3_2_CurrentReadingPolarization+0x12c>)
 8007e98:	4b3f      	ldr	r3, [pc, #252]	; (8007f98 <R3_2_CurrentReadingPolarization+0x130>)
 8007e9a:	6042      	str	r2, [r0, #4]
 8007e9c:	6183      	str	r3, [r0, #24]
 8007e9e:	2280      	movs	r2, #128	; 0x80
 8007ea0:	2304      	movs	r3, #4
 8007ea2:	f8a0 207e 	strh.w	r2, [r0, #126]	; 0x7e
 8007ea6:	f880 3081 	strb.w	r3, [r0, #129]	; 0x81
 8007eaa:	f880 3068 	strb.w	r3, [r0, #104]	; 0x68
 8007eae:	4604      	mov	r4, r0
 8007eb0:	f7ff fd18 	bl	80078e4 <R3_2_SwitchOnPWM>
 8007eb4:	4a39      	ldr	r2, [pc, #228]	; (8007f9c <R3_2_CurrentReadingPolarization+0x134>)
 8007eb6:	686b      	ldr	r3, [r5, #4]
 8007eb8:	4013      	ands	r3, r2
 8007eba:	2b70      	cmp	r3, #112	; 0x70
 8007ebc:	d1fb      	bne.n	8007eb6 <R3_2_CurrentReadingPolarization+0x4e>
 8007ebe:	68ba      	ldr	r2, [r7, #8]
 8007ec0:	4937      	ldr	r1, [pc, #220]	; (8007fa0 <R3_2_CurrentReadingPolarization+0x138>)
 8007ec2:	f8d4 0088 	ldr.w	r0, [r4, #136]	; 0x88
 8007ec6:	400a      	ands	r2, r1
 8007ec8:	f042 0208 	orr.w	r2, r2, #8
 8007ecc:	60ba      	str	r2, [r7, #8]
 8007ece:	68b3      	ldr	r3, [r6, #8]
 8007ed0:	400b      	ands	r3, r1
 8007ed2:	f043 0308 	orr.w	r3, r3, #8
 8007ed6:	60b3      	str	r3, [r6, #8]
 8007ed8:	f104 0140 	add.w	r1, r4, #64	; 0x40
 8007edc:	f104 0380 	add.w	r3, r4, #128	; 0x80
 8007ee0:	f890 20c1 	ldrb.w	r2, [r0, #193]	; 0xc1
 8007ee4:	4628      	mov	r0, r5
 8007ee6:	e9cd 3100 	strd	r3, r1, [sp]
 8007eea:	f7ff fb3f 	bl	800756c <waitForPolarizationEnd>
 8007eee:	4620      	mov	r0, r4
 8007ef0:	f7ff fd44 	bl	800797c <R3_2_SwitchOffPWM>
 8007ef4:	2600      	movs	r6, #0
 8007ef6:	4a2b      	ldr	r2, [pc, #172]	; (8007fa4 <R3_2_CurrentReadingPolarization+0x13c>)
 8007ef8:	6062      	str	r2, [r4, #4]
 8007efa:	4620      	mov	r0, r4
 8007efc:	f884 6080 	strb.w	r6, [r4, #128]	; 0x80
 8007f00:	f884 6081 	strb.w	r6, [r4, #129]	; 0x81
 8007f04:	f884 6068 	strb.w	r6, [r4, #104]	; 0x68
 8007f08:	f7ff fcec 	bl	80078e4 <R3_2_SwitchOnPWM>
 8007f0c:	f8d4 2088 	ldr.w	r2, [r4, #136]	; 0x88
 8007f10:	e9dd 3100 	ldrd	r3, r1, [sp]
 8007f14:	f892 20c1 	ldrb.w	r2, [r2, #193]	; 0xc1
 8007f18:	4628      	mov	r0, r5
 8007f1a:	f7ff fb27 	bl	800756c <waitForPolarizationEnd>
 8007f1e:	4620      	mov	r0, r4
 8007f20:	f7ff fd2c 	bl	800797c <R3_2_SwitchOffPWM>
 8007f24:	e9d4 121c 	ldrd	r1, r2, [r4, #112]	; 0x70
 8007f28:	6fa3      	ldr	r3, [r4, #120]	; 0x78
 8007f2a:	9f02      	ldr	r7, [sp, #8]
 8007f2c:	9803      	ldr	r0, [sp, #12]
 8007f2e:	6067      	str	r7, [r4, #4]
 8007f30:	0909      	lsrs	r1, r1, #4
 8007f32:	0912      	lsrs	r2, r2, #4
 8007f34:	e9c4 121c 	strd	r1, r2, [r4, #112]	; 0x70
 8007f38:	091b      	lsrs	r3, r3, #4
 8007f3a:	67a3      	str	r3, [r4, #120]	; 0x78
 8007f3c:	69ab      	ldr	r3, [r5, #24]
 8007f3e:	61a0      	str	r0, [r4, #24]
 8007f40:	f023 0308 	bic.w	r3, r3, #8
 8007f44:	61ab      	str	r3, [r5, #24]
 8007f46:	69aa      	ldr	r2, [r5, #24]
 8007f48:	f8b4 307c 	ldrh.w	r3, [r4, #124]	; 0x7c
 8007f4c:	f422 6200 	bic.w	r2, r2, #2048	; 0x800
 8007f50:	61aa      	str	r2, [r5, #24]
 8007f52:	69ea      	ldr	r2, [r5, #28]
 8007f54:	f022 0208 	bic.w	r2, r2, #8
 8007f58:	61ea      	str	r2, [r5, #28]
 8007f5a:	636b      	str	r3, [r5, #52]	; 0x34
 8007f5c:	63ab      	str	r3, [r5, #56]	; 0x38
 8007f5e:	63eb      	str	r3, [r5, #60]	; 0x3c
 8007f60:	69ab      	ldr	r3, [r5, #24]
 8007f62:	f043 0308 	orr.w	r3, r3, #8
 8007f66:	61ab      	str	r3, [r5, #24]
 8007f68:	69ab      	ldr	r3, [r5, #24]
 8007f6a:	f443 6300 	orr.w	r3, r3, #2048	; 0x800
 8007f6e:	61ab      	str	r3, [r5, #24]
 8007f70:	69eb      	ldr	r3, [r5, #28]
 8007f72:	f043 0308 	orr.w	r3, r3, #8
 8007f76:	61eb      	str	r3, [r5, #28]
 8007f78:	6a2b      	ldr	r3, [r5, #32]
 8007f7a:	f443 63aa 	orr.w	r3, r3, #1360	; 0x550
 8007f7e:	f043 0305 	orr.w	r3, r3, #5
 8007f82:	2204      	movs	r2, #4
 8007f84:	622b      	str	r3, [r5, #32]
 8007f86:	f884 6084 	strb.w	r6, [r4, #132]	; 0x84
 8007f8a:	f884 2068 	strb.w	r2, [r4, #104]	; 0x68
 8007f8e:	b005      	add	sp, #20
 8007f90:	bdf0      	pop	{r4, r5, r6, r7, pc}
 8007f92:	bf00      	nop
 8007f94:	08007805 	.word	0x08007805
 8007f98:	080077c9 	.word	0x080077c9
 8007f9c:	02000070 	.word	0x02000070
 8007fa0:	7fffffc0 	.word	0x7fffffc0
 8007fa4:	08007851 	.word	0x08007851

08007fa8 <R3_2_SetADCSampPointSectX>:
 8007fa8:	b470      	push	{r4, r5, r6}
 8007faa:	f8b0 107c 	ldrh.w	r1, [r0, #124]	; 0x7c
 8007fae:	f8b0 3042 	ldrh.w	r3, [r0, #66]	; 0x42
 8007fb2:	f8d0 4088 	ldr.w	r4, [r0, #136]	; 0x88
 8007fb6:	1aca      	subs	r2, r1, r3
 8007fb8:	f8b4 60b2 	ldrh.w	r6, [r4, #178]	; 0xb2
 8007fbc:	b292      	uxth	r2, r2
 8007fbe:	42b2      	cmp	r2, r6
 8007fc0:	d914      	bls.n	8007fec <R3_2_SetADCSampPointSectX+0x44>
 8007fc2:	1e4b      	subs	r3, r1, #1
 8007fc4:	2204      	movs	r2, #4
 8007fc6:	b29b      	uxth	r3, r3
 8007fc8:	f880 2068 	strb.w	r2, [r0, #104]	; 0x68
 8007fcc:	68a2      	ldr	r2, [r4, #8]
 8007fce:	8f45      	ldrh	r5, [r0, #58]	; 0x3a
 8007fd0:	8f84      	ldrh	r4, [r0, #60]	; 0x3c
 8007fd2:	8fc1      	ldrh	r1, [r0, #62]	; 0x3e
 8007fd4:	6355      	str	r5, [r2, #52]	; 0x34
 8007fd6:	6394      	str	r4, [r2, #56]	; 0x38
 8007fd8:	63d1      	str	r1, [r2, #60]	; 0x3c
 8007fda:	6413      	str	r3, [r2, #64]	; 0x40
 8007fdc:	6852      	ldr	r2, [r2, #4]
 8007fde:	4b10      	ldr	r3, [pc, #64]	; (8008020 <R3_2_SetADCSampPointSectX+0x78>)
 8007fe0:	421a      	tst	r2, r3
 8007fe2:	bf14      	ite	ne
 8007fe4:	2001      	movne	r0, #1
 8007fe6:	2000      	moveq	r0, #0
 8007fe8:	bc70      	pop	{r4, r5, r6}
 8007fea:	4770      	bx	lr
 8007fec:	f8b0 5044 	ldrh.w	r5, [r0, #68]	; 0x44
 8007ff0:	1b5d      	subs	r5, r3, r5
 8007ff2:	b2ad      	uxth	r5, r5
 8007ff4:	ebb5 0f42 	cmp.w	r5, r2, lsl #1
 8007ff8:	d904      	bls.n	8008004 <R3_2_SetADCSampPointSectX+0x5c>
 8007ffa:	f8b4 20b6 	ldrh.w	r2, [r4, #182]	; 0xb6
 8007ffe:	1a9b      	subs	r3, r3, r2
 8008000:	b29b      	uxth	r3, r3
 8008002:	e7e3      	b.n	8007fcc <R3_2_SetADCSampPointSectX+0x24>
 8008004:	4433      	add	r3, r6
 8008006:	b29b      	uxth	r3, r3
 8008008:	4299      	cmp	r1, r3
 800800a:	d8df      	bhi.n	8007fcc <R3_2_SetADCSampPointSectX+0x24>
 800800c:	43db      	mvns	r3, r3
 800800e:	eb03 0341 	add.w	r3, r3, r1, lsl #1
 8008012:	f44f 7280 	mov.w	r2, #256	; 0x100
 8008016:	b29b      	uxth	r3, r3
 8008018:	f8a0 207e 	strh.w	r2, [r0, #126]	; 0x7e
 800801c:	e7d6      	b.n	8007fcc <R3_2_SetADCSampPointSectX+0x24>
 800801e:	bf00      	nop
 8008020:	02000070 	.word	0x02000070

08008024 <R3_2_TIMx_UP_IRQHandler>:
 8008024:	f8d0 2088 	ldr.w	r2, [r0, #136]	; 0x88
 8008028:	e92d 41f0 	stmdb	sp!, {r4, r5, r6, r7, r8, lr}
 800802c:	4604      	mov	r4, r0
 800802e:	e9d2 5002 	ldrd	r5, r0, [r2, #8]
 8008032:	e9d2 1800 	ldrd	r1, r8, [r2]
 8008036:	2800      	cmp	r0, #0
 8008038:	d033      	beq.n	80080a2 <R3_2_TIMx_UP_IRQHandler+0x7e>
 800803a:	6ccb      	ldr	r3, [r1, #76]	; 0x4c
 800803c:	2b00      	cmp	r3, #0
 800803e:	d1fc      	bne.n	800803a <R3_2_TIMx_UP_IRQHandler+0x16>
 8008040:	f894 c068 	ldrb.w	ip, [r4, #104]	; 0x68
 8008044:	eb00 038c 	add.w	r3, r0, ip, lsl #2
 8008048:	68df      	ldr	r7, [r3, #12]
 800804a:	b12f      	cbz	r7, 8008058 <R3_2_TIMx_UP_IRQHandler+0x34>
 800804c:	6838      	ldr	r0, [r7, #0]
 800804e:	6bde      	ldr	r6, [r3, #60]	; 0x3c
 8008050:	f420 7086 	bic.w	r0, r0, #268	; 0x10c
 8008054:	4330      	orrs	r0, r6
 8008056:	6038      	str	r0, [r7, #0]
 8008058:	6a5f      	ldr	r7, [r3, #36]	; 0x24
 800805a:	b13f      	cbz	r7, 800806c <R3_2_TIMx_UP_IRQHandler+0x48>
 800805c:	6838      	ldr	r0, [r7, #0]
 800805e:	f8d3 e054 	ldr.w	lr, [r3, #84]	; 0x54
 8008062:	f420 7386 	bic.w	r3, r0, #268	; 0x10c
 8008066:	ea43 030e 	orr.w	r3, r3, lr
 800806a:	603b      	str	r3, [r7, #0]
 800806c:	eb02 028c 	add.w	r2, r2, ip, lsl #2
 8008070:	f8b4 307e 	ldrh.w	r3, [r4, #126]	; 0x7e
 8008074:	6fd0      	ldr	r0, [r2, #124]	; 0x7c
 8008076:	f8d2 7094 	ldr.w	r7, [r2, #148]	; 0x94
 800807a:	4318      	orrs	r0, r3
 800807c:	433b      	orrs	r3, r7
 800807e:	64c8      	str	r0, [r1, #76]	; 0x4c
 8008080:	f8c8 304c 	str.w	r3, [r8, #76]	; 0x4c
 8008084:	686b      	ldr	r3, [r5, #4]
 8008086:	f023 7300 	bic.w	r3, r3, #33554432	; 0x2000000
 800808a:	f023 0370 	bic.w	r3, r3, #112	; 0x70
 800808e:	f043 0370 	orr.w	r3, r3, #112	; 0x70
 8008092:	2280      	movs	r2, #128	; 0x80
 8008094:	606b      	str	r3, [r5, #4]
 8008096:	f104 0066 	add.w	r0, r4, #102	; 0x66
 800809a:	f8a4 207e 	strh.w	r2, [r4, #126]	; 0x7e
 800809e:	e8bd 81f0 	ldmia.w	sp!, {r4, r5, r6, r7, r8, pc}
 80080a2:	f894 c068 	ldrb.w	ip, [r4, #104]	; 0x68
 80080a6:	e7e1      	b.n	800806c <R3_2_TIMx_UP_IRQHandler+0x48>

080080a8 <R3_2_BRK2_IRQHandler>:
 80080a8:	f890 3084 	ldrb.w	r3, [r0, #132]	; 0x84
 80080ac:	b92b      	cbnz	r3, 80080ba <R3_2_BRK2_IRQHandler+0x12>
 80080ae:	f8d0 3088 	ldr.w	r3, [r0, #136]	; 0x88
 80080b2:	f893 20c0 	ldrb.w	r2, [r3, #192]	; 0xc0
 80080b6:	2a02      	cmp	r2, #2
 80080b8:	d004      	beq.n	80080c4 <R3_2_BRK2_IRQHandler+0x1c>
 80080ba:	2301      	movs	r3, #1
 80080bc:	f880 3082 	strb.w	r3, [r0, #130]	; 0x82
 80080c0:	3066      	adds	r0, #102	; 0x66
 80080c2:	4770      	bx	lr
 80080c4:	b430      	push	{r4, r5}
 80080c6:	e9d3 4108 	ldrd	r4, r1, [r3, #32]
 80080ca:	f8b3 50ac 	ldrh.w	r5, [r3, #172]	; 0xac
 80080ce:	6a9a      	ldr	r2, [r3, #40]	; 0x28
 80080d0:	62a5      	str	r5, [r4, #40]	; 0x28
 80080d2:	f8b3 40ae 	ldrh.w	r4, [r3, #174]	; 0xae
 80080d6:	f8b3 30b0 	ldrh.w	r3, [r3, #176]	; 0xb0
 80080da:	628c      	str	r4, [r1, #40]	; 0x28
 80080dc:	6293      	str	r3, [r2, #40]	; 0x28
 80080de:	2301      	movs	r3, #1
 80080e0:	f880 3082 	strb.w	r3, [r0, #130]	; 0x82
 80080e4:	bc30      	pop	{r4, r5}
 80080e6:	3066      	adds	r0, #102	; 0x66
 80080e8:	4770      	bx	lr
 80080ea:	bf00      	nop

080080ec <R3_2_BRK_IRQHandler>:
 80080ec:	f8d0 2088 	ldr.w	r2, [r0, #136]	; 0x88
 80080f0:	4603      	mov	r3, r0
 80080f2:	6890      	ldr	r0, [r2, #8]
 80080f4:	6c42      	ldr	r2, [r0, #68]	; 0x44
 80080f6:	2101      	movs	r1, #1
 80080f8:	f442 6280 	orr.w	r2, r2, #1024	; 0x400
 80080fc:	6442      	str	r2, [r0, #68]	; 0x44
 80080fe:	f103 0066 	add.w	r0, r3, #102	; 0x66
 8008102:	f883 1083 	strb.w	r1, [r3, #131]	; 0x83
 8008106:	f883 1084 	strb.w	r1, [r3, #132]	; 0x84
 800810a:	4770      	bx	lr

0800810c <R3_2_IsOverCurrentOccurred>:
 800810c:	4603      	mov	r3, r0
 800810e:	f890 0083 	ldrb.w	r0, [r0, #131]	; 0x83
 8008112:	b160      	cbz	r0, 800812e <R3_2_IsOverCurrentOccurred+0x22>
 8008114:	2200      	movs	r2, #0
 8008116:	f883 2083 	strb.w	r2, [r3, #131]	; 0x83
 800811a:	2142      	movs	r1, #66	; 0x42
 800811c:	2002      	movs	r0, #2
 800811e:	f893 2082 	ldrb.w	r2, [r3, #130]	; 0x82
 8008122:	b11a      	cbz	r2, 800812c <R3_2_IsOverCurrentOccurred+0x20>
 8008124:	2200      	movs	r2, #0
 8008126:	4608      	mov	r0, r1
 8008128:	f883 2082 	strb.w	r2, [r3, #130]	; 0x82
 800812c:	4770      	bx	lr
 800812e:	2140      	movs	r1, #64	; 0x40
 8008130:	e7f5      	b.n	800811e <R3_2_IsOverCurrentOccurred+0x12>
 8008132:	bf00      	nop

08008134 <R3_2_RLDetectionModeEnable>:
 8008134:	f890 106b 	ldrb.w	r1, [r0, #107]	; 0x6b
 8008138:	b410      	push	{r4}
 800813a:	2900      	cmp	r1, #0
 800813c:	d13d      	bne.n	80081ba <R3_2_RLDetectionModeEnable+0x86>
 800813e:	f8d0 4088 	ldr.w	r4, [r0, #136]	; 0x88
 8008142:	68a3      	ldr	r3, [r4, #8]
 8008144:	699a      	ldr	r2, [r3, #24]
 8008146:	f422 3280 	bic.w	r2, r2, #65536	; 0x10000
 800814a:	f022 0273 	bic.w	r2, r2, #115	; 0x73
 800814e:	f042 0260 	orr.w	r2, r2, #96	; 0x60
 8008152:	619a      	str	r2, [r3, #24]
 8008154:	6a1a      	ldr	r2, [r3, #32]
 8008156:	f042 0201 	orr.w	r2, r2, #1
 800815a:	621a      	str	r2, [r3, #32]
 800815c:	6a1a      	ldr	r2, [r3, #32]
 800815e:	f022 0204 	bic.w	r2, r2, #4
 8008162:	621a      	str	r2, [r3, #32]
 8008164:	6359      	str	r1, [r3, #52]	; 0x34
 8008166:	f894 20c0 	ldrb.w	r2, [r4, #192]	; 0xc0
 800816a:	2a01      	cmp	r2, #1
 800816c:	f103 0118 	add.w	r1, r3, #24
 8008170:	d031      	beq.n	80081d6 <R3_2_RLDetectionModeEnable+0xa2>
 8008172:	2a02      	cmp	r2, #2
 8008174:	d10f      	bne.n	8008196 <R3_2_RLDetectionModeEnable+0x62>
 8008176:	699a      	ldr	r2, [r3, #24]
 8008178:	f022 7280 	bic.w	r2, r2, #16777216	; 0x1000000
 800817c:	f422 42e6 	bic.w	r2, r2, #29440	; 0x7300
 8008180:	f442 5200 	orr.w	r2, r2, #8192	; 0x2000
 8008184:	619a      	str	r2, [r3, #24]
 8008186:	6a1a      	ldr	r2, [r3, #32]
 8008188:	f042 0210 	orr.w	r2, r2, #16
 800818c:	621a      	str	r2, [r3, #32]
 800818e:	6a1a      	ldr	r2, [r3, #32]
 8008190:	f022 0240 	bic.w	r2, r2, #64	; 0x40
 8008194:	621a      	str	r2, [r3, #32]
 8008196:	684a      	ldr	r2, [r1, #4]
 8008198:	f422 3280 	bic.w	r2, r2, #65536	; 0x10000
 800819c:	f022 0273 	bic.w	r2, r2, #115	; 0x73
 80081a0:	f042 0270 	orr.w	r2, r2, #112	; 0x70
 80081a4:	604a      	str	r2, [r1, #4]
 80081a6:	6a1a      	ldr	r2, [r3, #32]
 80081a8:	6f41      	ldr	r1, [r0, #116]	; 0x74
 80081aa:	f422 7280 	bic.w	r2, r2, #256	; 0x100
 80081ae:	621a      	str	r2, [r3, #32]
 80081b0:	6a1a      	ldr	r2, [r3, #32]
 80081b2:	f422 6280 	bic.w	r2, r2, #1024	; 0x400
 80081b6:	621a      	str	r2, [r3, #32]
 80081b8:	6701      	str	r1, [r0, #112]	; 0x70
 80081ba:	4b0f      	ldr	r3, [pc, #60]	; (80081f8 <R3_2_RLDetectionModeEnable+0xc4>)
 80081bc:	490f      	ldr	r1, [pc, #60]	; (80081fc <R3_2_RLDetectionModeEnable+0xc8>)
 80081be:	4a10      	ldr	r2, [pc, #64]	; (8008200 <R3_2_RLDetectionModeEnable+0xcc>)
 80081c0:	4c10      	ldr	r4, [pc, #64]	; (8008204 <R3_2_RLDetectionModeEnable+0xd0>)
 80081c2:	6043      	str	r3, [r0, #4]
 80081c4:	2301      	movs	r3, #1
 80081c6:	6144      	str	r4, [r0, #20]
 80081c8:	e9c0 2102 	strd	r2, r1, [r0, #8]
 80081cc:	f85d 4b04 	ldr.w	r4, [sp], #4
 80081d0:	f880 306b 	strb.w	r3, [r0, #107]	; 0x6b
 80081d4:	4770      	bx	lr
 80081d6:	699a      	ldr	r2, [r3, #24]
 80081d8:	f022 7280 	bic.w	r2, r2, #16777216	; 0x1000000
 80081dc:	f422 42e6 	bic.w	r2, r2, #29440	; 0x7300
 80081e0:	f442 5280 	orr.w	r2, r2, #4096	; 0x1000
 80081e4:	619a      	str	r2, [r3, #24]
 80081e6:	6a1a      	ldr	r2, [r3, #32]
 80081e8:	f022 0210 	bic.w	r2, r2, #16
 80081ec:	621a      	str	r2, [r3, #32]
 80081ee:	6a1a      	ldr	r2, [r3, #32]
 80081f0:	f042 0240 	orr.w	r2, r2, #64	; 0x40
 80081f4:	621a      	str	r2, [r3, #32]
 80081f6:	e7ce      	b.n	8008196 <R3_2_RLDetectionModeEnable+0x62>
 80081f8:	080079e1 	.word	0x080079e1
 80081fc:	08007a85 	.word	0x08007a85
 8008200:	0800797d 	.word	0x0800797d
 8008204:	08007a39 	.word	0x08007a39

08008208 <R3_2_RLDetectionModeDisable>:
 8008208:	f890 306b 	ldrb.w	r3, [r0, #107]	; 0x6b
 800820c:	2b00      	cmp	r3, #0
 800820e:	d05a      	beq.n	80082c6 <R3_2_RLDetectionModeDisable+0xbe>
 8008210:	b470      	push	{r4, r5, r6}
 8008212:	f8d0 4088 	ldr.w	r4, [r0, #136]	; 0x88
 8008216:	68a3      	ldr	r3, [r4, #8]
 8008218:	699a      	ldr	r2, [r3, #24]
 800821a:	f422 3280 	bic.w	r2, r2, #65536	; 0x10000
 800821e:	f022 0273 	bic.w	r2, r2, #115	; 0x73
 8008222:	f042 0260 	orr.w	r2, r2, #96	; 0x60
 8008226:	619a      	str	r2, [r3, #24]
 8008228:	6a1a      	ldr	r2, [r3, #32]
 800822a:	f042 0201 	orr.w	r2, r2, #1
 800822e:	621a      	str	r2, [r3, #32]
 8008230:	f894 20c0 	ldrb.w	r2, [r4, #192]	; 0xc0
 8008234:	2a01      	cmp	r2, #1
 8008236:	f103 0518 	add.w	r5, r3, #24
 800823a:	d045      	beq.n	80082c8 <R3_2_RLDetectionModeDisable+0xc0>
 800823c:	2a02      	cmp	r2, #2
 800823e:	d103      	bne.n	8008248 <R3_2_RLDetectionModeDisable+0x40>
 8008240:	6a1a      	ldr	r2, [r3, #32]
 8008242:	f022 0204 	bic.w	r2, r2, #4
 8008246:	621a      	str	r2, [r3, #32]
 8008248:	f8b0 107c 	ldrh.w	r1, [r0, #124]	; 0x7c
 800824c:	0849      	lsrs	r1, r1, #1
 800824e:	6359      	str	r1, [r3, #52]	; 0x34
 8008250:	699a      	ldr	r2, [r3, #24]
 8008252:	f022 7280 	bic.w	r2, r2, #16777216	; 0x1000000
 8008256:	f422 42e6 	bic.w	r2, r2, #29440	; 0x7300
 800825a:	f442 42c0 	orr.w	r2, r2, #24576	; 0x6000
 800825e:	619a      	str	r2, [r3, #24]
 8008260:	6a1a      	ldr	r2, [r3, #32]
 8008262:	f042 0210 	orr.w	r2, r2, #16
 8008266:	621a      	str	r2, [r3, #32]
 8008268:	f894 20c0 	ldrb.w	r2, [r4, #192]	; 0xc0
 800826c:	2a01      	cmp	r2, #1
 800826e:	d035      	beq.n	80082dc <R3_2_RLDetectionModeDisable+0xd4>
 8008270:	2a02      	cmp	r2, #2
 8008272:	d103      	bne.n	800827c <R3_2_RLDetectionModeDisable+0x74>
 8008274:	6a1a      	ldr	r2, [r3, #32]
 8008276:	f022 0240 	bic.w	r2, r2, #64	; 0x40
 800827a:	621a      	str	r2, [r3, #32]
 800827c:	6399      	str	r1, [r3, #56]	; 0x38
 800827e:	686a      	ldr	r2, [r5, #4]
 8008280:	f422 3280 	bic.w	r2, r2, #65536	; 0x10000
 8008284:	f022 0273 	bic.w	r2, r2, #115	; 0x73
 8008288:	f042 0260 	orr.w	r2, r2, #96	; 0x60
 800828c:	606a      	str	r2, [r5, #4]
 800828e:	6a1a      	ldr	r2, [r3, #32]
 8008290:	f442 7280 	orr.w	r2, r2, #256	; 0x100
 8008294:	621a      	str	r2, [r3, #32]
 8008296:	f894 20c0 	ldrb.w	r2, [r4, #192]	; 0xc0
 800829a:	2a01      	cmp	r2, #1
 800829c:	d019      	beq.n	80082d2 <R3_2_RLDetectionModeDisable+0xca>
 800829e:	2a02      	cmp	r2, #2
 80082a0:	d103      	bne.n	80082aa <R3_2_RLDetectionModeDisable+0xa2>
 80082a2:	6a1a      	ldr	r2, [r3, #32]
 80082a4:	f422 6280 	bic.w	r2, r2, #1024	; 0x400
 80082a8:	621a      	str	r2, [r3, #32]
 80082aa:	4c0f      	ldr	r4, [pc, #60]	; (80082e8 <R3_2_RLDetectionModeDisable+0xe0>)
 80082ac:	4a0f      	ldr	r2, [pc, #60]	; (80082ec <R3_2_RLDetectionModeDisable+0xe4>)
 80082ae:	63d9      	str	r1, [r3, #60]	; 0x3c
 80082b0:	4e0f      	ldr	r6, [pc, #60]	; (80082f0 <R3_2_RLDetectionModeDisable+0xe8>)
 80082b2:	4d10      	ldr	r5, [pc, #64]	; (80082f4 <R3_2_RLDetectionModeDisable+0xec>)
 80082b4:	6046      	str	r6, [r0, #4]
 80082b6:	2300      	movs	r3, #0
 80082b8:	e9c0 2402 	strd	r2, r4, [r0, #8]
 80082bc:	6145      	str	r5, [r0, #20]
 80082be:	f880 306b 	strb.w	r3, [r0, #107]	; 0x6b
 80082c2:	bc70      	pop	{r4, r5, r6}
 80082c4:	4770      	bx	lr
 80082c6:	4770      	bx	lr
 80082c8:	6a1a      	ldr	r2, [r3, #32]
 80082ca:	f042 0204 	orr.w	r2, r2, #4
 80082ce:	621a      	str	r2, [r3, #32]
 80082d0:	e7ba      	b.n	8008248 <R3_2_RLDetectionModeDisable+0x40>
 80082d2:	6a1a      	ldr	r2, [r3, #32]
 80082d4:	f442 6280 	orr.w	r2, r2, #1024	; 0x400
 80082d8:	621a      	str	r2, [r3, #32]
 80082da:	e7e6      	b.n	80082aa <R3_2_RLDetectionModeDisable+0xa2>
 80082dc:	6a1a      	ldr	r2, [r3, #32]
 80082de:	f042 0240 	orr.w	r2, r2, #64	; 0x40
 80082e2:	621a      	str	r2, [r3, #32]
 80082e4:	e7ca      	b.n	800827c <R3_2_RLDetectionModeDisable+0x74>
 80082e6:	bf00      	nop
 80082e8:	080078e5 	.word	0x080078e5
 80082ec:	0800797d 	.word	0x0800797d
 80082f0:	08007659 	.word	0x08007659
 80082f4:	08007895 	.word	0x08007895

080082f8 <R3_2_RLDetectionModeSetDuty>:
 80082f8:	f8d0 3088 	ldr.w	r3, [r0, #136]	; 0x88
 80082fc:	689b      	ldr	r3, [r3, #8]
 80082fe:	69da      	ldr	r2, [r3, #28]
 8008300:	b470      	push	{r4, r5, r6}
 8008302:	f8b0 407c 	ldrh.w	r4, [r0, #124]	; 0x7c
 8008306:	f8b0 6062 	ldrh.w	r6, [r0, #98]	; 0x62
 800830a:	f022 7280 	bic.w	r2, r2, #16777216	; 0x1000000
 800830e:	fb01 f104 	mul.w	r1, r1, r4
 8008312:	2501      	movs	r5, #1
 8008314:	f422 42e6 	bic.w	r2, r2, #29440	; 0x7300
 8008318:	f880 508c 	strb.w	r5, [r0, #140]	; 0x8c
 800831c:	0c09      	lsrs	r1, r1, #16
 800831e:	f8b0 5064 	ldrh.w	r5, [r0, #100]	; 0x64
 8008322:	8741      	strh	r1, [r0, #58]	; 0x3a
 8008324:	f442 42e0 	orr.w	r2, r2, #28672	; 0x7000
 8008328:	1ba4      	subs	r4, r4, r6
 800832a:	61da      	str	r2, [r3, #28]
 800832c:	641c      	str	r4, [r3, #64]	; 0x40
 800832e:	63dd      	str	r5, [r3, #60]	; 0x3c
 8008330:	6359      	str	r1, [r3, #52]	; 0x34
 8008332:	685a      	ldr	r2, [r3, #4]
 8008334:	f8b0 1040 	ldrh.w	r1, [r0, #64]	; 0x40
 8008338:	f022 7200 	bic.w	r2, r2, #33554432	; 0x2000000
 800833c:	f022 0270 	bic.w	r2, r2, #112	; 0x70
 8008340:	f042 0270 	orr.w	r2, r2, #112	; 0x70
 8008344:	2403      	movs	r4, #3
 8008346:	605a      	str	r2, [r3, #4]
 8008348:	2901      	cmp	r1, #1
 800834a:	f880 4068 	strb.w	r4, [r0, #104]	; 0x68
 800834e:	685b      	ldr	r3, [r3, #4]
 8008350:	d007      	beq.n	8008362 <R3_2_RLDetectionModeSetDuty+0x6a>
 8008352:	4a07      	ldr	r2, [pc, #28]	; (8008370 <R3_2_RLDetectionModeSetDuty+0x78>)
 8008354:	4213      	tst	r3, r2
 8008356:	bf14      	ite	ne
 8008358:	2101      	movne	r1, #1
 800835a:	2100      	moveq	r1, #0
 800835c:	4608      	mov	r0, r1
 800835e:	bc70      	pop	{r4, r5, r6}
 8008360:	4770      	bx	lr
 8008362:	2300      	movs	r3, #0
 8008364:	f8a0 3040 	strh.w	r3, [r0, #64]	; 0x40
 8008368:	bc70      	pop	{r4, r5, r6}
 800836a:	4608      	mov	r0, r1
 800836c:	4770      	bx	lr
 800836e:	bf00      	nop
 8008370:	02000070 	.word	0x02000070

08008374 <RVBS_Clear>:
 8008374:	b430      	push	{r4, r5}
 8008376:	8b82      	ldrh	r2, [r0, #28]
 8008378:	8b44      	ldrh	r4, [r0, #26]
 800837a:	8b03      	ldrh	r3, [r0, #24]
 800837c:	4414      	add	r4, r2
 800837e:	0864      	lsrs	r4, r4, #1
 8008380:	b14b      	cbz	r3, 8008396 <RVBS_Clear+0x22>
 8008382:	6a05      	ldr	r5, [r0, #32]
 8008384:	2300      	movs	r3, #0
 8008386:	b29a      	uxth	r2, r3
 8008388:	3301      	adds	r3, #1
 800838a:	f825 4012 	strh.w	r4, [r5, r2, lsl #1]
 800838e:	8b01      	ldrh	r1, [r0, #24]
 8008390:	b29a      	uxth	r2, r3
 8008392:	4291      	cmp	r1, r2
 8008394:	d8f7      	bhi.n	8008386 <RVBS_Clear+0x12>
 8008396:	2300      	movs	r3, #0
 8008398:	f364 030f 	bfi	r3, r4, #0, #16
 800839c:	f364 431f 	bfi	r3, r4, #16, #16
 80083a0:	2200      	movs	r2, #0
 80083a2:	bc30      	pop	{r4, r5}
 80083a4:	6043      	str	r3, [r0, #4]
 80083a6:	f880 2025 	strb.w	r2, [r0, #37]	; 0x25
 80083aa:	4770      	bx	lr

080083ac <RVBS_Init>:
 80083ac:	b510      	push	{r4, lr}
 80083ae:	4604      	mov	r4, r0
 80083b0:	300c      	adds	r0, #12
 80083b2:	f7fa fe55 	bl	8003060 <RCM_RegisterRegConv>
 80083b6:	f884 0026 	strb.w	r0, [r4, #38]	; 0x26
 80083ba:	4620      	mov	r0, r4
 80083bc:	f7ff ffda 	bl	8008374 <RVBS_Clear>
 80083c0:	bd10      	pop	{r4, pc}
 80083c2:	bf00      	nop

080083c4 <RVBS_CheckFaultState>:
 80083c4:	88c3      	ldrh	r3, [r0, #6]
 80083c6:	8b42      	ldrh	r2, [r0, #26]
 80083c8:	429a      	cmp	r2, r3
 80083ca:	d305      	bcc.n	80083d8 <RVBS_CheckFaultState+0x14>
 80083cc:	8b80      	ldrh	r0, [r0, #28]
 80083ce:	4298      	cmp	r0, r3
 80083d0:	bf8c      	ite	hi
 80083d2:	2004      	movhi	r0, #4
 80083d4:	2000      	movls	r0, #0
 80083d6:	4770      	bx	lr
 80083d8:	2002      	movs	r0, #2
 80083da:	4770      	bx	lr

080083dc <RVBS_CalcAvVbus>:
 80083dc:	b5f8      	push	{r3, r4, r5, r6, r7, lr}
 80083de:	4605      	mov	r5, r0
 80083e0:	f890 0026 	ldrb.w	r0, [r0, #38]	; 0x26
 80083e4:	f7fa ff10 	bl	8003208 <RCM_ExecRegularConv>
 80083e8:	f64f 73ff 	movw	r3, #65535	; 0xffff
 80083ec:	4298      	cmp	r0, r3
 80083ee:	d01c      	beq.n	800842a <RVBS_CalcAvVbus+0x4e>
 80083f0:	6a2f      	ldr	r7, [r5, #32]
 80083f2:	f895 3025 	ldrb.w	r3, [r5, #37]	; 0x25
 80083f6:	f827 0013 	strh.w	r0, [r7, r3, lsl #1]
 80083fa:	8b2e      	ldrh	r6, [r5, #24]
 80083fc:	b1d6      	cbz	r6, 8008434 <RVBS_CalcAvVbus+0x58>
 80083fe:	2300      	movs	r3, #0
 8008400:	461a      	mov	r2, r3
 8008402:	f837 4013 	ldrh.w	r4, [r7, r3, lsl #1]
 8008406:	3301      	adds	r3, #1
 8008408:	b2d9      	uxtb	r1, r3
 800840a:	42b1      	cmp	r1, r6
 800840c:	4422      	add	r2, r4
 800840e:	460b      	mov	r3, r1
 8008410:	d3f7      	bcc.n	8008402 <RVBS_CalcAvVbus+0x26>
 8008412:	fbb2 f2f6 	udiv	r2, r2, r6
 8008416:	f895 3025 	ldrb.w	r3, [r5, #37]	; 0x25
 800841a:	80ea      	strh	r2, [r5, #6]
 800841c:	3e01      	subs	r6, #1
 800841e:	42b3      	cmp	r3, r6
 8008420:	80a8      	strh	r0, [r5, #4]
 8008422:	da09      	bge.n	8008438 <RVBS_CalcAvVbus+0x5c>
 8008424:	3301      	adds	r3, #1
 8008426:	f885 3025 	strb.w	r3, [r5, #37]	; 0x25
 800842a:	4628      	mov	r0, r5
 800842c:	f7ff ffca 	bl	80083c4 <RVBS_CheckFaultState>
 8008430:	8128      	strh	r0, [r5, #8]
 8008432:	bdf8      	pop	{r3, r4, r5, r6, r7, pc}
 8008434:	80ee      	strh	r6, [r5, #6]
 8008436:	80a8      	strh	r0, [r5, #4]
 8008438:	2300      	movs	r3, #0
 800843a:	f885 3025 	strb.w	r3, [r5, #37]	; 0x25
 800843e:	4628      	mov	r0, r5
 8008440:	f7ff ffc0 	bl	80083c4 <RVBS_CheckFaultState>
 8008444:	8128      	strh	r0, [r5, #8]
 8008446:	bdf8      	pop	{r3, r4, r5, r6, r7, pc}

08008448 <REMNG_Init>:
 8008448:	2300      	movs	r3, #0
 800844a:	2201      	movs	r2, #1
 800844c:	e9c0 3301 	strd	r3, r3, [r0, #4]
 8008450:	e9c0 3303 	strd	r3, r3, [r0, #12]
 8008454:	6142      	str	r2, [r0, #20]
 8008456:	4770      	bx	lr

08008458 <SPD_GetElAngle>:
 8008458:	f9b0 0004 	ldrsh.w	r0, [r0, #4]
 800845c:	4770      	bx	lr
 800845e:	bf00      	nop

08008460 <SPD_GetAvrgMecSpeedUnit>:
 8008460:	f9b0 000c 	ldrsh.w	r0, [r0, #12]
 8008464:	4770      	bx	lr
 8008466:	bf00      	nop

08008468 <SPD_GetElSpeedDpp>:
 8008468:	f9b0 000e 	ldrsh.w	r0, [r0, #14]
 800846c:	4770      	bx	lr
 800846e:	bf00      	nop

08008470 <SPD_GetInstElSpeedDpp>:
 8008470:	f9b0 0010 	ldrsh.w	r0, [r0, #16]
 8008474:	4770      	bx	lr
 8008476:	bf00      	nop

08008478 <SPD_IsMecSpeedReliable>:
 8008478:	f9b1 3000 	ldrsh.w	r3, [r1]
 800847c:	8a81      	ldrh	r1, [r0, #20]
 800847e:	b430      	push	{r4, r5}
 8008480:	2b00      	cmp	r3, #0
 8008482:	bfb8      	it	lt
 8008484:	425b      	neglt	r3, r3
 8008486:	8ac5      	ldrh	r5, [r0, #22]
 8008488:	78c4      	ldrb	r4, [r0, #3]
 800848a:	7802      	ldrb	r2, [r0, #0]
 800848c:	b29b      	uxth	r3, r3
 800848e:	429d      	cmp	r5, r3
 8008490:	d817      	bhi.n	80084c2 <SPD_IsMecSpeedReliable+0x4a>
 8008492:	4299      	cmp	r1, r3
 8008494:	bf2c      	ite	cs
 8008496:	2300      	movcs	r3, #0
 8008498:	2301      	movcc	r3, #1
 800849a:	f9b0 1012 	ldrsh.w	r1, [r0, #18]
 800849e:	8b05      	ldrh	r5, [r0, #24]
 80084a0:	2900      	cmp	r1, #0
 80084a2:	bfb8      	it	lt
 80084a4:	4249      	neglt	r1, r1
 80084a6:	b289      	uxth	r1, r1
 80084a8:	428d      	cmp	r5, r1
 80084aa:	d300      	bcc.n	80084ae <SPD_IsMecSpeedReliable+0x36>
 80084ac:	b15b      	cbz	r3, 80084c6 <SPD_IsMecSpeedReliable+0x4e>
 80084ae:	4294      	cmp	r4, r2
 80084b0:	d901      	bls.n	80084b6 <SPD_IsMecSpeedReliable+0x3e>
 80084b2:	3201      	adds	r2, #1
 80084b4:	b2d2      	uxtb	r2, r2
 80084b6:	7002      	strb	r2, [r0, #0]
 80084b8:	1b10      	subs	r0, r2, r4
 80084ba:	bf18      	it	ne
 80084bc:	2001      	movne	r0, #1
 80084be:	bc30      	pop	{r4, r5}
 80084c0:	4770      	bx	lr
 80084c2:	2301      	movs	r3, #1
 80084c4:	e7e9      	b.n	800849a <SPD_IsMecSpeedReliable+0x22>
 80084c6:	4294      	cmp	r4, r2
 80084c8:	bf88      	it	hi
 80084ca:	2200      	movhi	r2, #0
 80084cc:	e7f3      	b.n	80084b6 <SPD_IsMecSpeedReliable+0x3e>
 80084ce:	bf00      	nop

080084d0 <SPD_GetS16Speed>:
 80084d0:	f9b0 300c 	ldrsh.w	r3, [r0, #12]
 80084d4:	f9b0 0014 	ldrsh.w	r0, [r0, #20]
 80084d8:	ebc3 33c3 	rsb	r3, r3, r3, lsl #15
 80084dc:	fb93 f0f0 	sdiv	r0, r3, r0
 80084e0:	b200      	sxth	r0, r0
 80084e2:	4770      	bx	lr

080084e4 <STC_Init>:
 80084e4:	b430      	push	{r4, r5}
 80084e6:	f9b0 302e 	ldrsh.w	r3, [r0, #46]	; 0x2e
 80084ea:	f9b0 402c 	ldrsh.w	r4, [r0, #44]	; 0x2c
 80084ee:	f890 502a 	ldrb.w	r5, [r0, #42]	; 0x2a
 80084f2:	6101      	str	r1, [r0, #16]
 80084f4:	0424      	lsls	r4, r4, #16
 80084f6:	0419      	lsls	r1, r3, #16
 80084f8:	2300      	movs	r3, #0
 80084fa:	e9c0 4101 	strd	r4, r1, [r0, #4]
 80084fe:	7005      	strb	r5, [r0, #0]
 8008500:	6142      	str	r2, [r0, #20]
 8008502:	bc30      	pop	{r4, r5}
 8008504:	8043      	strh	r3, [r0, #2]
 8008506:	60c3      	str	r3, [r0, #12]
 8008508:	6183      	str	r3, [r0, #24]
 800850a:	4770      	bx	lr

0800850c <STC_SetSpeedSensor>:
 800850c:	6141      	str	r1, [r0, #20]
 800850e:	4770      	bx	lr

08008510 <STC_GetSpeedSensor>:
 8008510:	6940      	ldr	r0, [r0, #20]
 8008512:	4770      	bx	lr

08008514 <STC_Clear>:
 8008514:	7803      	ldrb	r3, [r0, #0]
 8008516:	2b01      	cmp	r3, #1
 8008518:	d000      	beq.n	800851c <STC_Clear+0x8>
 800851a:	4770      	bx	lr
 800851c:	6900      	ldr	r0, [r0, #16]
 800851e:	2100      	movs	r1, #0
 8008520:	f7fe bf40 	b.w	80073a4 <PID_SetIntegralTerm>

08008524 <STC_GetMecSpeedRefUnit>:
 8008524:	6840      	ldr	r0, [r0, #4]
 8008526:	2800      	cmp	r0, #0
 8008528:	bfbc      	itt	lt
 800852a:	f500 407f 	addlt.w	r0, r0, #65280	; 0xff00
 800852e:	30ff      	addlt	r0, #255	; 0xff
 8008530:	1400      	asrs	r0, r0, #16
 8008532:	4770      	bx	lr

08008534 <STC_GetTorqueRef>:
 8008534:	6880      	ldr	r0, [r0, #8]
 8008536:	2800      	cmp	r0, #0
 8008538:	bfbc      	itt	lt
 800853a:	f500 407f 	addlt.w	r0, r0, #65280	; 0xff00
 800853e:	30ff      	addlt	r0, #255	; 0xff
 8008540:	1400      	asrs	r0, r0, #16
 8008542:	4770      	bx	lr

08008544 <STC_SetControlMode>:
 8008544:	2300      	movs	r3, #0
 8008546:	7001      	strb	r1, [r0, #0]
 8008548:	60c3      	str	r3, [r0, #12]
 800854a:	4770      	bx	lr

0800854c <STC_ExecRamp>:
 800854c:	b5f8      	push	{r3, r4, r5, r6, r7, lr}
 800854e:	7806      	ldrb	r6, [r0, #0]
 8008550:	4604      	mov	r4, r0
 8008552:	460d      	mov	r5, r1
 8008554:	4617      	mov	r7, r2
 8008556:	b326      	cbz	r6, 80085a2 <STC_ExecRamp+0x56>
 8008558:	6840      	ldr	r0, [r0, #4]
 800855a:	8be1      	ldrh	r1, [r4, #30]
 800855c:	2800      	cmp	r0, #0
 800855e:	bfbc      	itt	lt
 8008560:	f500 407f 	addlt.w	r0, r0, #65280	; 0xff00
 8008564:	30ff      	addlt	r0, #255	; 0xff
 8008566:	428d      	cmp	r5, r1
 8008568:	ea4f 4020 	mov.w	r0, r0, asr #16
 800856c:	dd01      	ble.n	8008572 <STC_ExecRamp+0x26>
 800856e:	2000      	movs	r0, #0
 8008570:	bdf8      	pop	{r3, r4, r5, r6, r7, pc}
 8008572:	f9b4 1024 	ldrsh.w	r1, [r4, #36]	; 0x24
 8008576:	42a9      	cmp	r1, r5
 8008578:	dcf9      	bgt.n	800856e <STC_ExecRamp+0x22>
 800857a:	8c23      	ldrh	r3, [r4, #32]
 800857c:	429d      	cmp	r5, r3
 800857e:	da03      	bge.n	8008588 <STC_ExecRamp+0x3c>
 8008580:	f9b4 3022 	ldrsh.w	r3, [r4, #34]	; 0x22
 8008584:	42ab      	cmp	r3, r5
 8008586:	dbf2      	blt.n	800856e <STC_ExecRamp+0x22>
 8008588:	b9af      	cbnz	r7, 80085b6 <STC_ExecRamp+0x6a>
 800858a:	7823      	ldrb	r3, [r4, #0]
 800858c:	042d      	lsls	r5, r5, #16
 800858e:	2b01      	cmp	r3, #1
 8008590:	f04f 0300 	mov.w	r3, #0
 8008594:	bf0c      	ite	eq
 8008596:	6065      	streq	r5, [r4, #4]
 8008598:	60a5      	strne	r5, [r4, #8]
 800859a:	60e3      	str	r3, [r4, #12]
 800859c:	61a3      	str	r3, [r4, #24]
 800859e:	2001      	movs	r0, #1
 80085a0:	bdf8      	pop	{r3, r4, r5, r6, r7, pc}
 80085a2:	f7ff ffc7 	bl	8008534 <STC_GetTorqueRef>
 80085a6:	8ce6      	ldrh	r6, [r4, #38]	; 0x26
 80085a8:	42b5      	cmp	r5, r6
 80085aa:	dce0      	bgt.n	800856e <STC_ExecRamp+0x22>
 80085ac:	f9b4 3028 	ldrsh.w	r3, [r4, #40]	; 0x28
 80085b0:	42ab      	cmp	r3, r5
 80085b2:	dcdc      	bgt.n	800856e <STC_ExecRamp+0x22>
 80085b4:	e7e8      	b.n	8008588 <STC_ExecRamp+0x3c>
 80085b6:	8ba3      	ldrh	r3, [r4, #28]
 80085b8:	4a07      	ldr	r2, [pc, #28]	; (80085d8 <STC_ExecRamp+0x8c>)
 80085ba:	8065      	strh	r5, [r4, #2]
 80085bc:	fb07 f303 	mul.w	r3, r7, r3
 80085c0:	fba2 2303 	umull	r2, r3, r2, r3
 80085c4:	099b      	lsrs	r3, r3, #6
 80085c6:	3301      	adds	r3, #1
 80085c8:	1a2d      	subs	r5, r5, r0
 80085ca:	042d      	lsls	r5, r5, #16
 80085cc:	60e3      	str	r3, [r4, #12]
 80085ce:	fb95 f5f3 	sdiv	r5, r5, r3
 80085d2:	2001      	movs	r0, #1
 80085d4:	61a5      	str	r5, [r4, #24]
 80085d6:	bdf8      	pop	{r3, r4, r5, r6, r7, pc}
 80085d8:	10624dd3 	.word	0x10624dd3

080085dc <STC_StopRamp>:
 80085dc:	2300      	movs	r3, #0
 80085de:	60c3      	str	r3, [r0, #12]
 80085e0:	6183      	str	r3, [r0, #24]
 80085e2:	4770      	bx	lr

080085e4 <STC_CalcTorqueReference>:
 80085e4:	b570      	push	{r4, r5, r6, lr}
 80085e6:	e9d0 6101 	ldrd	r6, r1, [r0, #4]
 80085ea:	7802      	ldrb	r2, [r0, #0]
 80085ec:	68c3      	ldr	r3, [r0, #12]
 80085ee:	2a00      	cmp	r2, #0
 80085f0:	bf08      	it	eq
 80085f2:	460e      	moveq	r6, r1
 80085f4:	2b01      	cmp	r3, #1
 80085f6:	4604      	mov	r4, r0
 80085f8:	d90c      	bls.n	8008614 <STC_CalcTorqueReference+0x30>
 80085fa:	6981      	ldr	r1, [r0, #24]
 80085fc:	440e      	add	r6, r1
 80085fe:	3b01      	subs	r3, #1
 8008600:	2e00      	cmp	r6, #0
 8008602:	60c3      	str	r3, [r0, #12]
 8008604:	4630      	mov	r0, r6
 8008606:	db09      	blt.n	800861c <STC_CalcTorqueReference+0x38>
 8008608:	1405      	asrs	r5, r0, #16
 800860a:	2a01      	cmp	r2, #1
 800860c:	d00a      	beq.n	8008624 <STC_CalcTorqueReference+0x40>
 800860e:	60a6      	str	r6, [r4, #8]
 8008610:	b228      	sxth	r0, r5
 8008612:	bd70      	pop	{r4, r5, r6, pc}
 8008614:	d012      	beq.n	800863c <STC_CalcTorqueReference+0x58>
 8008616:	2e00      	cmp	r6, #0
 8008618:	4630      	mov	r0, r6
 800861a:	daf5      	bge.n	8008608 <STC_CalcTorqueReference+0x24>
 800861c:	f506 407f 	add.w	r0, r6, #65280	; 0xff00
 8008620:	30ff      	adds	r0, #255	; 0xff
 8008622:	e7f1      	b.n	8008608 <STC_CalcTorqueReference+0x24>
 8008624:	6960      	ldr	r0, [r4, #20]
 8008626:	f7ff ff1b 	bl	8008460 <SPD_GetAvrgMecSpeedUnit>
 800862a:	1a28      	subs	r0, r5, r0
 800862c:	b201      	sxth	r1, r0
 800862e:	6920      	ldr	r0, [r4, #16]
 8008630:	f7fe feea 	bl	8007408 <PI_Controller>
 8008634:	0403      	lsls	r3, r0, #16
 8008636:	e9c4 6301 	strd	r6, r3, [r4, #4]
 800863a:	bd70      	pop	{r4, r5, r6, pc}
 800863c:	f9b0 5002 	ldrsh.w	r5, [r0, #2]
 8008640:	2300      	movs	r3, #0
 8008642:	042e      	lsls	r6, r5, #16
 8008644:	60c3      	str	r3, [r0, #12]
 8008646:	e7e0      	b.n	800860a <STC_CalcTorqueReference+0x26>

08008648 <STC_GetMecSpeedRefUnitDefault>:
 8008648:	f9b0 002c 	ldrsh.w	r0, [r0, #44]	; 0x2c
 800864c:	4770      	bx	lr
 800864e:	bf00      	nop

08008650 <STC_GetDefaultIqdref>:
 8008650:	f8d0 302e 	ldr.w	r3, [r0, #46]	; 0x2e
 8008654:	2200      	movs	r2, #0
 8008656:	b299      	uxth	r1, r3
 8008658:	f361 020f 	bfi	r2, r1, #0, #16
 800865c:	0c1b      	lsrs	r3, r3, #16
 800865e:	f363 421f 	bfi	r2, r3, #16, #16
 8008662:	b082      	sub	sp, #8
 8008664:	4610      	mov	r0, r2
 8008666:	b002      	add	sp, #8
 8008668:	4770      	bx	lr
 800866a:	bf00      	nop

0800866c <STC_ForceSpeedReferenceToCurrentSpeed>:
 800866c:	b510      	push	{r4, lr}
 800866e:	4604      	mov	r4, r0
 8008670:	6940      	ldr	r0, [r0, #20]
 8008672:	f7ff fef5 	bl	8008460 <SPD_GetAvrgMecSpeedUnit>
 8008676:	0400      	lsls	r0, r0, #16
 8008678:	6060      	str	r0, [r4, #4]
 800867a:	bd10      	pop	{r4, pc}

0800867c <STM_Init>:
 800867c:	2300      	movs	r3, #0
 800867e:	7003      	strb	r3, [r0, #0]
 8008680:	f8c0 3002 	str.w	r3, [r0, #2]
 8008684:	4770      	bx	lr
 8008686:	bf00      	nop

08008688 <STM_FaultProcessing>:
 8008688:	b430      	push	{r4, r5}
 800868a:	8843      	ldrh	r3, [r0, #2]
 800868c:	8885      	ldrh	r5, [r0, #4]
 800868e:	7804      	ldrb	r4, [r0, #0]
 8008690:	430b      	orrs	r3, r1
 8008692:	ea23 0202 	bic.w	r2, r3, r2
 8008696:	b292      	uxth	r2, r2
 8008698:	4329      	orrs	r1, r5
 800869a:	2c0a      	cmp	r4, #10
 800869c:	8042      	strh	r2, [r0, #2]
 800869e:	8081      	strh	r1, [r0, #4]
 80086a0:	d008      	beq.n	80086b4 <STM_FaultProcessing+0x2c>
 80086a2:	b912      	cbnz	r2, 80086aa <STM_FaultProcessing+0x22>
 80086a4:	4620      	mov	r0, r4
 80086a6:	bc30      	pop	{r4, r5}
 80086a8:	4770      	bx	lr
 80086aa:	240a      	movs	r4, #10
 80086ac:	7004      	strb	r4, [r0, #0]
 80086ae:	4620      	mov	r0, r4
 80086b0:	bc30      	pop	{r4, r5}
 80086b2:	4770      	bx	lr
 80086b4:	2a00      	cmp	r2, #0
 80086b6:	d1f5      	bne.n	80086a4 <STM_FaultProcessing+0x1c>
 80086b8:	240b      	movs	r4, #11
 80086ba:	7004      	strb	r4, [r0, #0]
 80086bc:	4620      	mov	r0, r4
 80086be:	bc30      	pop	{r4, r5}
 80086c0:	4770      	bx	lr
 80086c2:	bf00      	nop

080086c4 <STM_NextState>:
 80086c4:	b508      	push	{r3, lr}
 80086c6:	7803      	ldrb	r3, [r0, #0]
 80086c8:	2b14      	cmp	r3, #20
 80086ca:	d810      	bhi.n	80086ee <STM_NextState+0x2a>
 80086cc:	e8df f003 	tbb	[pc, r3]
 80086d0:	240d545e 	.word	0x240d545e
 80086d4:	390d352e 	.word	0x390d352e
 80086d8:	0f0f3f3c 	.word	0x0f0f3f3c
 80086dc:	47650b44 	.word	0x47650b44
 80086e0:	504d1b4a 	.word	0x504d1b4a
 80086e4:	5b          	.byte	0x5b
 80086e5:	00          	.byte	0x00
 80086e6:	290e      	cmp	r1, #14
 80086e8:	d013      	beq.n	8008712 <STM_NextState+0x4e>
 80086ea:	2907      	cmp	r1, #7
 80086ec:	d011      	beq.n	8008712 <STM_NextState+0x4e>
 80086ee:	f001 03fd 	and.w	r3, r1, #253	; 0xfd
 80086f2:	2b01      	cmp	r3, #1
 80086f4:	d018      	beq.n	8008728 <STM_NextState+0x64>
 80086f6:	2907      	cmp	r1, #7
 80086f8:	d016      	beq.n	8008728 <STM_NextState+0x64>
 80086fa:	2200      	movs	r2, #0
 80086fc:	2180      	movs	r1, #128	; 0x80
 80086fe:	f7ff ffc3 	bl	8008688 <STM_FaultProcessing>
 8008702:	2000      	movs	r0, #0
 8008704:	bd08      	pop	{r3, pc}
 8008706:	2914      	cmp	r1, #20
 8008708:	d8f1      	bhi.n	80086ee <STM_NextState+0x2a>
 800870a:	4b26      	ldr	r3, [pc, #152]	; (80087a4 <STM_NextState+0xe0>)
 800870c:	40cb      	lsrs	r3, r1
 800870e:	07db      	lsls	r3, r3, #31
 8008710:	d5ed      	bpl.n	80086ee <STM_NextState+0x2a>
 8008712:	7001      	strb	r1, [r0, #0]
 8008714:	2001      	movs	r0, #1
 8008716:	bd08      	pop	{r3, pc}
 8008718:	2911      	cmp	r1, #17
 800871a:	d8ee      	bhi.n	80086fa <STM_NextState+0x36>
 800871c:	4b22      	ldr	r3, [pc, #136]	; (80087a8 <STM_NextState+0xe4>)
 800871e:	40cb      	lsrs	r3, r1
 8008720:	07da      	lsls	r2, r3, #31
 8008722:	d4f6      	bmi.n	8008712 <STM_NextState+0x4e>
 8008724:	2903      	cmp	r1, #3
 8008726:	d1e8      	bne.n	80086fa <STM_NextState+0x36>
 8008728:	2000      	movs	r0, #0
 800872a:	bd08      	pop	{r3, pc}
 800872c:	2913      	cmp	r1, #19
 800872e:	d0f0      	beq.n	8008712 <STM_NextState+0x4e>
 8008730:	f001 03fd 	and.w	r3, r1, #253	; 0xfd
 8008734:	2b05      	cmp	r3, #5
 8008736:	d1dc      	bne.n	80086f2 <STM_NextState+0x2e>
 8008738:	e7eb      	b.n	8008712 <STM_NextState+0x4e>
 800873a:	1f8b      	subs	r3, r1, #6
 800873c:	2b01      	cmp	r3, #1
 800873e:	d8d6      	bhi.n	80086ee <STM_NextState+0x2a>
 8008740:	e7e7      	b.n	8008712 <STM_NextState+0x4e>
 8008742:	2908      	cmp	r1, #8
 8008744:	d1d3      	bne.n	80086ee <STM_NextState+0x2a>
 8008746:	e7e4      	b.n	8008712 <STM_NextState+0x4e>
 8008748:	2909      	cmp	r1, #9
 800874a:	d1d0      	bne.n	80086ee <STM_NextState+0x2a>
 800874c:	e7e1      	b.n	8008712 <STM_NextState+0x4e>
 800874e:	2900      	cmp	r1, #0
 8008750:	d0df      	beq.n	8008712 <STM_NextState+0x4e>
 8008752:	290c      	cmp	r1, #12
 8008754:	d1cb      	bne.n	80086ee <STM_NextState+0x2a>
 8008756:	e7dc      	b.n	8008712 <STM_NextState+0x4e>
 8008758:	2900      	cmp	r1, #0
 800875a:	d0da      	beq.n	8008712 <STM_NextState+0x4e>
 800875c:	e7c7      	b.n	80086ee <STM_NextState+0x2a>
 800875e:	2902      	cmp	r1, #2
 8008760:	d1c3      	bne.n	80086ea <STM_NextState+0x26>
 8008762:	e7d6      	b.n	8008712 <STM_NextState+0x4e>
 8008764:	2911      	cmp	r1, #17
 8008766:	d1c0      	bne.n	80086ea <STM_NextState+0x26>
 8008768:	e7d3      	b.n	8008712 <STM_NextState+0x4e>
 800876a:	2904      	cmp	r1, #4
 800876c:	d1bd      	bne.n	80086ea <STM_NextState+0x26>
 800876e:	e7d0      	b.n	8008712 <STM_NextState+0x4e>
 8008770:	1f0b      	subs	r3, r1, #4
 8008772:	2b01      	cmp	r3, #1
 8008774:	d8b9      	bhi.n	80086ea <STM_NextState+0x26>
 8008776:	e7cc      	b.n	8008712 <STM_NextState+0x4e>
 8008778:	2907      	cmp	r1, #7
 800877a:	d0ca      	beq.n	8008712 <STM_NextState+0x4e>
 800877c:	f1a1 030d 	sub.w	r3, r1, #13
 8008780:	2b01      	cmp	r3, #1
 8008782:	d8b4      	bhi.n	80086ee <STM_NextState+0x2a>
 8008784:	e7c5      	b.n	8008712 <STM_NextState+0x4e>
 8008786:	2912      	cmp	r1, #18
 8008788:	d1af      	bne.n	80086ea <STM_NextState+0x26>
 800878a:	e7c2      	b.n	8008712 <STM_NextState+0x4e>
 800878c:	f001 03fd 	and.w	r3, r1, #253	; 0xfd
 8008790:	2b01      	cmp	r3, #1
 8008792:	d0be      	beq.n	8008712 <STM_NextState+0x4e>
 8008794:	290c      	cmp	r1, #12
 8008796:	d1ae      	bne.n	80086f6 <STM_NextState+0x32>
 8008798:	e7bb      	b.n	8008712 <STM_NextState+0x4e>
 800879a:	f001 03f7 	and.w	r3, r1, #247	; 0xf7
 800879e:	2b07      	cmp	r3, #7
 80087a0:	d1a5      	bne.n	80086ee <STM_NextState+0x2a>
 80087a2:	e7b6      	b.n	8008712 <STM_NextState+0x4e>
 80087a4:	00140080 	.word	0x00140080
 80087a8:	00030092 	.word	0x00030092

080087ac <STM_GetState>:
 80087ac:	7800      	ldrb	r0, [r0, #0]
 80087ae:	4770      	bx	lr

080087b0 <STM_FaultAcknowledged>:
 80087b0:	7803      	ldrb	r3, [r0, #0]
 80087b2:	2b0b      	cmp	r3, #11
 80087b4:	d001      	beq.n	80087ba <STM_FaultAcknowledged+0xa>
 80087b6:	2000      	movs	r0, #0
 80087b8:	4770      	bx	lr
 80087ba:	2209      	movs	r2, #9
 80087bc:	2300      	movs	r3, #0
 80087be:	7002      	strb	r2, [r0, #0]
 80087c0:	8083      	strh	r3, [r0, #4]
 80087c2:	2001      	movs	r0, #1
 80087c4:	4770      	bx	lr
 80087c6:	bf00      	nop

080087c8 <STM_GetFaultState>:
 80087c8:	8883      	ldrh	r3, [r0, #4]
 80087ca:	8840      	ldrh	r0, [r0, #2]
 80087cc:	ea43 4000 	orr.w	r0, r3, r0, lsl #16
 80087d0:	4770      	bx	lr
 80087d2:	bf00      	nop

080087d4 <VSS_Clear>:
 80087d4:	2300      	movs	r3, #0
 80087d6:	8ec2      	ldrh	r2, [r0, #54]	; 0x36
 80087d8:	85c2      	strh	r2, [r0, #46]	; 0x2e
 80087da:	e9c0 3308 	strd	r3, r3, [r0, #32]
 80087de:	7003      	strb	r3, [r0, #0]
 80087e0:	6043      	str	r3, [r0, #4]
 80087e2:	60c3      	str	r3, [r0, #12]
 80087e4:	8243      	strh	r3, [r0, #18]
 80087e6:	8503      	strh	r3, [r0, #40]	; 0x28
 80087e8:	8583      	strh	r3, [r0, #44]	; 0x2c
 80087ea:	6303      	str	r3, [r0, #48]	; 0x30
 80087ec:	4770      	bx	lr
 80087ee:	bf00      	nop

080087f0 <VSS_Init>:
 80087f0:	b508      	push	{r3, lr}
 80087f2:	f7ff ffef 	bl	80087d4 <VSS_Clear>
 80087f6:	bd08      	pop	{r3, pc}

080087f8 <VSS_SetMecAngle>:
 80087f8:	7843      	ldrb	r3, [r0, #1]
 80087fa:	8601      	strh	r1, [r0, #48]	; 0x30
 80087fc:	8081      	strh	r1, [r0, #4]
 80087fe:	fb91 f1f3 	sdiv	r1, r1, r3
 8008802:	80c1      	strh	r1, [r0, #6]
 8008804:	4770      	bx	lr
 8008806:	bf00      	nop

08008808 <VSS_SetMecAcceleration>:
 8008808:	b470      	push	{r4, r5, r6}
 800880a:	f890 402c 	ldrb.w	r4, [r0, #44]	; 0x2c
 800880e:	b984      	cbnz	r4, 8008832 <VSS_SetMecAcceleration+0x2a>
 8008810:	b98a      	cbnz	r2, 8008836 <VSS_SetMecAcceleration+0x2e>
 8008812:	8b43      	ldrh	r3, [r0, #26]
 8008814:	69c4      	ldr	r4, [r0, #28]
 8008816:	7845      	ldrb	r5, [r0, #1]
 8008818:	8181      	strh	r1, [r0, #12]
 800881a:	eb03 0383 	add.w	r3, r3, r3, lsl #2
 800881e:	005b      	lsls	r3, r3, #1
 8008820:	fb04 f401 	mul.w	r4, r4, r1
 8008824:	fb94 f3f3 	sdiv	r3, r4, r3
 8008828:	fb15 f303 	smulbb	r3, r5, r3
 800882c:	8502      	strh	r2, [r0, #40]	; 0x28
 800882e:	8541      	strh	r1, [r0, #42]	; 0x2a
 8008830:	81c3      	strh	r3, [r0, #14]
 8008832:	bc70      	pop	{r4, r5, r6}
 8008834:	4770      	bx	lr
 8008836:	8e83      	ldrh	r3, [r0, #52]	; 0x34
 8008838:	4d11      	ldr	r5, [pc, #68]	; (8008880 <VSS_SetMecAcceleration+0x78>)
 800883a:	8b44      	ldrh	r4, [r0, #26]
 800883c:	f9b0 600e 	ldrsh.w	r6, [r0, #14]
 8008840:	8541      	strh	r1, [r0, #42]	; 0x2a
 8008842:	fb02 f303 	mul.w	r3, r2, r3
 8008846:	fba5 2303 	umull	r2, r3, r5, r3
 800884a:	69c2      	ldr	r2, [r0, #28]
 800884c:	7845      	ldrb	r5, [r0, #1]
 800884e:	f3c3 138f 	ubfx	r3, r3, #6, #16
 8008852:	eb04 0484 	add.w	r4, r4, r4, lsl #2
 8008856:	0064      	lsls	r4, r4, #1
 8008858:	fb02 f201 	mul.w	r2, r2, r1
 800885c:	3301      	adds	r3, #1
 800885e:	fb96 f1f5 	sdiv	r1, r6, r5
 8008862:	fb92 f2f4 	sdiv	r2, r2, r4
 8008866:	1a52      	subs	r2, r2, r1
 8008868:	b29b      	uxth	r3, r3
 800886a:	0436      	lsls	r6, r6, #16
 800886c:	0412      	lsls	r2, r2, #16
 800886e:	fb92 f2f3 	sdiv	r2, r2, r3
 8008872:	fb05 f202 	mul.w	r2, r5, r2
 8008876:	e9c0 2608 	strd	r2, r6, [r0, #32]
 800887a:	8503      	strh	r3, [r0, #40]	; 0x28
 800887c:	bc70      	pop	{r4, r5, r6}
 800887e:	4770      	bx	lr
 8008880:	10624dd3 	.word	0x10624dd3

08008884 <FF_Init>:
 8008884:	b430      	push	{r4, r5}
 8008886:	e9d0 540a 	ldrd	r5, r4, [r0, #40]	; 0x28
 800888a:	6181      	str	r1, [r0, #24]
 800888c:	6b01      	ldr	r1, [r0, #48]	; 0x30
 800888e:	6141      	str	r1, [r0, #20]
 8008890:	e9c0 5403 	strd	r5, r4, [r0, #12]
 8008894:	e9c0 3207 	strd	r3, r2, [r0, #28]
 8008898:	bc30      	pop	{r4, r5}
 800889a:	4770      	bx	lr

0800889c <FF_Clear>:
 800889c:	2300      	movs	r3, #0
 800889e:	6003      	str	r3, [r0, #0]
 80088a0:	4770      	bx	lr
 80088a2:	bf00      	nop

080088a4 <FF_VqdffComputation>:
 80088a4:	b570      	push	{r4, r5, r6, lr}
 80088a6:	b082      	sub	sp, #8
 80088a8:	4604      	mov	r4, r0
 80088aa:	4610      	mov	r0, r2
 80088ac:	9101      	str	r1, [sp, #4]
 80088ae:	f7ff fe2f 	bl	8008510 <STC_GetSpeedSensor>
 80088b2:	f7ff fdd9 	bl	8008468 <SPD_GetElSpeedDpp>
 80088b6:	4605      	mov	r5, r0
 80088b8:	4825      	ldr	r0, [pc, #148]	; (8008950 <FF_VqdffComputation+0xac>)
 80088ba:	f7fe f8df 	bl	8006a7c <VBS_GetAvBusVoltage_d>
 80088be:	f3c0 004f 	ubfx	r0, r0, #1, #16
 80088c2:	2800      	cmp	r0, #0
 80088c4:	d040      	beq.n	8008948 <FF_VqdffComputation+0xa4>
 80088c6:	f8bd 2006 	ldrh.w	r2, [sp, #6]
 80088ca:	68e3      	ldr	r3, [r4, #12]
 80088cc:	6961      	ldr	r1, [r4, #20]
 80088ce:	4e21      	ldr	r6, [pc, #132]	; (8008954 <FF_VqdffComputation+0xb0>)
 80088d0:	fb12 f205 	smulbb	r2, r2, r5
 80088d4:	2a00      	cmp	r2, #0
 80088d6:	bfbc      	itt	lt
 80088d8:	f502 42ff 	addlt.w	r2, r2, #32640	; 0x7f80
 80088dc:	327f      	addlt	r2, #127	; 0x7f
 80088de:	13d2      	asrs	r2, r2, #15
 80088e0:	fb03 f302 	mul.w	r3, r3, r2
 80088e4:	f9b4 2008 	ldrsh.w	r2, [r4, #8]
 80088e8:	fb93 f3f0 	sdiv	r3, r3, r0
 80088ec:	005b      	lsls	r3, r3, #1
 80088ee:	fb01 f105 	mul.w	r1, r1, r5
 80088f2:	fb91 f1f0 	sdiv	r1, r1, r0
 80088f6:	eb03 1301 	add.w	r3, r3, r1, lsl #4
 80088fa:	4413      	add	r3, r2
 80088fc:	42b3      	cmp	r3, r6
 80088fe:	f8bd 2004 	ldrh.w	r2, [sp, #4]
 8008902:	bfb8      	it	lt
 8008904:	4633      	movlt	r3, r6
 8008906:	f647 71ff 	movw	r1, #32767	; 0x7fff
 800890a:	428b      	cmp	r3, r1
 800890c:	fb12 f505 	smulbb	r5, r2, r5
 8008910:	bfa8      	it	ge
 8008912:	460b      	movge	r3, r1
 8008914:	2d00      	cmp	r5, #0
 8008916:	bfb8      	it	lt
 8008918:	186d      	addlt	r5, r5, r1
 800891a:	8023      	strh	r3, [r4, #0]
 800891c:	6922      	ldr	r2, [r4, #16]
 800891e:	f9b4 300a 	ldrsh.w	r3, [r4, #10]
 8008922:	490c      	ldr	r1, [pc, #48]	; (8008954 <FF_VqdffComputation+0xb0>)
 8008924:	13ed      	asrs	r5, r5, #15
 8008926:	fb02 f505 	mul.w	r5, r2, r5
 800892a:	fb95 f0f0 	sdiv	r0, r5, r0
 800892e:	eba3 0040 	sub.w	r0, r3, r0, lsl #1
 8008932:	4288      	cmp	r0, r1
 8008934:	bfb8      	it	lt
 8008936:	4608      	movlt	r0, r1
 8008938:	f647 73ff 	movw	r3, #32767	; 0x7fff
 800893c:	4298      	cmp	r0, r3
 800893e:	bfa8      	it	ge
 8008940:	4618      	movge	r0, r3
 8008942:	8060      	strh	r0, [r4, #2]
 8008944:	b002      	add	sp, #8
 8008946:	bd70      	pop	{r4, r5, r6, pc}
 8008948:	6020      	str	r0, [r4, #0]
 800894a:	b002      	add	sp, #8
 800894c:	bd70      	pop	{r4, r5, r6, pc}
 800894e:	bf00      	nop
 8008950:	20000000 	.word	0x20000000
 8008954:	ffff8001 	.word	0xffff8001

08008958 <FF_VqdConditioning>:
 8008958:	f9b0 2000 	ldrsh.w	r2, [r0]
 800895c:	f9b0 3002 	ldrsh.w	r3, [r0, #2]
 8008960:	b410      	push	{r4}
 8008962:	4c10      	ldr	r4, [pc, #64]	; (80089a4 <FF_VqdConditioning+0x4c>)
 8008964:	6041      	str	r1, [r0, #4]
 8008966:	fa02 f281 	sxtah	r2, r2, r1
 800896a:	42a2      	cmp	r2, r4
 800896c:	eb03 4121 	add.w	r1, r3, r1, asr #16
 8008970:	bfb8      	it	lt
 8008972:	4622      	movlt	r2, r4
 8008974:	f647 73ff 	movw	r3, #32767	; 0x7fff
 8008978:	42a1      	cmp	r1, r4
 800897a:	bfb8      	it	lt
 800897c:	4621      	movlt	r1, r4
 800897e:	429a      	cmp	r2, r3
 8008980:	bfa8      	it	ge
 8008982:	461a      	movge	r2, r3
 8008984:	4299      	cmp	r1, r3
 8008986:	b292      	uxth	r2, r2
 8008988:	bfa8      	it	ge
 800898a:	4619      	movge	r1, r3
 800898c:	2000      	movs	r0, #0
 800898e:	b289      	uxth	r1, r1
 8008990:	f362 000f 	bfi	r0, r2, #0, #16
 8008994:	b085      	sub	sp, #20
 8008996:	f361 401f 	bfi	r0, r1, #16, #16
 800899a:	b005      	add	sp, #20
 800899c:	f85d 4b04 	ldr.w	r4, [sp], #4
 80089a0:	4770      	bx	lr
 80089a2:	bf00      	nop
 80089a4:	ffff8001 	.word	0xffff8001

080089a8 <FF_DataProcess>:
 80089a8:	b470      	push	{r4, r5, r6}
 80089aa:	8c81      	ldrh	r1, [r0, #36]	; 0x24
 80089ac:	f9b0 2008 	ldrsh.w	r2, [r0, #8]
 80089b0:	f9b0 6004 	ldrsh.w	r6, [r0, #4]
 80089b4:	f9b0 300a 	ldrsh.w	r3, [r0, #10]
 80089b8:	f9b0 5006 	ldrsh.w	r5, [r0, #6]
 80089bc:	8e84      	ldrh	r4, [r0, #52]	; 0x34
 80089be:	3901      	subs	r1, #1
 80089c0:	fb01 6202 	mla	r2, r1, r2, r6
 80089c4:	fb01 5303 	mla	r3, r1, r3, r5
 80089c8:	4122      	asrs	r2, r4
 80089ca:	4123      	asrs	r3, r4
 80089cc:	8102      	strh	r2, [r0, #8]
 80089ce:	8143      	strh	r3, [r0, #10]
 80089d0:	bc70      	pop	{r4, r5, r6}
 80089d2:	4770      	bx	lr

080089d4 <FF_InitFOCAdditionalMethods>:
 80089d4:	b538      	push	{r3, r4, r5, lr}
 80089d6:	2500      	movs	r5, #0
 80089d8:	4604      	mov	r4, r0
 80089da:	6085      	str	r5, [r0, #8]
 80089dc:	4629      	mov	r1, r5
 80089de:	69c0      	ldr	r0, [r0, #28]
 80089e0:	f7fe fce0 	bl	80073a4 <PID_SetIntegralTerm>
 80089e4:	4629      	mov	r1, r5
 80089e6:	6a20      	ldr	r0, [r4, #32]
 80089e8:	e8bd 4038 	ldmia.w	sp!, {r3, r4, r5, lr}
 80089ec:	f7fe bcda 	b.w	80073a4 <PID_SetIntegralTerm>

080089f0 <FF_GetVqdff>:
 80089f0:	6803      	ldr	r3, [r0, #0]
 80089f2:	2000      	movs	r0, #0
 80089f4:	b29a      	uxth	r2, r3
 80089f6:	f362 000f 	bfi	r0, r2, #0, #16
 80089fa:	0c1b      	lsrs	r3, r3, #16
 80089fc:	b082      	sub	sp, #8
 80089fe:	f363 401f 	bfi	r0, r3, #16, #16
 8008a02:	b002      	add	sp, #8
 8008a04:	4770      	bx	lr
 8008a06:	bf00      	nop

08008a08 <FF_GetVqdAvPIout>:
 8008a08:	6803      	ldr	r3, [r0, #0]
 8008a0a:	2000      	movs	r0, #0
 8008a0c:	b29a      	uxth	r2, r3
 8008a0e:	f362 000f 	bfi	r0, r2, #0, #16
 8008a12:	0c1b      	lsrs	r3, r3, #16
 8008a14:	b082      	sub	sp, #8
 8008a16:	f363 401f 	bfi	r0, r3, #16, #16
 8008a1a:	b002      	add	sp, #8
 8008a1c:	4770      	bx	lr
 8008a1e:	bf00      	nop

08008a20 <__libc_init_array>:
 8008a20:	b570      	push	{r4, r5, r6, lr}
 8008a22:	4d0d      	ldr	r5, [pc, #52]	; (8008a58 <__libc_init_array+0x38>)
 8008a24:	4c0d      	ldr	r4, [pc, #52]	; (8008a5c <__libc_init_array+0x3c>)
 8008a26:	1b64      	subs	r4, r4, r5
 8008a28:	10a4      	asrs	r4, r4, #2
 8008a2a:	2600      	movs	r6, #0
 8008a2c:	42a6      	cmp	r6, r4
 8008a2e:	d109      	bne.n	8008a44 <__libc_init_array+0x24>
 8008a30:	4d0b      	ldr	r5, [pc, #44]	; (8008a60 <__libc_init_array+0x40>)
 8008a32:	4c0c      	ldr	r4, [pc, #48]	; (8008a64 <__libc_init_array+0x44>)
 8008a34:	f000 f82e 	bl	8008a94 <_init>
 8008a38:	1b64      	subs	r4, r4, r5
 8008a3a:	10a4      	asrs	r4, r4, #2
 8008a3c:	2600      	movs	r6, #0
 8008a3e:	42a6      	cmp	r6, r4
 8008a40:	d105      	bne.n	8008a4e <__libc_init_array+0x2e>
 8008a42:	bd70      	pop	{r4, r5, r6, pc}
 8008a44:	f855 3b04 	ldr.w	r3, [r5], #4
 8008a48:	4798      	blx	r3
 8008a4a:	3601      	adds	r6, #1
 8008a4c:	e7ee      	b.n	8008a2c <__libc_init_array+0xc>
 8008a4e:	f855 3b04 	ldr.w	r3, [r5], #4
 8008a52:	4798      	blx	r3
 8008a54:	3601      	adds	r6, #1
 8008a56:	e7f2      	b.n	8008a3e <__libc_init_array+0x1e>
 8008a58:	08008e20 	.word	0x08008e20
 8008a5c:	08008e20 	.word	0x08008e20
 8008a60:	08008e20 	.word	0x08008e20
 8008a64:	08008e24 	.word	0x08008e24

08008a68 <memcpy>:
 8008a68:	440a      	add	r2, r1
 8008a6a:	4291      	cmp	r1, r2
 8008a6c:	f100 33ff 	add.w	r3, r0, #4294967295
 8008a70:	d100      	bne.n	8008a74 <memcpy+0xc>
 8008a72:	4770      	bx	lr
 8008a74:	b510      	push	{r4, lr}
 8008a76:	f811 4b01 	ldrb.w	r4, [r1], #1
 8008a7a:	f803 4f01 	strb.w	r4, [r3, #1]!
 8008a7e:	4291      	cmp	r1, r2
 8008a80:	d1f9      	bne.n	8008a76 <memcpy+0xe>
 8008a82:	bd10      	pop	{r4, pc}

08008a84 <memset>:
 8008a84:	4402      	add	r2, r0
 8008a86:	4603      	mov	r3, r0
 8008a88:	4293      	cmp	r3, r2
 8008a8a:	d100      	bne.n	8008a8e <memset+0xa>
 8008a8c:	4770      	bx	lr
 8008a8e:	f803 1b01 	strb.w	r1, [r3], #1
 8008a92:	e7f9      	b.n	8008a88 <memset+0x4>

08008a94 <_init>:
 8008a94:	b5f8      	push	{r3, r4, r5, r6, r7, lr}
 8008a96:	bf00      	nop
 8008a98:	bcf8      	pop	{r3, r4, r5, r6, r7}
 8008a9a:	bc08      	pop	{r3}
 8008a9c:	469e      	mov	lr, r3
 8008a9e:	4770      	bx	lr

08008aa0 <_fini>:
 8008aa0:	b5f8      	push	{r3, r4, r5, r6, r7, lr}
 8008aa2:	bf00      	nop
 8008aa4:	bcf8      	pop	{r3, r4, r5, r6, r7}
 8008aa6:	bc08      	pop	{r3}
 8008aa8:	469e      	mov	lr, r3
 8008aaa:	4770      	bx	lr
